ARM GAS  C:\Users\bku598\AppData\Local\Temp\cc3wINKy.s 			page 1


   1              		.cpu cortex-m4
   2              		.arch armv7e-m
   3              		.fpu fpv4-sp-d16
   4              		.eabi_attribute 27, 1
   5              		.eabi_attribute 28, 1
   6              		.eabi_attribute 20, 1
   7              		.eabi_attribute 21, 1
   8              		.eabi_attribute 23, 3
   9              		.eabi_attribute 24, 1
  10              		.eabi_attribute 25, 1
  11              		.eabi_attribute 26, 1
  12              		.eabi_attribute 30, 1
  13              		.eabi_attribute 34, 1
  14              		.eabi_attribute 18, 4
  15              		.file	"ble_events.c"
  16              		.text
  17              	.Ltext0:
  18              		.cfi_sections	.debug_frame
  19              		.file 1 "Middlewares/ST/STM32_WPAN/ble/core/auto/ble_events.c"
  20              		.section	.text.hci_disconnection_complete_event,"ax",%progbits
  21              		.align	1
  22              		.weak	hci_disconnection_complete_event
  23              		.syntax unified
  24              		.thumb
  25              		.thumb_func
  27              	hci_disconnection_complete_event:
  28              	.LVL0:
  29              	.LFB0:
   1:Middlewares/ST/STM32_WPAN/ble/core/auto/ble_events.c **** /*****************************************************************************
   2:Middlewares/ST/STM32_WPAN/ble/core/auto/ble_events.c ****  * @file    ble_events.c
   3:Middlewares/ST/STM32_WPAN/ble/core/auto/ble_events.c ****  * @brief   STM32WB BLE API (event callbacks)
   4:Middlewares/ST/STM32_WPAN/ble/core/auto/ble_events.c ****  *          Auto-generated file: do not edit!
   5:Middlewares/ST/STM32_WPAN/ble/core/auto/ble_events.c ****  *****************************************************************************
   6:Middlewares/ST/STM32_WPAN/ble/core/auto/ble_events.c ****  * @attention
   7:Middlewares/ST/STM32_WPAN/ble/core/auto/ble_events.c ****  *
   8:Middlewares/ST/STM32_WPAN/ble/core/auto/ble_events.c ****  * Copyright (c) 2018-2025 STMicroelectronics.
   9:Middlewares/ST/STM32_WPAN/ble/core/auto/ble_events.c ****  * All rights reserved.
  10:Middlewares/ST/STM32_WPAN/ble/core/auto/ble_events.c ****  *
  11:Middlewares/ST/STM32_WPAN/ble/core/auto/ble_events.c ****  * This software is licensed under terms that can be found in the LICENSE file
  12:Middlewares/ST/STM32_WPAN/ble/core/auto/ble_events.c ****  * in the root directory of this software component.
  13:Middlewares/ST/STM32_WPAN/ble/core/auto/ble_events.c ****  * If no LICENSE file comes with this software, it is provided AS-IS.
  14:Middlewares/ST/STM32_WPAN/ble/core/auto/ble_events.c ****  *
  15:Middlewares/ST/STM32_WPAN/ble/core/auto/ble_events.c ****  *****************************************************************************
  16:Middlewares/ST/STM32_WPAN/ble/core/auto/ble_events.c ****  */
  17:Middlewares/ST/STM32_WPAN/ble/core/auto/ble_events.c **** 
  18:Middlewares/ST/STM32_WPAN/ble/core/auto/ble_events.c **** #include "auto/ble_events.h"
  19:Middlewares/ST/STM32_WPAN/ble/core/auto/ble_events.c **** 
  20:Middlewares/ST/STM32_WPAN/ble/core/auto/ble_events.c **** /* Event process functions declaration */
  21:Middlewares/ST/STM32_WPAN/ble/core/auto/ble_events.c **** static void hci_disconnection_complete_event_process( const uint8_t* in );
  22:Middlewares/ST/STM32_WPAN/ble/core/auto/ble_events.c **** static void hci_encryption_change_event_process( const uint8_t* in );
  23:Middlewares/ST/STM32_WPAN/ble/core/auto/ble_events.c **** static void hci_read_remote_version_information_complete_event_process( const uint8_t* in );
  24:Middlewares/ST/STM32_WPAN/ble/core/auto/ble_events.c **** static void hci_hardware_error_event_process( const uint8_t* in );
  25:Middlewares/ST/STM32_WPAN/ble/core/auto/ble_events.c **** static void hci_number_of_completed_packets_event_process( const uint8_t* in );
  26:Middlewares/ST/STM32_WPAN/ble/core/auto/ble_events.c **** static void hci_encryption_key_refresh_complete_event_process( const uint8_t* in );
  27:Middlewares/ST/STM32_WPAN/ble/core/auto/ble_events.c **** static void hci_le_connection_complete_event_process( const uint8_t* in );
  28:Middlewares/ST/STM32_WPAN/ble/core/auto/ble_events.c **** static void hci_le_advertising_report_event_process( const uint8_t* in );
  29:Middlewares/ST/STM32_WPAN/ble/core/auto/ble_events.c **** static void hci_le_connection_update_complete_event_process( const uint8_t* in );
ARM GAS  C:\Users\bku598\AppData\Local\Temp\cc3wINKy.s 			page 2


  30:Middlewares/ST/STM32_WPAN/ble/core/auto/ble_events.c **** static void hci_le_read_remote_features_page_0_complete_event_process( const uint8_t* in );
  31:Middlewares/ST/STM32_WPAN/ble/core/auto/ble_events.c **** static void hci_le_long_term_key_request_event_process( const uint8_t* in );
  32:Middlewares/ST/STM32_WPAN/ble/core/auto/ble_events.c **** static void hci_le_data_length_change_event_process( const uint8_t* in );
  33:Middlewares/ST/STM32_WPAN/ble/core/auto/ble_events.c **** static void hci_le_read_local_p256_public_key_complete_event_process( const uint8_t* in );
  34:Middlewares/ST/STM32_WPAN/ble/core/auto/ble_events.c **** static void hci_le_generate_dhkey_complete_event_process( const uint8_t* in );
  35:Middlewares/ST/STM32_WPAN/ble/core/auto/ble_events.c **** static void hci_le_enhanced_connection_complete_event_process( const uint8_t* in );
  36:Middlewares/ST/STM32_WPAN/ble/core/auto/ble_events.c **** static void hci_le_directed_advertising_report_event_process( const uint8_t* in );
  37:Middlewares/ST/STM32_WPAN/ble/core/auto/ble_events.c **** static void hci_le_phy_update_complete_event_process( const uint8_t* in );
  38:Middlewares/ST/STM32_WPAN/ble/core/auto/ble_events.c **** static void hci_le_extended_advertising_report_event_process( const uint8_t* in );
  39:Middlewares/ST/STM32_WPAN/ble/core/auto/ble_events.c **** static void hci_le_scan_timeout_event_process( const uint8_t* in );
  40:Middlewares/ST/STM32_WPAN/ble/core/auto/ble_events.c **** static void hci_le_advertising_set_terminated_event_process( const uint8_t* in );
  41:Middlewares/ST/STM32_WPAN/ble/core/auto/ble_events.c **** static void hci_le_scan_request_received_event_process( const uint8_t* in );
  42:Middlewares/ST/STM32_WPAN/ble/core/auto/ble_events.c **** static void hci_le_channel_selection_algorithm_event_process( const uint8_t* in );
  43:Middlewares/ST/STM32_WPAN/ble/core/auto/ble_events.c **** static void aci_warning_event_process( const uint8_t* in );
  44:Middlewares/ST/STM32_WPAN/ble/core/auto/ble_events.c **** static void aci_gap_limited_discoverable_event_process( const uint8_t* in );
  45:Middlewares/ST/STM32_WPAN/ble/core/auto/ble_events.c **** static void aci_gap_pairing_complete_event_process( const uint8_t* in );
  46:Middlewares/ST/STM32_WPAN/ble/core/auto/ble_events.c **** static void aci_gap_pass_key_req_event_process( const uint8_t* in );
  47:Middlewares/ST/STM32_WPAN/ble/core/auto/ble_events.c **** static void aci_gap_authorization_req_event_process( const uint8_t* in );
  48:Middlewares/ST/STM32_WPAN/ble/core/auto/ble_events.c **** static void aci_gap_bond_lost_event_process( const uint8_t* in );
  49:Middlewares/ST/STM32_WPAN/ble/core/auto/ble_events.c **** static void aci_gap_proc_complete_event_process( const uint8_t* in );
  50:Middlewares/ST/STM32_WPAN/ble/core/auto/ble_events.c **** static void aci_gap_addr_not_resolved_event_process( const uint8_t* in );
  51:Middlewares/ST/STM32_WPAN/ble/core/auto/ble_events.c **** static void aci_gap_numeric_comparison_value_event_process( const uint8_t* in );
  52:Middlewares/ST/STM32_WPAN/ble/core/auto/ble_events.c **** static void aci_gap_keypress_notification_event_process( const uint8_t* in );
  53:Middlewares/ST/STM32_WPAN/ble/core/auto/ble_events.c **** static void aci_gap_pairing_request_event_process( const uint8_t* in );
  54:Middlewares/ST/STM32_WPAN/ble/core/auto/ble_events.c **** static void aci_l2cap_connection_update_resp_event_process( const uint8_t* in );
  55:Middlewares/ST/STM32_WPAN/ble/core/auto/ble_events.c **** static void aci_l2cap_proc_timeout_event_process( const uint8_t* in );
  56:Middlewares/ST/STM32_WPAN/ble/core/auto/ble_events.c **** static void aci_l2cap_connection_update_req_event_process( const uint8_t* in );
  57:Middlewares/ST/STM32_WPAN/ble/core/auto/ble_events.c **** static void aci_l2cap_command_reject_event_process( const uint8_t* in );
  58:Middlewares/ST/STM32_WPAN/ble/core/auto/ble_events.c **** static void aci_l2cap_coc_connect_event_process( const uint8_t* in );
  59:Middlewares/ST/STM32_WPAN/ble/core/auto/ble_events.c **** static void aci_l2cap_coc_connect_confirm_event_process( const uint8_t* in );
  60:Middlewares/ST/STM32_WPAN/ble/core/auto/ble_events.c **** static void aci_l2cap_coc_reconf_event_process( const uint8_t* in );
  61:Middlewares/ST/STM32_WPAN/ble/core/auto/ble_events.c **** static void aci_l2cap_coc_reconf_confirm_event_process( const uint8_t* in );
  62:Middlewares/ST/STM32_WPAN/ble/core/auto/ble_events.c **** static void aci_l2cap_coc_disconnect_event_process( const uint8_t* in );
  63:Middlewares/ST/STM32_WPAN/ble/core/auto/ble_events.c **** static void aci_l2cap_coc_flow_control_event_process( const uint8_t* in );
  64:Middlewares/ST/STM32_WPAN/ble/core/auto/ble_events.c **** static void aci_l2cap_coc_rx_data_event_process( const uint8_t* in );
  65:Middlewares/ST/STM32_WPAN/ble/core/auto/ble_events.c **** static void aci_l2cap_coc_tx_pool_available_event_process( const uint8_t* in );
  66:Middlewares/ST/STM32_WPAN/ble/core/auto/ble_events.c **** static void aci_gatt_attribute_modified_event_process( const uint8_t* in );
  67:Middlewares/ST/STM32_WPAN/ble/core/auto/ble_events.c **** static void aci_gatt_proc_timeout_event_process( const uint8_t* in );
  68:Middlewares/ST/STM32_WPAN/ble/core/auto/ble_events.c **** static void aci_att_exchange_mtu_resp_event_process( const uint8_t* in );
  69:Middlewares/ST/STM32_WPAN/ble/core/auto/ble_events.c **** static void aci_att_find_info_resp_event_process( const uint8_t* in );
  70:Middlewares/ST/STM32_WPAN/ble/core/auto/ble_events.c **** static void aci_att_find_by_type_value_resp_event_process( const uint8_t* in );
  71:Middlewares/ST/STM32_WPAN/ble/core/auto/ble_events.c **** static void aci_att_read_by_type_resp_event_process( const uint8_t* in );
  72:Middlewares/ST/STM32_WPAN/ble/core/auto/ble_events.c **** static void aci_att_read_resp_event_process( const uint8_t* in );
  73:Middlewares/ST/STM32_WPAN/ble/core/auto/ble_events.c **** static void aci_att_read_blob_resp_event_process( const uint8_t* in );
  74:Middlewares/ST/STM32_WPAN/ble/core/auto/ble_events.c **** static void aci_att_read_multiple_resp_event_process( const uint8_t* in );
  75:Middlewares/ST/STM32_WPAN/ble/core/auto/ble_events.c **** static void aci_att_read_by_group_type_resp_event_process( const uint8_t* in );
  76:Middlewares/ST/STM32_WPAN/ble/core/auto/ble_events.c **** static void aci_att_prepare_write_resp_event_process( const uint8_t* in );
  77:Middlewares/ST/STM32_WPAN/ble/core/auto/ble_events.c **** static void aci_att_exec_write_resp_event_process( const uint8_t* in );
  78:Middlewares/ST/STM32_WPAN/ble/core/auto/ble_events.c **** static void aci_gatt_indication_event_process( const uint8_t* in );
  79:Middlewares/ST/STM32_WPAN/ble/core/auto/ble_events.c **** static void aci_gatt_notification_event_process( const uint8_t* in );
  80:Middlewares/ST/STM32_WPAN/ble/core/auto/ble_events.c **** static void aci_gatt_proc_complete_event_process( const uint8_t* in );
  81:Middlewares/ST/STM32_WPAN/ble/core/auto/ble_events.c **** static void aci_gatt_error_resp_event_process( const uint8_t* in );
  82:Middlewares/ST/STM32_WPAN/ble/core/auto/ble_events.c **** static void aci_gatt_disc_read_char_by_uuid_resp_event_process( const uint8_t* in );
  83:Middlewares/ST/STM32_WPAN/ble/core/auto/ble_events.c **** static void aci_gatt_write_permit_req_event_process( const uint8_t* in );
  84:Middlewares/ST/STM32_WPAN/ble/core/auto/ble_events.c **** static void aci_gatt_read_permit_req_event_process( const uint8_t* in );
  85:Middlewares/ST/STM32_WPAN/ble/core/auto/ble_events.c **** static void aci_gatt_read_multi_permit_req_event_process( const uint8_t* in );
  86:Middlewares/ST/STM32_WPAN/ble/core/auto/ble_events.c **** static void aci_gatt_tx_pool_available_event_process( const uint8_t* in );
ARM GAS  C:\Users\bku598\AppData\Local\Temp\cc3wINKy.s 			page 3


  87:Middlewares/ST/STM32_WPAN/ble/core/auto/ble_events.c **** static void aci_gatt_server_confirmation_event_process( const uint8_t* in );
  88:Middlewares/ST/STM32_WPAN/ble/core/auto/ble_events.c **** static void aci_gatt_prepare_write_permit_req_event_process( const uint8_t* in );
  89:Middlewares/ST/STM32_WPAN/ble/core/auto/ble_events.c **** static void aci_gatt_eatt_bearer_event_process( const uint8_t* in );
  90:Middlewares/ST/STM32_WPAN/ble/core/auto/ble_events.c **** static void aci_gatt_mult_notification_event_process( const uint8_t* in );
  91:Middlewares/ST/STM32_WPAN/ble/core/auto/ble_events.c **** static void aci_gatt_notification_complete_event_process( const uint8_t* in );
  92:Middlewares/ST/STM32_WPAN/ble/core/auto/ble_events.c **** static void aci_gatt_read_ext_event_process( const uint8_t* in );
  93:Middlewares/ST/STM32_WPAN/ble/core/auto/ble_events.c **** static void aci_gatt_indication_ext_event_process( const uint8_t* in );
  94:Middlewares/ST/STM32_WPAN/ble/core/auto/ble_events.c **** static void aci_gatt_notification_ext_event_process( const uint8_t* in );
  95:Middlewares/ST/STM32_WPAN/ble/core/auto/ble_events.c **** static void aci_hal_end_of_radio_activity_event_process( const uint8_t* in );
  96:Middlewares/ST/STM32_WPAN/ble/core/auto/ble_events.c **** static void aci_hal_scan_req_report_event_process( const uint8_t* in );
  97:Middlewares/ST/STM32_WPAN/ble/core/auto/ble_events.c **** 
  98:Middlewares/ST/STM32_WPAN/ble/core/auto/ble_events.c **** /* HCI event process functions table */
  99:Middlewares/ST/STM32_WPAN/ble/core/auto/ble_events.c **** const hci_event_table_t hci_event_table[HCI_EVENT_TABLE_SIZE] =
 100:Middlewares/ST/STM32_WPAN/ble/core/auto/ble_events.c **** {
 101:Middlewares/ST/STM32_WPAN/ble/core/auto/ble_events.c ****   { 0x0005U, hci_disconnection_complete_event_process },
 102:Middlewares/ST/STM32_WPAN/ble/core/auto/ble_events.c ****   { 0x0008U, hci_encryption_change_event_process },
 103:Middlewares/ST/STM32_WPAN/ble/core/auto/ble_events.c ****   { 0x000CU, hci_read_remote_version_information_complete_event_process },
 104:Middlewares/ST/STM32_WPAN/ble/core/auto/ble_events.c ****   { 0x0010U, hci_hardware_error_event_process },
 105:Middlewares/ST/STM32_WPAN/ble/core/auto/ble_events.c ****   { 0x0013U, hci_number_of_completed_packets_event_process },
 106:Middlewares/ST/STM32_WPAN/ble/core/auto/ble_events.c ****   { 0x0030U, hci_encryption_key_refresh_complete_event_process },
 107:Middlewares/ST/STM32_WPAN/ble/core/auto/ble_events.c **** };
 108:Middlewares/ST/STM32_WPAN/ble/core/auto/ble_events.c **** 
 109:Middlewares/ST/STM32_WPAN/ble/core/auto/ble_events.c **** /* HCI LE event process functions table */
 110:Middlewares/ST/STM32_WPAN/ble/core/auto/ble_events.c **** const hci_event_table_t hci_le_event_table[HCI_LE_EVENT_TABLE_SIZE] =
 111:Middlewares/ST/STM32_WPAN/ble/core/auto/ble_events.c **** {
 112:Middlewares/ST/STM32_WPAN/ble/core/auto/ble_events.c ****   { 0x0001U, hci_le_connection_complete_event_process },
 113:Middlewares/ST/STM32_WPAN/ble/core/auto/ble_events.c ****   { 0x0002U, hci_le_advertising_report_event_process },
 114:Middlewares/ST/STM32_WPAN/ble/core/auto/ble_events.c ****   { 0x0003U, hci_le_connection_update_complete_event_process },
 115:Middlewares/ST/STM32_WPAN/ble/core/auto/ble_events.c ****   { 0x0004U, hci_le_read_remote_features_page_0_complete_event_process },
 116:Middlewares/ST/STM32_WPAN/ble/core/auto/ble_events.c ****   { 0x0005U, hci_le_long_term_key_request_event_process },
 117:Middlewares/ST/STM32_WPAN/ble/core/auto/ble_events.c ****   { 0x0007U, hci_le_data_length_change_event_process },
 118:Middlewares/ST/STM32_WPAN/ble/core/auto/ble_events.c ****   { 0x0008U, hci_le_read_local_p256_public_key_complete_event_process },
 119:Middlewares/ST/STM32_WPAN/ble/core/auto/ble_events.c ****   { 0x0009U, hci_le_generate_dhkey_complete_event_process },
 120:Middlewares/ST/STM32_WPAN/ble/core/auto/ble_events.c ****   { 0x000AU, hci_le_enhanced_connection_complete_event_process },
 121:Middlewares/ST/STM32_WPAN/ble/core/auto/ble_events.c ****   { 0x000BU, hci_le_directed_advertising_report_event_process },
 122:Middlewares/ST/STM32_WPAN/ble/core/auto/ble_events.c ****   { 0x000CU, hci_le_phy_update_complete_event_process },
 123:Middlewares/ST/STM32_WPAN/ble/core/auto/ble_events.c ****   { 0x000DU, hci_le_extended_advertising_report_event_process },
 124:Middlewares/ST/STM32_WPAN/ble/core/auto/ble_events.c ****   { 0x0011U, hci_le_scan_timeout_event_process },
 125:Middlewares/ST/STM32_WPAN/ble/core/auto/ble_events.c ****   { 0x0012U, hci_le_advertising_set_terminated_event_process },
 126:Middlewares/ST/STM32_WPAN/ble/core/auto/ble_events.c ****   { 0x0013U, hci_le_scan_request_received_event_process },
 127:Middlewares/ST/STM32_WPAN/ble/core/auto/ble_events.c ****   { 0x0014U, hci_le_channel_selection_algorithm_event_process },
 128:Middlewares/ST/STM32_WPAN/ble/core/auto/ble_events.c **** };
 129:Middlewares/ST/STM32_WPAN/ble/core/auto/ble_events.c **** 
 130:Middlewares/ST/STM32_WPAN/ble/core/auto/ble_events.c **** /* HCI VS event process functions table */
 131:Middlewares/ST/STM32_WPAN/ble/core/auto/ble_events.c **** const hci_event_table_t hci_vs_event_table[HCI_VS_EVENT_TABLE_SIZE] =
 132:Middlewares/ST/STM32_WPAN/ble/core/auto/ble_events.c **** {
 133:Middlewares/ST/STM32_WPAN/ble/core/auto/ble_events.c ****   { 0x0006U, aci_warning_event_process },
 134:Middlewares/ST/STM32_WPAN/ble/core/auto/ble_events.c ****   { 0x0400U, aci_gap_limited_discoverable_event_process },
 135:Middlewares/ST/STM32_WPAN/ble/core/auto/ble_events.c ****   { 0x0401U, aci_gap_pairing_complete_event_process },
 136:Middlewares/ST/STM32_WPAN/ble/core/auto/ble_events.c ****   { 0x0402U, aci_gap_pass_key_req_event_process },
 137:Middlewares/ST/STM32_WPAN/ble/core/auto/ble_events.c ****   { 0x0403U, aci_gap_authorization_req_event_process },
 138:Middlewares/ST/STM32_WPAN/ble/core/auto/ble_events.c ****   { 0x0405U, aci_gap_bond_lost_event_process },
 139:Middlewares/ST/STM32_WPAN/ble/core/auto/ble_events.c ****   { 0x0407U, aci_gap_proc_complete_event_process },
 140:Middlewares/ST/STM32_WPAN/ble/core/auto/ble_events.c ****   { 0x0408U, aci_gap_addr_not_resolved_event_process },
 141:Middlewares/ST/STM32_WPAN/ble/core/auto/ble_events.c ****   { 0x0409U, aci_gap_numeric_comparison_value_event_process },
 142:Middlewares/ST/STM32_WPAN/ble/core/auto/ble_events.c ****   { 0x040AU, aci_gap_keypress_notification_event_process },
 143:Middlewares/ST/STM32_WPAN/ble/core/auto/ble_events.c ****   { 0x040BU, aci_gap_pairing_request_event_process },
ARM GAS  C:\Users\bku598\AppData\Local\Temp\cc3wINKy.s 			page 4


 144:Middlewares/ST/STM32_WPAN/ble/core/auto/ble_events.c ****   { 0x0800U, aci_l2cap_connection_update_resp_event_process },
 145:Middlewares/ST/STM32_WPAN/ble/core/auto/ble_events.c ****   { 0x0801U, aci_l2cap_proc_timeout_event_process },
 146:Middlewares/ST/STM32_WPAN/ble/core/auto/ble_events.c ****   { 0x0802U, aci_l2cap_connection_update_req_event_process },
 147:Middlewares/ST/STM32_WPAN/ble/core/auto/ble_events.c ****   { 0x080AU, aci_l2cap_command_reject_event_process },
 148:Middlewares/ST/STM32_WPAN/ble/core/auto/ble_events.c ****   { 0x0810U, aci_l2cap_coc_connect_event_process },
 149:Middlewares/ST/STM32_WPAN/ble/core/auto/ble_events.c ****   { 0x0811U, aci_l2cap_coc_connect_confirm_event_process },
 150:Middlewares/ST/STM32_WPAN/ble/core/auto/ble_events.c ****   { 0x0812U, aci_l2cap_coc_reconf_event_process },
 151:Middlewares/ST/STM32_WPAN/ble/core/auto/ble_events.c ****   { 0x0813U, aci_l2cap_coc_reconf_confirm_event_process },
 152:Middlewares/ST/STM32_WPAN/ble/core/auto/ble_events.c ****   { 0x0814U, aci_l2cap_coc_disconnect_event_process },
 153:Middlewares/ST/STM32_WPAN/ble/core/auto/ble_events.c ****   { 0x0815U, aci_l2cap_coc_flow_control_event_process },
 154:Middlewares/ST/STM32_WPAN/ble/core/auto/ble_events.c ****   { 0x0816U, aci_l2cap_coc_rx_data_event_process },
 155:Middlewares/ST/STM32_WPAN/ble/core/auto/ble_events.c ****   { 0x0817U, aci_l2cap_coc_tx_pool_available_event_process },
 156:Middlewares/ST/STM32_WPAN/ble/core/auto/ble_events.c ****   { 0x0C01U, aci_gatt_attribute_modified_event_process },
 157:Middlewares/ST/STM32_WPAN/ble/core/auto/ble_events.c ****   { 0x0C02U, aci_gatt_proc_timeout_event_process },
 158:Middlewares/ST/STM32_WPAN/ble/core/auto/ble_events.c ****   { 0x0C03U, aci_att_exchange_mtu_resp_event_process },
 159:Middlewares/ST/STM32_WPAN/ble/core/auto/ble_events.c ****   { 0x0C04U, aci_att_find_info_resp_event_process },
 160:Middlewares/ST/STM32_WPAN/ble/core/auto/ble_events.c ****   { 0x0C05U, aci_att_find_by_type_value_resp_event_process },
 161:Middlewares/ST/STM32_WPAN/ble/core/auto/ble_events.c ****   { 0x0C06U, aci_att_read_by_type_resp_event_process },
 162:Middlewares/ST/STM32_WPAN/ble/core/auto/ble_events.c ****   { 0x0C07U, aci_att_read_resp_event_process },
 163:Middlewares/ST/STM32_WPAN/ble/core/auto/ble_events.c ****   { 0x0C08U, aci_att_read_blob_resp_event_process },
 164:Middlewares/ST/STM32_WPAN/ble/core/auto/ble_events.c ****   { 0x0C09U, aci_att_read_multiple_resp_event_process },
 165:Middlewares/ST/STM32_WPAN/ble/core/auto/ble_events.c ****   { 0x0C0AU, aci_att_read_by_group_type_resp_event_process },
 166:Middlewares/ST/STM32_WPAN/ble/core/auto/ble_events.c ****   { 0x0C0CU, aci_att_prepare_write_resp_event_process },
 167:Middlewares/ST/STM32_WPAN/ble/core/auto/ble_events.c ****   { 0x0C0DU, aci_att_exec_write_resp_event_process },
 168:Middlewares/ST/STM32_WPAN/ble/core/auto/ble_events.c ****   { 0x0C0EU, aci_gatt_indication_event_process },
 169:Middlewares/ST/STM32_WPAN/ble/core/auto/ble_events.c ****   { 0x0C0FU, aci_gatt_notification_event_process },
 170:Middlewares/ST/STM32_WPAN/ble/core/auto/ble_events.c ****   { 0x0C10U, aci_gatt_proc_complete_event_process },
 171:Middlewares/ST/STM32_WPAN/ble/core/auto/ble_events.c ****   { 0x0C11U, aci_gatt_error_resp_event_process },
 172:Middlewares/ST/STM32_WPAN/ble/core/auto/ble_events.c ****   { 0x0C12U, aci_gatt_disc_read_char_by_uuid_resp_event_process },
 173:Middlewares/ST/STM32_WPAN/ble/core/auto/ble_events.c ****   { 0x0C13U, aci_gatt_write_permit_req_event_process },
 174:Middlewares/ST/STM32_WPAN/ble/core/auto/ble_events.c ****   { 0x0C14U, aci_gatt_read_permit_req_event_process },
 175:Middlewares/ST/STM32_WPAN/ble/core/auto/ble_events.c ****   { 0x0C15U, aci_gatt_read_multi_permit_req_event_process },
 176:Middlewares/ST/STM32_WPAN/ble/core/auto/ble_events.c ****   { 0x0C16U, aci_gatt_tx_pool_available_event_process },
 177:Middlewares/ST/STM32_WPAN/ble/core/auto/ble_events.c ****   { 0x0C17U, aci_gatt_server_confirmation_event_process },
 178:Middlewares/ST/STM32_WPAN/ble/core/auto/ble_events.c ****   { 0x0C18U, aci_gatt_prepare_write_permit_req_event_process },
 179:Middlewares/ST/STM32_WPAN/ble/core/auto/ble_events.c ****   { 0x0C19U, aci_gatt_eatt_bearer_event_process },
 180:Middlewares/ST/STM32_WPAN/ble/core/auto/ble_events.c ****   { 0x0C1AU, aci_gatt_mult_notification_event_process },
 181:Middlewares/ST/STM32_WPAN/ble/core/auto/ble_events.c ****   { 0x0C1BU, aci_gatt_notification_complete_event_process },
 182:Middlewares/ST/STM32_WPAN/ble/core/auto/ble_events.c ****   { 0x0C1DU, aci_gatt_read_ext_event_process },
 183:Middlewares/ST/STM32_WPAN/ble/core/auto/ble_events.c ****   { 0x0C1EU, aci_gatt_indication_ext_event_process },
 184:Middlewares/ST/STM32_WPAN/ble/core/auto/ble_events.c ****   { 0x0C1FU, aci_gatt_notification_ext_event_process },
 185:Middlewares/ST/STM32_WPAN/ble/core/auto/ble_events.c ****   { 0x1804U, aci_hal_end_of_radio_activity_event_process },
 186:Middlewares/ST/STM32_WPAN/ble/core/auto/ble_events.c ****   { 0x1805U, aci_hal_scan_req_report_event_process },
 187:Middlewares/ST/STM32_WPAN/ble/core/auto/ble_events.c **** };
 188:Middlewares/ST/STM32_WPAN/ble/core/auto/ble_events.c **** 
 189:Middlewares/ST/STM32_WPAN/ble/core/auto/ble_events.c **** /* HCI_DISCONNECTION_COMPLETE_EVENT callback function */
 190:Middlewares/ST/STM32_WPAN/ble/core/auto/ble_events.c **** __WEAK void hci_disconnection_complete_event( uint8_t Status,
 191:Middlewares/ST/STM32_WPAN/ble/core/auto/ble_events.c ****                                               uint16_t Connection_Handle,
 192:Middlewares/ST/STM32_WPAN/ble/core/auto/ble_events.c ****                                               uint8_t Reason )
 193:Middlewares/ST/STM32_WPAN/ble/core/auto/ble_events.c **** {
  30              		.loc 1 193 1 view -0
  31              		.cfi_startproc
  32              		@ args = 0, pretend = 0, frame = 0
  33              		@ frame_needed = 0, uses_anonymous_args = 0
  34              		@ link register save eliminated.
 194:Middlewares/ST/STM32_WPAN/ble/core/auto/ble_events.c **** }
  35              		.loc 1 194 1 view .LVU1
ARM GAS  C:\Users\bku598\AppData\Local\Temp\cc3wINKy.s 			page 5


  36 0000 7047     		bx	lr
  37              		.cfi_endproc
  38              	.LFE0:
  40              		.section	.text.hci_disconnection_complete_event_process,"ax",%progbits
  41              		.align	1
  42              		.syntax unified
  43              		.thumb
  44              		.thumb_func
  46              	hci_disconnection_complete_event_process:
  47              	.LVL1:
  48              	.LFB1:
 195:Middlewares/ST/STM32_WPAN/ble/core/auto/ble_events.c **** 
 196:Middlewares/ST/STM32_WPAN/ble/core/auto/ble_events.c **** /* HCI_DISCONNECTION_COMPLETE_EVENT process function */
 197:Middlewares/ST/STM32_WPAN/ble/core/auto/ble_events.c **** static void hci_disconnection_complete_event_process( const uint8_t* in )
 198:Middlewares/ST/STM32_WPAN/ble/core/auto/ble_events.c **** {
  49              		.loc 1 198 1 view -0
  50              		.cfi_startproc
  51              		@ args = 0, pretend = 0, frame = 0
  52              		@ frame_needed = 0, uses_anonymous_args = 0
  53              		.loc 1 198 1 is_stmt 0 view .LVU3
  54 0000 08B5     		push	{r3, lr}
  55              	.LCFI0:
  56              		.cfi_def_cfa_offset 8
  57              		.cfi_offset 3, -8
  58              		.cfi_offset 14, -4
 199:Middlewares/ST/STM32_WPAN/ble/core/auto/ble_events.c ****   hci_disconnection_complete_event_rp0 *rp0 = (void*)in;
  59              		.loc 1 199 3 is_stmt 1 view .LVU4
  60              	.LVL2:
 200:Middlewares/ST/STM32_WPAN/ble/core/auto/ble_events.c ****   hci_disconnection_complete_event( rp0->Status,
  61              		.loc 1 200 3 view .LVU5
  62 0002 C278     		ldrb	r2, [r0, #3]	@ zero_extendqisi2
  63 0004 B0F80110 		ldrh	r1, [r0, #1]	@ unaligned
  64 0008 0078     		ldrb	r0, [r0]	@ zero_extendqisi2
  65              	.LVL3:
  66              		.loc 1 200 3 is_stmt 0 view .LVU6
  67 000a FFF7FEFF 		bl	hci_disconnection_complete_event
  68              	.LVL4:
 201:Middlewares/ST/STM32_WPAN/ble/core/auto/ble_events.c ****                                     rp0->Connection_Handle,
 202:Middlewares/ST/STM32_WPAN/ble/core/auto/ble_events.c ****                                     rp0->Reason );
 203:Middlewares/ST/STM32_WPAN/ble/core/auto/ble_events.c **** }
  69              		.loc 1 203 1 view .LVU7
  70 000e 08BD     		pop	{r3, pc}
  71              		.cfi_endproc
  72              	.LFE1:
  74              		.section	.text.hci_encryption_change_event,"ax",%progbits
  75              		.align	1
  76              		.weak	hci_encryption_change_event
  77              		.syntax unified
  78              		.thumb
  79              		.thumb_func
  81              	hci_encryption_change_event:
  82              	.LVL5:
  83              	.LFB2:
 204:Middlewares/ST/STM32_WPAN/ble/core/auto/ble_events.c **** 
 205:Middlewares/ST/STM32_WPAN/ble/core/auto/ble_events.c **** /* HCI_ENCRYPTION_CHANGE_EVENT callback function */
 206:Middlewares/ST/STM32_WPAN/ble/core/auto/ble_events.c **** __WEAK void hci_encryption_change_event( uint8_t Status,
 207:Middlewares/ST/STM32_WPAN/ble/core/auto/ble_events.c ****                                          uint16_t Connection_Handle,
ARM GAS  C:\Users\bku598\AppData\Local\Temp\cc3wINKy.s 			page 6


 208:Middlewares/ST/STM32_WPAN/ble/core/auto/ble_events.c ****                                          uint8_t Encryption_Enabled )
 209:Middlewares/ST/STM32_WPAN/ble/core/auto/ble_events.c **** {
  84              		.loc 1 209 1 is_stmt 1 view -0
  85              		.cfi_startproc
  86              		@ args = 0, pretend = 0, frame = 0
  87              		@ frame_needed = 0, uses_anonymous_args = 0
  88              		@ link register save eliminated.
 210:Middlewares/ST/STM32_WPAN/ble/core/auto/ble_events.c **** }
  89              		.loc 1 210 1 view .LVU9
  90 0000 7047     		bx	lr
  91              		.cfi_endproc
  92              	.LFE2:
  94              		.section	.text.hci_encryption_change_event_process,"ax",%progbits
  95              		.align	1
  96              		.syntax unified
  97              		.thumb
  98              		.thumb_func
 100              	hci_encryption_change_event_process:
 101              	.LVL6:
 102              	.LFB3:
 211:Middlewares/ST/STM32_WPAN/ble/core/auto/ble_events.c **** 
 212:Middlewares/ST/STM32_WPAN/ble/core/auto/ble_events.c **** /* HCI_ENCRYPTION_CHANGE_EVENT process function */
 213:Middlewares/ST/STM32_WPAN/ble/core/auto/ble_events.c **** static void hci_encryption_change_event_process( const uint8_t* in )
 214:Middlewares/ST/STM32_WPAN/ble/core/auto/ble_events.c **** {
 103              		.loc 1 214 1 view -0
 104              		.cfi_startproc
 105              		@ args = 0, pretend = 0, frame = 0
 106              		@ frame_needed = 0, uses_anonymous_args = 0
 107              		.loc 1 214 1 is_stmt 0 view .LVU11
 108 0000 08B5     		push	{r3, lr}
 109              	.LCFI1:
 110              		.cfi_def_cfa_offset 8
 111              		.cfi_offset 3, -8
 112              		.cfi_offset 14, -4
 215:Middlewares/ST/STM32_WPAN/ble/core/auto/ble_events.c ****   hci_encryption_change_event_rp0 *rp0 = (void*)in;
 113              		.loc 1 215 3 is_stmt 1 view .LVU12
 114              	.LVL7:
 216:Middlewares/ST/STM32_WPAN/ble/core/auto/ble_events.c ****   hci_encryption_change_event( rp0->Status,
 115              		.loc 1 216 3 view .LVU13
 116 0002 C278     		ldrb	r2, [r0, #3]	@ zero_extendqisi2
 117 0004 B0F80110 		ldrh	r1, [r0, #1]	@ unaligned
 118 0008 0078     		ldrb	r0, [r0]	@ zero_extendqisi2
 119              	.LVL8:
 120              		.loc 1 216 3 is_stmt 0 view .LVU14
 121 000a FFF7FEFF 		bl	hci_encryption_change_event
 122              	.LVL9:
 217:Middlewares/ST/STM32_WPAN/ble/core/auto/ble_events.c ****                                rp0->Connection_Handle,
 218:Middlewares/ST/STM32_WPAN/ble/core/auto/ble_events.c ****                                rp0->Encryption_Enabled );
 219:Middlewares/ST/STM32_WPAN/ble/core/auto/ble_events.c **** }
 123              		.loc 1 219 1 view .LVU15
 124 000e 08BD     		pop	{r3, pc}
 125              		.cfi_endproc
 126              	.LFE3:
 128              		.section	.text.hci_read_remote_version_information_complete_event,"ax",%progbits
 129              		.align	1
 130              		.weak	hci_read_remote_version_information_complete_event
 131              		.syntax unified
ARM GAS  C:\Users\bku598\AppData\Local\Temp\cc3wINKy.s 			page 7


 132              		.thumb
 133              		.thumb_func
 135              	hci_read_remote_version_information_complete_event:
 136              	.LVL10:
 137              	.LFB4:
 220:Middlewares/ST/STM32_WPAN/ble/core/auto/ble_events.c **** 
 221:Middlewares/ST/STM32_WPAN/ble/core/auto/ble_events.c **** /* HCI_READ_REMOTE_VERSION_INFORMATION_COMPLETE_EVENT callback function */
 222:Middlewares/ST/STM32_WPAN/ble/core/auto/ble_events.c **** __WEAK void hci_read_remote_version_information_complete_event( uint8_t Status,
 223:Middlewares/ST/STM32_WPAN/ble/core/auto/ble_events.c ****                                                                 uint16_t Connection_Handle,
 224:Middlewares/ST/STM32_WPAN/ble/core/auto/ble_events.c ****                                                                 uint8_t Version,
 225:Middlewares/ST/STM32_WPAN/ble/core/auto/ble_events.c ****                                                                 uint16_t Manufacturer_Name,
 226:Middlewares/ST/STM32_WPAN/ble/core/auto/ble_events.c ****                                                                 uint16_t Subversion )
 227:Middlewares/ST/STM32_WPAN/ble/core/auto/ble_events.c **** {
 138              		.loc 1 227 1 is_stmt 1 view -0
 139              		.cfi_startproc
 140              		@ args = 4, pretend = 0, frame = 0
 141              		@ frame_needed = 0, uses_anonymous_args = 0
 142              		@ link register save eliminated.
 228:Middlewares/ST/STM32_WPAN/ble/core/auto/ble_events.c **** }
 143              		.loc 1 228 1 view .LVU17
 144 0000 7047     		bx	lr
 145              		.cfi_endproc
 146              	.LFE4:
 148              		.section	.text.hci_read_remote_version_information_complete_event_process,"ax",%progbits
 149              		.align	1
 150              		.syntax unified
 151              		.thumb
 152              		.thumb_func
 154              	hci_read_remote_version_information_complete_event_process:
 155              	.LVL11:
 156              	.LFB5:
 229:Middlewares/ST/STM32_WPAN/ble/core/auto/ble_events.c **** 
 230:Middlewares/ST/STM32_WPAN/ble/core/auto/ble_events.c **** /* HCI_READ_REMOTE_VERSION_INFORMATION_COMPLETE_EVENT process function */
 231:Middlewares/ST/STM32_WPAN/ble/core/auto/ble_events.c **** static void hci_read_remote_version_information_complete_event_process( const uint8_t* in )
 232:Middlewares/ST/STM32_WPAN/ble/core/auto/ble_events.c **** {
 157              		.loc 1 232 1 view -0
 158              		.cfi_startproc
 159              		@ args = 0, pretend = 0, frame = 0
 160              		@ frame_needed = 0, uses_anonymous_args = 0
 161              		.loc 1 232 1 is_stmt 0 view .LVU19
 162 0000 00B5     		push	{lr}
 163              	.LCFI2:
 164              		.cfi_def_cfa_offset 4
 165              		.cfi_offset 14, -4
 166 0002 83B0     		sub	sp, sp, #12
 167              	.LCFI3:
 168              		.cfi_def_cfa_offset 16
 233:Middlewares/ST/STM32_WPAN/ble/core/auto/ble_events.c ****   hci_read_remote_version_information_complete_event_rp0 *rp0 = (void*)in;
 169              		.loc 1 233 3 is_stmt 1 view .LVU20
 170              	.LVL12:
 234:Middlewares/ST/STM32_WPAN/ble/core/auto/ble_events.c ****   hci_read_remote_version_information_complete_event( rp0->Status,
 171              		.loc 1 234 3 view .LVU21
 172 0004 C388     		ldrh	r3, [r0, #6]	@ unaligned
 173 0006 0093     		str	r3, [sp]
 174 0008 8388     		ldrh	r3, [r0, #4]	@ unaligned
 175 000a C278     		ldrb	r2, [r0, #3]	@ zero_extendqisi2
 176 000c B0F80110 		ldrh	r1, [r0, #1]	@ unaligned
ARM GAS  C:\Users\bku598\AppData\Local\Temp\cc3wINKy.s 			page 8


 177 0010 0078     		ldrb	r0, [r0]	@ zero_extendqisi2
 178              	.LVL13:
 179              		.loc 1 234 3 is_stmt 0 view .LVU22
 180 0012 FFF7FEFF 		bl	hci_read_remote_version_information_complete_event
 181              	.LVL14:
 235:Middlewares/ST/STM32_WPAN/ble/core/auto/ble_events.c ****                                                       rp0->Connection_Handle,
 236:Middlewares/ST/STM32_WPAN/ble/core/auto/ble_events.c ****                                                       rp0->Version,
 237:Middlewares/ST/STM32_WPAN/ble/core/auto/ble_events.c ****                                                       rp0->Manufacturer_Name,
 238:Middlewares/ST/STM32_WPAN/ble/core/auto/ble_events.c ****                                                       rp0->Subversion );
 239:Middlewares/ST/STM32_WPAN/ble/core/auto/ble_events.c **** }
 182              		.loc 1 239 1 view .LVU23
 183 0016 03B0     		add	sp, sp, #12
 184              	.LCFI4:
 185              		.cfi_def_cfa_offset 4
 186              		@ sp needed
 187 0018 5DF804FB 		ldr	pc, [sp], #4
 188              		.cfi_endproc
 189              	.LFE5:
 191              		.section	.text.hci_hardware_error_event,"ax",%progbits
 192              		.align	1
 193              		.weak	hci_hardware_error_event
 194              		.syntax unified
 195              		.thumb
 196              		.thumb_func
 198              	hci_hardware_error_event:
 199              	.LVL15:
 200              	.LFB6:
 240:Middlewares/ST/STM32_WPAN/ble/core/auto/ble_events.c **** 
 241:Middlewares/ST/STM32_WPAN/ble/core/auto/ble_events.c **** /* HCI_HARDWARE_ERROR_EVENT callback function */
 242:Middlewares/ST/STM32_WPAN/ble/core/auto/ble_events.c **** __WEAK void hci_hardware_error_event( uint8_t Hardware_Code )
 243:Middlewares/ST/STM32_WPAN/ble/core/auto/ble_events.c **** {
 201              		.loc 1 243 1 is_stmt 1 view -0
 202              		.cfi_startproc
 203              		@ args = 0, pretend = 0, frame = 0
 204              		@ frame_needed = 0, uses_anonymous_args = 0
 205              		@ link register save eliminated.
 244:Middlewares/ST/STM32_WPAN/ble/core/auto/ble_events.c **** }
 206              		.loc 1 244 1 view .LVU25
 207 0000 7047     		bx	lr
 208              		.cfi_endproc
 209              	.LFE6:
 211              		.section	.text.hci_hardware_error_event_process,"ax",%progbits
 212              		.align	1
 213              		.syntax unified
 214              		.thumb
 215              		.thumb_func
 217              	hci_hardware_error_event_process:
 218              	.LVL16:
 219              	.LFB7:
 245:Middlewares/ST/STM32_WPAN/ble/core/auto/ble_events.c **** 
 246:Middlewares/ST/STM32_WPAN/ble/core/auto/ble_events.c **** /* HCI_HARDWARE_ERROR_EVENT process function */
 247:Middlewares/ST/STM32_WPAN/ble/core/auto/ble_events.c **** static void hci_hardware_error_event_process( const uint8_t* in )
 248:Middlewares/ST/STM32_WPAN/ble/core/auto/ble_events.c **** {
 220              		.loc 1 248 1 view -0
 221              		.cfi_startproc
 222              		@ args = 0, pretend = 0, frame = 0
 223              		@ frame_needed = 0, uses_anonymous_args = 0
ARM GAS  C:\Users\bku598\AppData\Local\Temp\cc3wINKy.s 			page 9


 224              		.loc 1 248 1 is_stmt 0 view .LVU27
 225 0000 08B5     		push	{r3, lr}
 226              	.LCFI5:
 227              		.cfi_def_cfa_offset 8
 228              		.cfi_offset 3, -8
 229              		.cfi_offset 14, -4
 249:Middlewares/ST/STM32_WPAN/ble/core/auto/ble_events.c ****   hci_hardware_error_event_rp0 *rp0 = (void*)in;
 230              		.loc 1 249 3 is_stmt 1 view .LVU28
 231              	.LVL17:
 250:Middlewares/ST/STM32_WPAN/ble/core/auto/ble_events.c ****   hci_hardware_error_event( rp0->Hardware_Code );
 232              		.loc 1 250 3 view .LVU29
 233 0002 0078     		ldrb	r0, [r0]	@ zero_extendqisi2
 234              	.LVL18:
 235              		.loc 1 250 3 is_stmt 0 view .LVU30
 236 0004 FFF7FEFF 		bl	hci_hardware_error_event
 237              	.LVL19:
 251:Middlewares/ST/STM32_WPAN/ble/core/auto/ble_events.c **** }
 238              		.loc 1 251 1 view .LVU31
 239 0008 08BD     		pop	{r3, pc}
 240              		.cfi_endproc
 241              	.LFE7:
 243              		.section	.text.hci_number_of_completed_packets_event,"ax",%progbits
 244              		.align	1
 245              		.weak	hci_number_of_completed_packets_event
 246              		.syntax unified
 247              		.thumb
 248              		.thumb_func
 250              	hci_number_of_completed_packets_event:
 251              	.LVL20:
 252              	.LFB8:
 252:Middlewares/ST/STM32_WPAN/ble/core/auto/ble_events.c **** 
 253:Middlewares/ST/STM32_WPAN/ble/core/auto/ble_events.c **** /* HCI_NUMBER_OF_COMPLETED_PACKETS_EVENT callback function */
 254:Middlewares/ST/STM32_WPAN/ble/core/auto/ble_events.c **** __WEAK void hci_number_of_completed_packets_event( uint8_t Number_of_Handles,
 255:Middlewares/ST/STM32_WPAN/ble/core/auto/ble_events.c ****                                                    const Handle_Packets_Pair_Entry_t* Handle_Packet
 256:Middlewares/ST/STM32_WPAN/ble/core/auto/ble_events.c **** {
 253              		.loc 1 256 1 is_stmt 1 view -0
 254              		.cfi_startproc
 255              		@ args = 0, pretend = 0, frame = 0
 256              		@ frame_needed = 0, uses_anonymous_args = 0
 257              		@ link register save eliminated.
 257:Middlewares/ST/STM32_WPAN/ble/core/auto/ble_events.c **** }
 258              		.loc 1 257 1 view .LVU33
 259 0000 7047     		bx	lr
 260              		.cfi_endproc
 261              	.LFE8:
 263              		.section	.text.hci_number_of_completed_packets_event_process,"ax",%progbits
 264              		.align	1
 265              		.syntax unified
 266              		.thumb
 267              		.thumb_func
 269              	hci_number_of_completed_packets_event_process:
 270              	.LVL21:
 271              	.LFB9:
 258:Middlewares/ST/STM32_WPAN/ble/core/auto/ble_events.c **** 
 259:Middlewares/ST/STM32_WPAN/ble/core/auto/ble_events.c **** /* HCI_NUMBER_OF_COMPLETED_PACKETS_EVENT process function */
 260:Middlewares/ST/STM32_WPAN/ble/core/auto/ble_events.c **** static void hci_number_of_completed_packets_event_process( const uint8_t* in )
 261:Middlewares/ST/STM32_WPAN/ble/core/auto/ble_events.c **** {
ARM GAS  C:\Users\bku598\AppData\Local\Temp\cc3wINKy.s 			page 10


 272              		.loc 1 261 1 view -0
 273              		.cfi_startproc
 274              		@ args = 0, pretend = 0, frame = 0
 275              		@ frame_needed = 0, uses_anonymous_args = 0
 276              		.loc 1 261 1 is_stmt 0 view .LVU35
 277 0000 08B5     		push	{r3, lr}
 278              	.LCFI6:
 279              		.cfi_def_cfa_offset 8
 280              		.cfi_offset 3, -8
 281              		.cfi_offset 14, -4
 262:Middlewares/ST/STM32_WPAN/ble/core/auto/ble_events.c ****   hci_number_of_completed_packets_event_rp0 *rp0 = (void*)in;
 282              		.loc 1 262 3 is_stmt 1 view .LVU36
 283              	.LVL22:
 263:Middlewares/ST/STM32_WPAN/ble/core/auto/ble_events.c ****   hci_number_of_completed_packets_event( rp0->Number_of_Handles,
 284              		.loc 1 263 3 view .LVU37
 264:Middlewares/ST/STM32_WPAN/ble/core/auto/ble_events.c ****                                          rp0->Handle_Packets_Pair_Entry );
 285              		.loc 1 264 45 is_stmt 0 view .LVU38
 286 0002 0146     		mov	r1, r0
 263:Middlewares/ST/STM32_WPAN/ble/core/auto/ble_events.c ****   hci_number_of_completed_packets_event( rp0->Number_of_Handles,
 287              		.loc 1 263 3 view .LVU39
 288 0004 11F8010B 		ldrb	r0, [r1], #1	@ zero_extendqisi2
 289              	.LVL23:
 263:Middlewares/ST/STM32_WPAN/ble/core/auto/ble_events.c ****   hci_number_of_completed_packets_event( rp0->Number_of_Handles,
 290              		.loc 1 263 3 view .LVU40
 291 0008 FFF7FEFF 		bl	hci_number_of_completed_packets_event
 292              	.LVL24:
 265:Middlewares/ST/STM32_WPAN/ble/core/auto/ble_events.c **** }
 293              		.loc 1 265 1 view .LVU41
 294 000c 08BD     		pop	{r3, pc}
 295              		.cfi_endproc
 296              	.LFE9:
 298              		.section	.text.hci_encryption_key_refresh_complete_event,"ax",%progbits
 299              		.align	1
 300              		.weak	hci_encryption_key_refresh_complete_event
 301              		.syntax unified
 302              		.thumb
 303              		.thumb_func
 305              	hci_encryption_key_refresh_complete_event:
 306              	.LVL25:
 307              	.LFB10:
 266:Middlewares/ST/STM32_WPAN/ble/core/auto/ble_events.c **** 
 267:Middlewares/ST/STM32_WPAN/ble/core/auto/ble_events.c **** /* HCI_ENCRYPTION_KEY_REFRESH_COMPLETE_EVENT callback function */
 268:Middlewares/ST/STM32_WPAN/ble/core/auto/ble_events.c **** __WEAK void hci_encryption_key_refresh_complete_event( uint8_t Status,
 269:Middlewares/ST/STM32_WPAN/ble/core/auto/ble_events.c ****                                                        uint16_t Connection_Handle )
 270:Middlewares/ST/STM32_WPAN/ble/core/auto/ble_events.c **** {
 308              		.loc 1 270 1 is_stmt 1 view -0
 309              		.cfi_startproc
 310              		@ args = 0, pretend = 0, frame = 0
 311              		@ frame_needed = 0, uses_anonymous_args = 0
 312              		@ link register save eliminated.
 271:Middlewares/ST/STM32_WPAN/ble/core/auto/ble_events.c **** }
 313              		.loc 1 271 1 view .LVU43
 314 0000 7047     		bx	lr
 315              		.cfi_endproc
 316              	.LFE10:
 318              		.section	.text.hci_encryption_key_refresh_complete_event_process,"ax",%progbits
 319              		.align	1
ARM GAS  C:\Users\bku598\AppData\Local\Temp\cc3wINKy.s 			page 11


 320              		.syntax unified
 321              		.thumb
 322              		.thumb_func
 324              	hci_encryption_key_refresh_complete_event_process:
 325              	.LVL26:
 326              	.LFB11:
 272:Middlewares/ST/STM32_WPAN/ble/core/auto/ble_events.c **** 
 273:Middlewares/ST/STM32_WPAN/ble/core/auto/ble_events.c **** /* HCI_ENCRYPTION_KEY_REFRESH_COMPLETE_EVENT process function */
 274:Middlewares/ST/STM32_WPAN/ble/core/auto/ble_events.c **** static void hci_encryption_key_refresh_complete_event_process( const uint8_t* in )
 275:Middlewares/ST/STM32_WPAN/ble/core/auto/ble_events.c **** {
 327              		.loc 1 275 1 view -0
 328              		.cfi_startproc
 329              		@ args = 0, pretend = 0, frame = 0
 330              		@ frame_needed = 0, uses_anonymous_args = 0
 331              		.loc 1 275 1 is_stmt 0 view .LVU45
 332 0000 08B5     		push	{r3, lr}
 333              	.LCFI7:
 334              		.cfi_def_cfa_offset 8
 335              		.cfi_offset 3, -8
 336              		.cfi_offset 14, -4
 276:Middlewares/ST/STM32_WPAN/ble/core/auto/ble_events.c ****   hci_encryption_key_refresh_complete_event_rp0 *rp0 = (void*)in;
 337              		.loc 1 276 3 is_stmt 1 view .LVU46
 338              	.LVL27:
 277:Middlewares/ST/STM32_WPAN/ble/core/auto/ble_events.c ****   hci_encryption_key_refresh_complete_event( rp0->Status,
 339              		.loc 1 277 3 view .LVU47
 340 0002 B0F80110 		ldrh	r1, [r0, #1]	@ unaligned
 341 0006 0078     		ldrb	r0, [r0]	@ zero_extendqisi2
 342              	.LVL28:
 343              		.loc 1 277 3 is_stmt 0 view .LVU48
 344 0008 FFF7FEFF 		bl	hci_encryption_key_refresh_complete_event
 345              	.LVL29:
 278:Middlewares/ST/STM32_WPAN/ble/core/auto/ble_events.c ****                                              rp0->Connection_Handle );
 279:Middlewares/ST/STM32_WPAN/ble/core/auto/ble_events.c **** }
 346              		.loc 1 279 1 view .LVU49
 347 000c 08BD     		pop	{r3, pc}
 348              		.cfi_endproc
 349              	.LFE11:
 351              		.section	.text.hci_le_connection_complete_event,"ax",%progbits
 352              		.align	1
 353              		.weak	hci_le_connection_complete_event
 354              		.syntax unified
 355              		.thumb
 356              		.thumb_func
 358              	hci_le_connection_complete_event:
 359              	.LVL30:
 360              	.LFB12:
 280:Middlewares/ST/STM32_WPAN/ble/core/auto/ble_events.c **** 
 281:Middlewares/ST/STM32_WPAN/ble/core/auto/ble_events.c **** /* HCI_LE_CONNECTION_COMPLETE_EVENT callback function */
 282:Middlewares/ST/STM32_WPAN/ble/core/auto/ble_events.c **** __WEAK void hci_le_connection_complete_event( uint8_t Status,
 283:Middlewares/ST/STM32_WPAN/ble/core/auto/ble_events.c ****                                               uint16_t Connection_Handle,
 284:Middlewares/ST/STM32_WPAN/ble/core/auto/ble_events.c ****                                               uint8_t Role,
 285:Middlewares/ST/STM32_WPAN/ble/core/auto/ble_events.c ****                                               uint8_t Peer_Address_Type,
 286:Middlewares/ST/STM32_WPAN/ble/core/auto/ble_events.c ****                                               const uint8_t* Peer_Address,
 287:Middlewares/ST/STM32_WPAN/ble/core/auto/ble_events.c ****                                               uint16_t Conn_Interval,
 288:Middlewares/ST/STM32_WPAN/ble/core/auto/ble_events.c ****                                               uint16_t Conn_Latency,
 289:Middlewares/ST/STM32_WPAN/ble/core/auto/ble_events.c ****                                               uint16_t Supervision_Timeout,
 290:Middlewares/ST/STM32_WPAN/ble/core/auto/ble_events.c ****                                               uint8_t Central_Clock_Accuracy )
ARM GAS  C:\Users\bku598\AppData\Local\Temp\cc3wINKy.s 			page 12


 291:Middlewares/ST/STM32_WPAN/ble/core/auto/ble_events.c **** {
 361              		.loc 1 291 1 is_stmt 1 view -0
 362              		.cfi_startproc
 363              		@ args = 20, pretend = 0, frame = 0
 364              		@ frame_needed = 0, uses_anonymous_args = 0
 365              		@ link register save eliminated.
 292:Middlewares/ST/STM32_WPAN/ble/core/auto/ble_events.c **** }
 366              		.loc 1 292 1 view .LVU51
 367 0000 7047     		bx	lr
 368              		.cfi_endproc
 369              	.LFE12:
 371              		.section	.text.hci_le_connection_complete_event_process,"ax",%progbits
 372              		.align	1
 373              		.syntax unified
 374              		.thumb
 375              		.thumb_func
 377              	hci_le_connection_complete_event_process:
 378              	.LVL31:
 379              	.LFB13:
 293:Middlewares/ST/STM32_WPAN/ble/core/auto/ble_events.c **** 
 294:Middlewares/ST/STM32_WPAN/ble/core/auto/ble_events.c **** /* HCI_LE_CONNECTION_COMPLETE_EVENT process function */
 295:Middlewares/ST/STM32_WPAN/ble/core/auto/ble_events.c **** static void hci_le_connection_complete_event_process( const uint8_t* in )
 296:Middlewares/ST/STM32_WPAN/ble/core/auto/ble_events.c **** {
 380              		.loc 1 296 1 view -0
 381              		.cfi_startproc
 382              		@ args = 0, pretend = 0, frame = 0
 383              		@ frame_needed = 0, uses_anonymous_args = 0
 384              		.loc 1 296 1 is_stmt 0 view .LVU53
 385 0000 00B5     		push	{lr}
 386              	.LCFI8:
 387              		.cfi_def_cfa_offset 4
 388              		.cfi_offset 14, -4
 389 0002 87B0     		sub	sp, sp, #28
 390              	.LCFI9:
 391              		.cfi_def_cfa_offset 32
 297:Middlewares/ST/STM32_WPAN/ble/core/auto/ble_events.c ****   hci_le_connection_complete_event_rp0 *rp0 = (void*)in;
 392              		.loc 1 297 3 is_stmt 1 view .LVU54
 393              	.LVL32:
 298:Middlewares/ST/STM32_WPAN/ble/core/auto/ble_events.c ****   hci_le_connection_complete_event( rp0->Status,
 394              		.loc 1 298 3 view .LVU55
 299:Middlewares/ST/STM32_WPAN/ble/core/auto/ble_events.c ****                                     rp0->Connection_Handle,
 300:Middlewares/ST/STM32_WPAN/ble/core/auto/ble_events.c ****                                     rp0->Role,
 301:Middlewares/ST/STM32_WPAN/ble/core/auto/ble_events.c ****                                     rp0->Peer_Address_Type,
 302:Middlewares/ST/STM32_WPAN/ble/core/auto/ble_events.c ****                                     rp0->Peer_Address,
 395              		.loc 1 302 40 is_stmt 0 view .LVU56
 396 0004 431D     		adds	r3, r0, #5
 298:Middlewares/ST/STM32_WPAN/ble/core/auto/ble_events.c ****   hci_le_connection_complete_event( rp0->Status,
 397              		.loc 1 298 3 view .LVU57
 398 0006 427C     		ldrb	r2, [r0, #17]	@ zero_extendqisi2
 399 0008 0492     		str	r2, [sp, #16]
 400 000a B0F80F20 		ldrh	r2, [r0, #15]	@ unaligned
 401 000e 0392     		str	r2, [sp, #12]
 402 0010 B0F80D20 		ldrh	r2, [r0, #13]	@ unaligned
 403 0014 0292     		str	r2, [sp, #8]
 404 0016 B0F80B20 		ldrh	r2, [r0, #11]	@ unaligned
 405 001a 0192     		str	r2, [sp, #4]
 406 001c 0093     		str	r3, [sp]
ARM GAS  C:\Users\bku598\AppData\Local\Temp\cc3wINKy.s 			page 13


 407 001e 0379     		ldrb	r3, [r0, #4]	@ zero_extendqisi2
 408 0020 C278     		ldrb	r2, [r0, #3]	@ zero_extendqisi2
 409 0022 B0F80110 		ldrh	r1, [r0, #1]	@ unaligned
 410 0026 0078     		ldrb	r0, [r0]	@ zero_extendqisi2
 411              	.LVL33:
 298:Middlewares/ST/STM32_WPAN/ble/core/auto/ble_events.c ****   hci_le_connection_complete_event( rp0->Status,
 412              		.loc 1 298 3 view .LVU58
 413 0028 FFF7FEFF 		bl	hci_le_connection_complete_event
 414              	.LVL34:
 303:Middlewares/ST/STM32_WPAN/ble/core/auto/ble_events.c ****                                     rp0->Conn_Interval,
 304:Middlewares/ST/STM32_WPAN/ble/core/auto/ble_events.c ****                                     rp0->Conn_Latency,
 305:Middlewares/ST/STM32_WPAN/ble/core/auto/ble_events.c ****                                     rp0->Supervision_Timeout,
 306:Middlewares/ST/STM32_WPAN/ble/core/auto/ble_events.c ****                                     rp0->Central_Clock_Accuracy );
 307:Middlewares/ST/STM32_WPAN/ble/core/auto/ble_events.c **** }
 415              		.loc 1 307 1 view .LVU59
 416 002c 07B0     		add	sp, sp, #28
 417              	.LCFI10:
 418              		.cfi_def_cfa_offset 4
 419              		@ sp needed
 420 002e 5DF804FB 		ldr	pc, [sp], #4
 421              		.cfi_endproc
 422              	.LFE13:
 424              		.section	.text.hci_le_advertising_report_event,"ax",%progbits
 425              		.align	1
 426              		.weak	hci_le_advertising_report_event
 427              		.syntax unified
 428              		.thumb
 429              		.thumb_func
 431              	hci_le_advertising_report_event:
 432              	.LVL35:
 433              	.LFB14:
 308:Middlewares/ST/STM32_WPAN/ble/core/auto/ble_events.c **** 
 309:Middlewares/ST/STM32_WPAN/ble/core/auto/ble_events.c **** /* HCI_LE_ADVERTISING_REPORT_EVENT callback function */
 310:Middlewares/ST/STM32_WPAN/ble/core/auto/ble_events.c **** __WEAK void hci_le_advertising_report_event( uint8_t Num_Reports,
 311:Middlewares/ST/STM32_WPAN/ble/core/auto/ble_events.c ****                                              const Advertising_Report_t* Advertising_Report )
 312:Middlewares/ST/STM32_WPAN/ble/core/auto/ble_events.c **** {
 434              		.loc 1 312 1 is_stmt 1 view -0
 435              		.cfi_startproc
 436              		@ args = 0, pretend = 0, frame = 0
 437              		@ frame_needed = 0, uses_anonymous_args = 0
 438              		@ link register save eliminated.
 313:Middlewares/ST/STM32_WPAN/ble/core/auto/ble_events.c **** }
 439              		.loc 1 313 1 view .LVU61
 440 0000 7047     		bx	lr
 441              		.cfi_endproc
 442              	.LFE14:
 444              		.section	.text.hci_le_advertising_report_event_process,"ax",%progbits
 445              		.align	1
 446              		.syntax unified
 447              		.thumb
 448              		.thumb_func
 450              	hci_le_advertising_report_event_process:
 451              	.LVL36:
 452              	.LFB15:
 314:Middlewares/ST/STM32_WPAN/ble/core/auto/ble_events.c **** 
 315:Middlewares/ST/STM32_WPAN/ble/core/auto/ble_events.c **** /* HCI_LE_ADVERTISING_REPORT_EVENT process function */
 316:Middlewares/ST/STM32_WPAN/ble/core/auto/ble_events.c **** static void hci_le_advertising_report_event_process( const uint8_t* in )
ARM GAS  C:\Users\bku598\AppData\Local\Temp\cc3wINKy.s 			page 14


 317:Middlewares/ST/STM32_WPAN/ble/core/auto/ble_events.c **** {
 453              		.loc 1 317 1 view -0
 454              		.cfi_startproc
 455              		@ args = 0, pretend = 0, frame = 16
 456              		@ frame_needed = 0, uses_anonymous_args = 0
 457              		.loc 1 317 1 is_stmt 0 view .LVU63
 458 0000 F0B5     		push	{r4, r5, r6, r7, lr}
 459              	.LCFI11:
 460              		.cfi_def_cfa_offset 20
 461              		.cfi_offset 4, -20
 462              		.cfi_offset 5, -16
 463              		.cfi_offset 6, -12
 464              		.cfi_offset 7, -8
 465              		.cfi_offset 14, -4
 466 0002 85B0     		sub	sp, sp, #20
 467              	.LCFI12:
 468              		.cfi_def_cfa_offset 40
 469 0004 0746     		mov	r7, r0
 318:Middlewares/ST/STM32_WPAN/ble/core/auto/ble_events.c ****   hci_le_advertising_report_event_rp0 *rp0 = (void*)in;
 470              		.loc 1 318 3 is_stmt 1 view .LVU64
 471              	.LVL37:
 319:Middlewares/ST/STM32_WPAN/ble/core/auto/ble_events.c ****   Advertising_Report_t Advertising_Report[1];
 472              		.loc 1 319 3 view .LVU65
 320:Middlewares/ST/STM32_WPAN/ble/core/auto/ble_events.c ****   int i;
 473              		.loc 1 320 3 view .LVU66
 321:Middlewares/ST/STM32_WPAN/ble/core/auto/ble_events.c ****   for ( i = 0; i < rp0->Num_Reports; i++ )
 474              		.loc 1 321 3 view .LVU67
 475              		.loc 1 321 3 is_stmt 0 view .LVU68
 476 0006 0446     		mov	r4, r0
 477              		.loc 1 321 11 view .LVU69
 478 0008 0026     		movs	r6, #0
 479              		.loc 1 321 3 view .LVU70
 480 000a 14E0     		b	.L24
 481              	.LVL38:
 482              	.L25:
 322:Middlewares/ST/STM32_WPAN/ble/core/auto/ble_events.c ****   {
 323:Middlewares/ST/STM32_WPAN/ble/core/auto/ble_events.c ****     in += 1;
 483              		.loc 1 323 5 is_stmt 1 view .LVU71
 484              		.loc 1 323 8 is_stmt 0 view .LVU72
 485 000c 651C     		adds	r5, r4, #1
 486              	.LVL39:
 324:Middlewares/ST/STM32_WPAN/ble/core/auto/ble_events.c ****     Osal_MemCpy( (void*)&Advertising_Report[0], (const void*)in, 9 );
 487              		.loc 1 324 5 is_stmt 1 view .LVU73
 488 000e 0922     		movs	r2, #9
 489 0010 2946     		mov	r1, r5
 490 0012 6846     		mov	r0, sp
 491 0014 FFF7FEFF 		bl	Osal_MemCpy
 492              	.LVL40:
 325:Middlewares/ST/STM32_WPAN/ble/core/auto/ble_events.c ****     Advertising_Report[0].Data = &in[9];
 493              		.loc 1 325 5 view .LVU74
 494              		.loc 1 325 34 is_stmt 0 view .LVU75
 495 0018 04F10A03 		add	r3, r4, #10
 496              		.loc 1 325 32 view .LVU76
 497 001c CDF80930 		str	r3, [sp, #9]	@ unaligned
 326:Middlewares/ST/STM32_WPAN/ble/core/auto/ble_events.c ****     in += 9 + in[8];
 498              		.loc 1 326 5 is_stmt 1 view .LVU77
 499              		.loc 1 326 17 is_stmt 0 view .LVU78
ARM GAS  C:\Users\bku598\AppData\Local\Temp\cc3wINKy.s 			page 15


 500 0020 637A     		ldrb	r3, [r4, #9]	@ zero_extendqisi2
 501              		.loc 1 326 13 view .LVU79
 502 0022 0933     		adds	r3, r3, #9
 503              		.loc 1 326 8 view .LVU80
 504 0024 EC18     		adds	r4, r5, r3
 505              	.LVL41:
 327:Middlewares/ST/STM32_WPAN/ble/core/auto/ble_events.c ****     Advertising_Report[0].RSSI = in[0];
 506              		.loc 1 327 5 is_stmt 1 view .LVU81
 507              		.loc 1 327 36 is_stmt 0 view .LVU82
 508 0026 EB5C     		ldrb	r3, [r5, r3]	@ zero_extendqisi2
 509              		.loc 1 327 32 view .LVU83
 510 0028 8DF80D30 		strb	r3, [sp, #13]
 328:Middlewares/ST/STM32_WPAN/ble/core/auto/ble_events.c ****     (void)hci_le_advertising_report_event( 1, Advertising_Report );
 511              		.loc 1 328 5 is_stmt 1 view .LVU84
 512 002c 6946     		mov	r1, sp
 513 002e 0120     		movs	r0, #1
 514 0030 FFF7FEFF 		bl	hci_le_advertising_report_event
 515              	.LVL42:
 321:Middlewares/ST/STM32_WPAN/ble/core/auto/ble_events.c ****   {
 516              		.loc 1 321 39 discriminator 3 view .LVU85
 517 0034 0136     		adds	r6, r6, #1
 518              	.LVL43:
 519              	.L24:
 321:Middlewares/ST/STM32_WPAN/ble/core/auto/ble_events.c ****   {
 520              		.loc 1 321 18 discriminator 1 view .LVU86
 321:Middlewares/ST/STM32_WPAN/ble/core/auto/ble_events.c ****   {
 521              		.loc 1 321 23 is_stmt 0 discriminator 1 view .LVU87
 522 0036 3B78     		ldrb	r3, [r7]	@ zero_extendqisi2
 321:Middlewares/ST/STM32_WPAN/ble/core/auto/ble_events.c ****   {
 523              		.loc 1 321 18 discriminator 1 view .LVU88
 524 0038 B342     		cmp	r3, r6
 525 003a E7DC     		bgt	.L25
 329:Middlewares/ST/STM32_WPAN/ble/core/auto/ble_events.c ****   }
 330:Middlewares/ST/STM32_WPAN/ble/core/auto/ble_events.c **** }
 526              		.loc 1 330 1 view .LVU89
 527 003c 05B0     		add	sp, sp, #20
 528              	.LCFI13:
 529              		.cfi_def_cfa_offset 20
 530              		@ sp needed
 531 003e F0BD     		pop	{r4, r5, r6, r7, pc}
 532              		.loc 1 330 1 view .LVU90
 533              		.cfi_endproc
 534              	.LFE15:
 536              		.section	.text.hci_le_connection_update_complete_event,"ax",%progbits
 537              		.align	1
 538              		.weak	hci_le_connection_update_complete_event
 539              		.syntax unified
 540              		.thumb
 541              		.thumb_func
 543              	hci_le_connection_update_complete_event:
 544              	.LVL44:
 545              	.LFB16:
 331:Middlewares/ST/STM32_WPAN/ble/core/auto/ble_events.c **** 
 332:Middlewares/ST/STM32_WPAN/ble/core/auto/ble_events.c **** /* HCI_LE_CONNECTION_UPDATE_COMPLETE_EVENT callback function */
 333:Middlewares/ST/STM32_WPAN/ble/core/auto/ble_events.c **** __WEAK void hci_le_connection_update_complete_event( uint8_t Status,
 334:Middlewares/ST/STM32_WPAN/ble/core/auto/ble_events.c ****                                                      uint16_t Connection_Handle,
 335:Middlewares/ST/STM32_WPAN/ble/core/auto/ble_events.c ****                                                      uint16_t Conn_Interval,
ARM GAS  C:\Users\bku598\AppData\Local\Temp\cc3wINKy.s 			page 16


 336:Middlewares/ST/STM32_WPAN/ble/core/auto/ble_events.c ****                                                      uint16_t Conn_Latency,
 337:Middlewares/ST/STM32_WPAN/ble/core/auto/ble_events.c ****                                                      uint16_t Supervision_Timeout )
 338:Middlewares/ST/STM32_WPAN/ble/core/auto/ble_events.c **** {
 546              		.loc 1 338 1 is_stmt 1 view -0
 547              		.cfi_startproc
 548              		@ args = 4, pretend = 0, frame = 0
 549              		@ frame_needed = 0, uses_anonymous_args = 0
 550              		@ link register save eliminated.
 339:Middlewares/ST/STM32_WPAN/ble/core/auto/ble_events.c **** }
 551              		.loc 1 339 1 view .LVU92
 552 0000 7047     		bx	lr
 553              		.cfi_endproc
 554              	.LFE16:
 556              		.section	.text.hci_le_connection_update_complete_event_process,"ax",%progbits
 557              		.align	1
 558              		.syntax unified
 559              		.thumb
 560              		.thumb_func
 562              	hci_le_connection_update_complete_event_process:
 563              	.LVL45:
 564              	.LFB17:
 340:Middlewares/ST/STM32_WPAN/ble/core/auto/ble_events.c **** 
 341:Middlewares/ST/STM32_WPAN/ble/core/auto/ble_events.c **** /* HCI_LE_CONNECTION_UPDATE_COMPLETE_EVENT process function */
 342:Middlewares/ST/STM32_WPAN/ble/core/auto/ble_events.c **** static void hci_le_connection_update_complete_event_process( const uint8_t* in )
 343:Middlewares/ST/STM32_WPAN/ble/core/auto/ble_events.c **** {
 565              		.loc 1 343 1 view -0
 566              		.cfi_startproc
 567              		@ args = 0, pretend = 0, frame = 0
 568              		@ frame_needed = 0, uses_anonymous_args = 0
 569              		.loc 1 343 1 is_stmt 0 view .LVU94
 570 0000 00B5     		push	{lr}
 571              	.LCFI14:
 572              		.cfi_def_cfa_offset 4
 573              		.cfi_offset 14, -4
 574 0002 83B0     		sub	sp, sp, #12
 575              	.LCFI15:
 576              		.cfi_def_cfa_offset 16
 344:Middlewares/ST/STM32_WPAN/ble/core/auto/ble_events.c ****   hci_le_connection_update_complete_event_rp0 *rp0 = (void*)in;
 577              		.loc 1 344 3 is_stmt 1 view .LVU95
 578              	.LVL46:
 345:Middlewares/ST/STM32_WPAN/ble/core/auto/ble_events.c ****   hci_le_connection_update_complete_event( rp0->Status,
 579              		.loc 1 345 3 view .LVU96
 580 0004 B0F80730 		ldrh	r3, [r0, #7]	@ unaligned
 581 0008 0093     		str	r3, [sp]
 582 000a B0F80530 		ldrh	r3, [r0, #5]	@ unaligned
 583 000e B0F80320 		ldrh	r2, [r0, #3]	@ unaligned
 584 0012 B0F80110 		ldrh	r1, [r0, #1]	@ unaligned
 585 0016 0078     		ldrb	r0, [r0]	@ zero_extendqisi2
 586              	.LVL47:
 587              		.loc 1 345 3 is_stmt 0 view .LVU97
 588 0018 FFF7FEFF 		bl	hci_le_connection_update_complete_event
 589              	.LVL48:
 346:Middlewares/ST/STM32_WPAN/ble/core/auto/ble_events.c ****                                            rp0->Connection_Handle,
 347:Middlewares/ST/STM32_WPAN/ble/core/auto/ble_events.c ****                                            rp0->Conn_Interval,
 348:Middlewares/ST/STM32_WPAN/ble/core/auto/ble_events.c ****                                            rp0->Conn_Latency,
 349:Middlewares/ST/STM32_WPAN/ble/core/auto/ble_events.c ****                                            rp0->Supervision_Timeout );
 350:Middlewares/ST/STM32_WPAN/ble/core/auto/ble_events.c **** }
ARM GAS  C:\Users\bku598\AppData\Local\Temp\cc3wINKy.s 			page 17


 590              		.loc 1 350 1 view .LVU98
 591 001c 03B0     		add	sp, sp, #12
 592              	.LCFI16:
 593              		.cfi_def_cfa_offset 4
 594              		@ sp needed
 595 001e 5DF804FB 		ldr	pc, [sp], #4
 596              		.cfi_endproc
 597              	.LFE17:
 599              		.section	.text.hci_le_read_remote_features_page_0_complete_event,"ax",%progbits
 600              		.align	1
 601              		.weak	hci_le_read_remote_features_page_0_complete_event
 602              		.syntax unified
 603              		.thumb
 604              		.thumb_func
 606              	hci_le_read_remote_features_page_0_complete_event:
 607              	.LVL49:
 608              	.LFB18:
 351:Middlewares/ST/STM32_WPAN/ble/core/auto/ble_events.c **** 
 352:Middlewares/ST/STM32_WPAN/ble/core/auto/ble_events.c **** /* HCI_LE_READ_REMOTE_FEATURES_PAGE_0_COMPLETE_EVENT callback function */
 353:Middlewares/ST/STM32_WPAN/ble/core/auto/ble_events.c **** __WEAK void hci_le_read_remote_features_page_0_complete_event( uint8_t Status,
 354:Middlewares/ST/STM32_WPAN/ble/core/auto/ble_events.c ****                                                                uint16_t Connection_Handle,
 355:Middlewares/ST/STM32_WPAN/ble/core/auto/ble_events.c ****                                                                const uint8_t* LE_Features )
 356:Middlewares/ST/STM32_WPAN/ble/core/auto/ble_events.c **** {
 609              		.loc 1 356 1 is_stmt 1 view -0
 610              		.cfi_startproc
 611              		@ args = 0, pretend = 0, frame = 0
 612              		@ frame_needed = 0, uses_anonymous_args = 0
 613              		@ link register save eliminated.
 357:Middlewares/ST/STM32_WPAN/ble/core/auto/ble_events.c **** }
 614              		.loc 1 357 1 view .LVU100
 615 0000 7047     		bx	lr
 616              		.cfi_endproc
 617              	.LFE18:
 619              		.section	.text.hci_le_read_remote_features_page_0_complete_event_process,"ax",%progbits
 620              		.align	1
 621              		.syntax unified
 622              		.thumb
 623              		.thumb_func
 625              	hci_le_read_remote_features_page_0_complete_event_process:
 626              	.LVL50:
 627              	.LFB19:
 358:Middlewares/ST/STM32_WPAN/ble/core/auto/ble_events.c **** 
 359:Middlewares/ST/STM32_WPAN/ble/core/auto/ble_events.c **** /* HCI_LE_READ_REMOTE_FEATURES_PAGE_0_COMPLETE_EVENT process function */
 360:Middlewares/ST/STM32_WPAN/ble/core/auto/ble_events.c **** static void hci_le_read_remote_features_page_0_complete_event_process( const uint8_t* in )
 361:Middlewares/ST/STM32_WPAN/ble/core/auto/ble_events.c **** {
 628              		.loc 1 361 1 view -0
 629              		.cfi_startproc
 630              		@ args = 0, pretend = 0, frame = 0
 631              		@ frame_needed = 0, uses_anonymous_args = 0
 632              		.loc 1 361 1 is_stmt 0 view .LVU102
 633 0000 08B5     		push	{r3, lr}
 634              	.LCFI17:
 635              		.cfi_def_cfa_offset 8
 636              		.cfi_offset 3, -8
 637              		.cfi_offset 14, -4
 362:Middlewares/ST/STM32_WPAN/ble/core/auto/ble_events.c ****   hci_le_read_remote_features_page_0_complete_event_rp0 *rp0 = (void*)in;
 638              		.loc 1 362 3 is_stmt 1 view .LVU103
ARM GAS  C:\Users\bku598\AppData\Local\Temp\cc3wINKy.s 			page 18


 639              	.LVL51:
 363:Middlewares/ST/STM32_WPAN/ble/core/auto/ble_events.c ****   hci_le_read_remote_features_page_0_complete_event( rp0->Status,
 640              		.loc 1 363 3 view .LVU104
 641 0002 C21C     		adds	r2, r0, #3
 642 0004 B0F80110 		ldrh	r1, [r0, #1]	@ unaligned
 643 0008 0078     		ldrb	r0, [r0]	@ zero_extendqisi2
 644              	.LVL52:
 645              		.loc 1 363 3 is_stmt 0 view .LVU105
 646 000a FFF7FEFF 		bl	hci_le_read_remote_features_page_0_complete_event
 647              	.LVL53:
 364:Middlewares/ST/STM32_WPAN/ble/core/auto/ble_events.c ****                                                      rp0->Connection_Handle,
 365:Middlewares/ST/STM32_WPAN/ble/core/auto/ble_events.c ****                                                      rp0->LE_Features );
 366:Middlewares/ST/STM32_WPAN/ble/core/auto/ble_events.c **** }
 648              		.loc 1 366 1 view .LVU106
 649 000e 08BD     		pop	{r3, pc}
 650              		.cfi_endproc
 651              	.LFE19:
 653              		.section	.text.hci_le_long_term_key_request_event,"ax",%progbits
 654              		.align	1
 655              		.weak	hci_le_long_term_key_request_event
 656              		.syntax unified
 657              		.thumb
 658              		.thumb_func
 660              	hci_le_long_term_key_request_event:
 661              	.LVL54:
 662              	.LFB20:
 367:Middlewares/ST/STM32_WPAN/ble/core/auto/ble_events.c **** 
 368:Middlewares/ST/STM32_WPAN/ble/core/auto/ble_events.c **** /* HCI_LE_LONG_TERM_KEY_REQUEST_EVENT callback function */
 369:Middlewares/ST/STM32_WPAN/ble/core/auto/ble_events.c **** __WEAK void hci_le_long_term_key_request_event( uint16_t Connection_Handle,
 370:Middlewares/ST/STM32_WPAN/ble/core/auto/ble_events.c ****                                                 const uint8_t* Random_Number,
 371:Middlewares/ST/STM32_WPAN/ble/core/auto/ble_events.c ****                                                 uint16_t Encrypted_Diversifier )
 372:Middlewares/ST/STM32_WPAN/ble/core/auto/ble_events.c **** {
 663              		.loc 1 372 1 is_stmt 1 view -0
 664              		.cfi_startproc
 665              		@ args = 0, pretend = 0, frame = 0
 666              		@ frame_needed = 0, uses_anonymous_args = 0
 667              		@ link register save eliminated.
 373:Middlewares/ST/STM32_WPAN/ble/core/auto/ble_events.c **** }
 668              		.loc 1 373 1 view .LVU108
 669 0000 7047     		bx	lr
 670              		.cfi_endproc
 671              	.LFE20:
 673              		.section	.text.hci_le_long_term_key_request_event_process,"ax",%progbits
 674              		.align	1
 675              		.syntax unified
 676              		.thumb
 677              		.thumb_func
 679              	hci_le_long_term_key_request_event_process:
 680              	.LVL55:
 681              	.LFB21:
 374:Middlewares/ST/STM32_WPAN/ble/core/auto/ble_events.c **** 
 375:Middlewares/ST/STM32_WPAN/ble/core/auto/ble_events.c **** /* HCI_LE_LONG_TERM_KEY_REQUEST_EVENT process function */
 376:Middlewares/ST/STM32_WPAN/ble/core/auto/ble_events.c **** static void hci_le_long_term_key_request_event_process( const uint8_t* in )
 377:Middlewares/ST/STM32_WPAN/ble/core/auto/ble_events.c **** {
 682              		.loc 1 377 1 view -0
 683              		.cfi_startproc
 684              		@ args = 0, pretend = 0, frame = 0
ARM GAS  C:\Users\bku598\AppData\Local\Temp\cc3wINKy.s 			page 19


 685              		@ frame_needed = 0, uses_anonymous_args = 0
 686              		.loc 1 377 1 is_stmt 0 view .LVU110
 687 0000 08B5     		push	{r3, lr}
 688              	.LCFI18:
 689              		.cfi_def_cfa_offset 8
 690              		.cfi_offset 3, -8
 691              		.cfi_offset 14, -4
 378:Middlewares/ST/STM32_WPAN/ble/core/auto/ble_events.c ****   hci_le_long_term_key_request_event_rp0 *rp0 = (void*)in;
 692              		.loc 1 378 3 is_stmt 1 view .LVU111
 693              	.LVL56:
 379:Middlewares/ST/STM32_WPAN/ble/core/auto/ble_events.c ****   hci_le_long_term_key_request_event( rp0->Connection_Handle,
 694              		.loc 1 379 3 view .LVU112
 695 0002 4289     		ldrh	r2, [r0, #10]	@ unaligned
 696 0004 811C     		adds	r1, r0, #2
 697 0006 0088     		ldrh	r0, [r0]	@ unaligned
 698              	.LVL57:
 699              		.loc 1 379 3 is_stmt 0 view .LVU113
 700 0008 FFF7FEFF 		bl	hci_le_long_term_key_request_event
 701              	.LVL58:
 380:Middlewares/ST/STM32_WPAN/ble/core/auto/ble_events.c ****                                       rp0->Random_Number,
 381:Middlewares/ST/STM32_WPAN/ble/core/auto/ble_events.c ****                                       rp0->Encrypted_Diversifier );
 382:Middlewares/ST/STM32_WPAN/ble/core/auto/ble_events.c **** }
 702              		.loc 1 382 1 view .LVU114
 703 000c 08BD     		pop	{r3, pc}
 704              		.cfi_endproc
 705              	.LFE21:
 707              		.section	.text.hci_le_data_length_change_event,"ax",%progbits
 708              		.align	1
 709              		.weak	hci_le_data_length_change_event
 710              		.syntax unified
 711              		.thumb
 712              		.thumb_func
 714              	hci_le_data_length_change_event:
 715              	.LVL59:
 716              	.LFB22:
 383:Middlewares/ST/STM32_WPAN/ble/core/auto/ble_events.c **** 
 384:Middlewares/ST/STM32_WPAN/ble/core/auto/ble_events.c **** /* HCI_LE_DATA_LENGTH_CHANGE_EVENT callback function */
 385:Middlewares/ST/STM32_WPAN/ble/core/auto/ble_events.c **** __WEAK void hci_le_data_length_change_event( uint16_t Connection_Handle,
 386:Middlewares/ST/STM32_WPAN/ble/core/auto/ble_events.c ****                                              uint16_t MaxTxOctets,
 387:Middlewares/ST/STM32_WPAN/ble/core/auto/ble_events.c ****                                              uint16_t MaxTxTime,
 388:Middlewares/ST/STM32_WPAN/ble/core/auto/ble_events.c ****                                              uint16_t MaxRxOctets,
 389:Middlewares/ST/STM32_WPAN/ble/core/auto/ble_events.c ****                                              uint16_t MaxRxTime )
 390:Middlewares/ST/STM32_WPAN/ble/core/auto/ble_events.c **** {
 717              		.loc 1 390 1 is_stmt 1 view -0
 718              		.cfi_startproc
 719              		@ args = 4, pretend = 0, frame = 0
 720              		@ frame_needed = 0, uses_anonymous_args = 0
 721              		@ link register save eliminated.
 391:Middlewares/ST/STM32_WPAN/ble/core/auto/ble_events.c **** }
 722              		.loc 1 391 1 view .LVU116
 723 0000 7047     		bx	lr
 724              		.cfi_endproc
 725              	.LFE22:
 727              		.section	.text.hci_le_data_length_change_event_process,"ax",%progbits
 728              		.align	1
 729              		.syntax unified
 730              		.thumb
ARM GAS  C:\Users\bku598\AppData\Local\Temp\cc3wINKy.s 			page 20


 731              		.thumb_func
 733              	hci_le_data_length_change_event_process:
 734              	.LVL60:
 735              	.LFB23:
 392:Middlewares/ST/STM32_WPAN/ble/core/auto/ble_events.c **** 
 393:Middlewares/ST/STM32_WPAN/ble/core/auto/ble_events.c **** /* HCI_LE_DATA_LENGTH_CHANGE_EVENT process function */
 394:Middlewares/ST/STM32_WPAN/ble/core/auto/ble_events.c **** static void hci_le_data_length_change_event_process( const uint8_t* in )
 395:Middlewares/ST/STM32_WPAN/ble/core/auto/ble_events.c **** {
 736              		.loc 1 395 1 view -0
 737              		.cfi_startproc
 738              		@ args = 0, pretend = 0, frame = 0
 739              		@ frame_needed = 0, uses_anonymous_args = 0
 740              		.loc 1 395 1 is_stmt 0 view .LVU118
 741 0000 00B5     		push	{lr}
 742              	.LCFI19:
 743              		.cfi_def_cfa_offset 4
 744              		.cfi_offset 14, -4
 745 0002 83B0     		sub	sp, sp, #12
 746              	.LCFI20:
 747              		.cfi_def_cfa_offset 16
 396:Middlewares/ST/STM32_WPAN/ble/core/auto/ble_events.c ****   hci_le_data_length_change_event_rp0 *rp0 = (void*)in;
 748              		.loc 1 396 3 is_stmt 1 view .LVU119
 749              	.LVL61:
 397:Middlewares/ST/STM32_WPAN/ble/core/auto/ble_events.c ****   hci_le_data_length_change_event( rp0->Connection_Handle,
 750              		.loc 1 397 3 view .LVU120
 751 0004 0389     		ldrh	r3, [r0, #8]	@ unaligned
 752 0006 0093     		str	r3, [sp]
 753 0008 C388     		ldrh	r3, [r0, #6]	@ unaligned
 754 000a 8288     		ldrh	r2, [r0, #4]	@ unaligned
 755 000c 4188     		ldrh	r1, [r0, #2]	@ unaligned
 756 000e 0088     		ldrh	r0, [r0]	@ unaligned
 757              	.LVL62:
 758              		.loc 1 397 3 is_stmt 0 view .LVU121
 759 0010 FFF7FEFF 		bl	hci_le_data_length_change_event
 760              	.LVL63:
 398:Middlewares/ST/STM32_WPAN/ble/core/auto/ble_events.c ****                                    rp0->MaxTxOctets,
 399:Middlewares/ST/STM32_WPAN/ble/core/auto/ble_events.c ****                                    rp0->MaxTxTime,
 400:Middlewares/ST/STM32_WPAN/ble/core/auto/ble_events.c ****                                    rp0->MaxRxOctets,
 401:Middlewares/ST/STM32_WPAN/ble/core/auto/ble_events.c ****                                    rp0->MaxRxTime );
 402:Middlewares/ST/STM32_WPAN/ble/core/auto/ble_events.c **** }
 761              		.loc 1 402 1 view .LVU122
 762 0014 03B0     		add	sp, sp, #12
 763              	.LCFI21:
 764              		.cfi_def_cfa_offset 4
 765              		@ sp needed
 766 0016 5DF804FB 		ldr	pc, [sp], #4
 767              		.cfi_endproc
 768              	.LFE23:
 770              		.section	.text.hci_le_read_local_p256_public_key_complete_event,"ax",%progbits
 771              		.align	1
 772              		.weak	hci_le_read_local_p256_public_key_complete_event
 773              		.syntax unified
 774              		.thumb
 775              		.thumb_func
 777              	hci_le_read_local_p256_public_key_complete_event:
 778              	.LVL64:
 779              	.LFB24:
ARM GAS  C:\Users\bku598\AppData\Local\Temp\cc3wINKy.s 			page 21


 403:Middlewares/ST/STM32_WPAN/ble/core/auto/ble_events.c **** 
 404:Middlewares/ST/STM32_WPAN/ble/core/auto/ble_events.c **** /* HCI_LE_READ_LOCAL_P256_PUBLIC_KEY_COMPLETE_EVENT callback function */
 405:Middlewares/ST/STM32_WPAN/ble/core/auto/ble_events.c **** __WEAK void hci_le_read_local_p256_public_key_complete_event( uint8_t Status,
 406:Middlewares/ST/STM32_WPAN/ble/core/auto/ble_events.c ****                                                               const uint8_t* Local_P256_Public_Key 
 407:Middlewares/ST/STM32_WPAN/ble/core/auto/ble_events.c **** {
 780              		.loc 1 407 1 is_stmt 1 view -0
 781              		.cfi_startproc
 782              		@ args = 0, pretend = 0, frame = 0
 783              		@ frame_needed = 0, uses_anonymous_args = 0
 784              		@ link register save eliminated.
 408:Middlewares/ST/STM32_WPAN/ble/core/auto/ble_events.c **** }
 785              		.loc 1 408 1 view .LVU124
 786 0000 7047     		bx	lr
 787              		.cfi_endproc
 788              	.LFE24:
 790              		.section	.text.hci_le_read_local_p256_public_key_complete_event_process,"ax",%progbits
 791              		.align	1
 792              		.syntax unified
 793              		.thumb
 794              		.thumb_func
 796              	hci_le_read_local_p256_public_key_complete_event_process:
 797              	.LVL65:
 798              	.LFB25:
 409:Middlewares/ST/STM32_WPAN/ble/core/auto/ble_events.c **** 
 410:Middlewares/ST/STM32_WPAN/ble/core/auto/ble_events.c **** /* HCI_LE_READ_LOCAL_P256_PUBLIC_KEY_COMPLETE_EVENT process function */
 411:Middlewares/ST/STM32_WPAN/ble/core/auto/ble_events.c **** static void hci_le_read_local_p256_public_key_complete_event_process( const uint8_t* in )
 412:Middlewares/ST/STM32_WPAN/ble/core/auto/ble_events.c **** {
 799              		.loc 1 412 1 view -0
 800              		.cfi_startproc
 801              		@ args = 0, pretend = 0, frame = 0
 802              		@ frame_needed = 0, uses_anonymous_args = 0
 803              		.loc 1 412 1 is_stmt 0 view .LVU126
 804 0000 08B5     		push	{r3, lr}
 805              	.LCFI22:
 806              		.cfi_def_cfa_offset 8
 807              		.cfi_offset 3, -8
 808              		.cfi_offset 14, -4
 413:Middlewares/ST/STM32_WPAN/ble/core/auto/ble_events.c ****   hci_le_read_local_p256_public_key_complete_event_rp0 *rp0 = (void*)in;
 809              		.loc 1 413 3 is_stmt 1 view .LVU127
 810              	.LVL66:
 414:Middlewares/ST/STM32_WPAN/ble/core/auto/ble_events.c ****   hci_le_read_local_p256_public_key_complete_event( rp0->Status,
 811              		.loc 1 414 3 view .LVU128
 415:Middlewares/ST/STM32_WPAN/ble/core/auto/ble_events.c ****                                                     rp0->Local_P256_Public_Key );
 812              		.loc 1 415 56 is_stmt 0 view .LVU129
 813 0002 0146     		mov	r1, r0
 414:Middlewares/ST/STM32_WPAN/ble/core/auto/ble_events.c ****   hci_le_read_local_p256_public_key_complete_event( rp0->Status,
 814              		.loc 1 414 3 view .LVU130
 815 0004 11F8010B 		ldrb	r0, [r1], #1	@ zero_extendqisi2
 816              	.LVL67:
 414:Middlewares/ST/STM32_WPAN/ble/core/auto/ble_events.c ****   hci_le_read_local_p256_public_key_complete_event( rp0->Status,
 817              		.loc 1 414 3 view .LVU131
 818 0008 FFF7FEFF 		bl	hci_le_read_local_p256_public_key_complete_event
 819              	.LVL68:
 416:Middlewares/ST/STM32_WPAN/ble/core/auto/ble_events.c **** }
 820              		.loc 1 416 1 view .LVU132
 821 000c 08BD     		pop	{r3, pc}
 822              		.cfi_endproc
ARM GAS  C:\Users\bku598\AppData\Local\Temp\cc3wINKy.s 			page 22


 823              	.LFE25:
 825              		.section	.text.hci_le_generate_dhkey_complete_event,"ax",%progbits
 826              		.align	1
 827              		.weak	hci_le_generate_dhkey_complete_event
 828              		.syntax unified
 829              		.thumb
 830              		.thumb_func
 832              	hci_le_generate_dhkey_complete_event:
 833              	.LVL69:
 834              	.LFB26:
 417:Middlewares/ST/STM32_WPAN/ble/core/auto/ble_events.c **** 
 418:Middlewares/ST/STM32_WPAN/ble/core/auto/ble_events.c **** /* HCI_LE_GENERATE_DHKEY_COMPLETE_EVENT callback function */
 419:Middlewares/ST/STM32_WPAN/ble/core/auto/ble_events.c **** __WEAK void hci_le_generate_dhkey_complete_event( uint8_t Status,
 420:Middlewares/ST/STM32_WPAN/ble/core/auto/ble_events.c ****                                                   const uint8_t* DHKey )
 421:Middlewares/ST/STM32_WPAN/ble/core/auto/ble_events.c **** {
 835              		.loc 1 421 1 is_stmt 1 view -0
 836              		.cfi_startproc
 837              		@ args = 0, pretend = 0, frame = 0
 838              		@ frame_needed = 0, uses_anonymous_args = 0
 839              		@ link register save eliminated.
 422:Middlewares/ST/STM32_WPAN/ble/core/auto/ble_events.c **** }
 840              		.loc 1 422 1 view .LVU134
 841 0000 7047     		bx	lr
 842              		.cfi_endproc
 843              	.LFE26:
 845              		.section	.text.hci_le_generate_dhkey_complete_event_process,"ax",%progbits
 846              		.align	1
 847              		.syntax unified
 848              		.thumb
 849              		.thumb_func
 851              	hci_le_generate_dhkey_complete_event_process:
 852              	.LVL70:
 853              	.LFB27:
 423:Middlewares/ST/STM32_WPAN/ble/core/auto/ble_events.c **** 
 424:Middlewares/ST/STM32_WPAN/ble/core/auto/ble_events.c **** /* HCI_LE_GENERATE_DHKEY_COMPLETE_EVENT process function */
 425:Middlewares/ST/STM32_WPAN/ble/core/auto/ble_events.c **** static void hci_le_generate_dhkey_complete_event_process( const uint8_t* in )
 426:Middlewares/ST/STM32_WPAN/ble/core/auto/ble_events.c **** {
 854              		.loc 1 426 1 view -0
 855              		.cfi_startproc
 856              		@ args = 0, pretend = 0, frame = 0
 857              		@ frame_needed = 0, uses_anonymous_args = 0
 858              		.loc 1 426 1 is_stmt 0 view .LVU136
 859 0000 08B5     		push	{r3, lr}
 860              	.LCFI23:
 861              		.cfi_def_cfa_offset 8
 862              		.cfi_offset 3, -8
 863              		.cfi_offset 14, -4
 427:Middlewares/ST/STM32_WPAN/ble/core/auto/ble_events.c ****   hci_le_generate_dhkey_complete_event_rp0 *rp0 = (void*)in;
 864              		.loc 1 427 3 is_stmt 1 view .LVU137
 865              	.LVL71:
 428:Middlewares/ST/STM32_WPAN/ble/core/auto/ble_events.c ****   hci_le_generate_dhkey_complete_event( rp0->Status,
 866              		.loc 1 428 3 view .LVU138
 429:Middlewares/ST/STM32_WPAN/ble/core/auto/ble_events.c ****                                         rp0->DHKey );
 867              		.loc 1 429 44 is_stmt 0 view .LVU139
 868 0002 0146     		mov	r1, r0
 428:Middlewares/ST/STM32_WPAN/ble/core/auto/ble_events.c ****   hci_le_generate_dhkey_complete_event( rp0->Status,
 869              		.loc 1 428 3 view .LVU140
ARM GAS  C:\Users\bku598\AppData\Local\Temp\cc3wINKy.s 			page 23


 870 0004 11F8010B 		ldrb	r0, [r1], #1	@ zero_extendqisi2
 871              	.LVL72:
 428:Middlewares/ST/STM32_WPAN/ble/core/auto/ble_events.c ****   hci_le_generate_dhkey_complete_event( rp0->Status,
 872              		.loc 1 428 3 view .LVU141
 873 0008 FFF7FEFF 		bl	hci_le_generate_dhkey_complete_event
 874              	.LVL73:
 430:Middlewares/ST/STM32_WPAN/ble/core/auto/ble_events.c **** }
 875              		.loc 1 430 1 view .LVU142
 876 000c 08BD     		pop	{r3, pc}
 877              		.cfi_endproc
 878              	.LFE27:
 880              		.section	.text.hci_le_enhanced_connection_complete_event,"ax",%progbits
 881              		.align	1
 882              		.weak	hci_le_enhanced_connection_complete_event
 883              		.syntax unified
 884              		.thumb
 885              		.thumb_func
 887              	hci_le_enhanced_connection_complete_event:
 888              	.LVL74:
 889              	.LFB28:
 431:Middlewares/ST/STM32_WPAN/ble/core/auto/ble_events.c **** 
 432:Middlewares/ST/STM32_WPAN/ble/core/auto/ble_events.c **** /* HCI_LE_ENHANCED_CONNECTION_COMPLETE_EVENT callback function */
 433:Middlewares/ST/STM32_WPAN/ble/core/auto/ble_events.c **** __WEAK void hci_le_enhanced_connection_complete_event( uint8_t Status,
 434:Middlewares/ST/STM32_WPAN/ble/core/auto/ble_events.c ****                                                        uint16_t Connection_Handle,
 435:Middlewares/ST/STM32_WPAN/ble/core/auto/ble_events.c ****                                                        uint8_t Role,
 436:Middlewares/ST/STM32_WPAN/ble/core/auto/ble_events.c ****                                                        uint8_t Peer_Address_Type,
 437:Middlewares/ST/STM32_WPAN/ble/core/auto/ble_events.c ****                                                        const uint8_t* Peer_Address,
 438:Middlewares/ST/STM32_WPAN/ble/core/auto/ble_events.c ****                                                        const uint8_t* Local_Resolvable_Private_Addr
 439:Middlewares/ST/STM32_WPAN/ble/core/auto/ble_events.c ****                                                        const uint8_t* Peer_Resolvable_Private_Addre
 440:Middlewares/ST/STM32_WPAN/ble/core/auto/ble_events.c ****                                                        uint16_t Conn_Interval,
 441:Middlewares/ST/STM32_WPAN/ble/core/auto/ble_events.c ****                                                        uint16_t Conn_Latency,
 442:Middlewares/ST/STM32_WPAN/ble/core/auto/ble_events.c ****                                                        uint16_t Supervision_Timeout,
 443:Middlewares/ST/STM32_WPAN/ble/core/auto/ble_events.c ****                                                        uint8_t Central_Clock_Accuracy )
 444:Middlewares/ST/STM32_WPAN/ble/core/auto/ble_events.c **** {
 890              		.loc 1 444 1 is_stmt 1 view -0
 891              		.cfi_startproc
 892              		@ args = 28, pretend = 0, frame = 0
 893              		@ frame_needed = 0, uses_anonymous_args = 0
 894              		@ link register save eliminated.
 445:Middlewares/ST/STM32_WPAN/ble/core/auto/ble_events.c **** }
 895              		.loc 1 445 1 view .LVU144
 896 0000 7047     		bx	lr
 897              		.cfi_endproc
 898              	.LFE28:
 900              		.section	.text.hci_le_enhanced_connection_complete_event_process,"ax",%progbits
 901              		.align	1
 902              		.syntax unified
 903              		.thumb
 904              		.thumb_func
 906              	hci_le_enhanced_connection_complete_event_process:
 907              	.LVL75:
 908              	.LFB29:
 446:Middlewares/ST/STM32_WPAN/ble/core/auto/ble_events.c **** 
 447:Middlewares/ST/STM32_WPAN/ble/core/auto/ble_events.c **** /* HCI_LE_ENHANCED_CONNECTION_COMPLETE_EVENT process function */
 448:Middlewares/ST/STM32_WPAN/ble/core/auto/ble_events.c **** static void hci_le_enhanced_connection_complete_event_process( const uint8_t* in )
 449:Middlewares/ST/STM32_WPAN/ble/core/auto/ble_events.c **** {
 909              		.loc 1 449 1 view -0
ARM GAS  C:\Users\bku598\AppData\Local\Temp\cc3wINKy.s 			page 24


 910              		.cfi_startproc
 911              		@ args = 0, pretend = 0, frame = 0
 912              		@ frame_needed = 0, uses_anonymous_args = 0
 913              		.loc 1 449 1 is_stmt 0 view .LVU146
 914 0000 10B5     		push	{r4, lr}
 915              	.LCFI24:
 916              		.cfi_def_cfa_offset 8
 917              		.cfi_offset 4, -8
 918              		.cfi_offset 14, -4
 919 0002 88B0     		sub	sp, sp, #32
 920              	.LCFI25:
 921              		.cfi_def_cfa_offset 40
 450:Middlewares/ST/STM32_WPAN/ble/core/auto/ble_events.c ****   hci_le_enhanced_connection_complete_event_rp0 *rp0 = (void*)in;
 922              		.loc 1 450 3 is_stmt 1 view .LVU147
 923              	.LVL76:
 451:Middlewares/ST/STM32_WPAN/ble/core/auto/ble_events.c ****   hci_le_enhanced_connection_complete_event( rp0->Status,
 924              		.loc 1 451 3 view .LVU148
 452:Middlewares/ST/STM32_WPAN/ble/core/auto/ble_events.c ****                                              rp0->Connection_Handle,
 453:Middlewares/ST/STM32_WPAN/ble/core/auto/ble_events.c ****                                              rp0->Role,
 454:Middlewares/ST/STM32_WPAN/ble/core/auto/ble_events.c ****                                              rp0->Peer_Address_Type,
 455:Middlewares/ST/STM32_WPAN/ble/core/auto/ble_events.c ****                                              rp0->Peer_Address,
 925              		.loc 1 455 49 is_stmt 0 view .LVU149
 926 0004 431D     		adds	r3, r0, #5
 456:Middlewares/ST/STM32_WPAN/ble/core/auto/ble_events.c ****                                              rp0->Local_Resolvable_Private_Address,
 927              		.loc 1 456 49 view .LVU150
 928 0006 00F10B02 		add	r2, r0, #11
 457:Middlewares/ST/STM32_WPAN/ble/core/auto/ble_events.c ****                                              rp0->Peer_Resolvable_Private_Address,
 929              		.loc 1 457 49 view .LVU151
 930 000a 00F11101 		add	r1, r0, #17
 451:Middlewares/ST/STM32_WPAN/ble/core/auto/ble_events.c ****                                              rp0->Connection_Handle,
 931              		.loc 1 451 3 view .LVU152
 932 000e 447F     		ldrb	r4, [r0, #29]	@ zero_extendqisi2
 933 0010 0694     		str	r4, [sp, #24]
 934 0012 B0F81B40 		ldrh	r4, [r0, #27]	@ unaligned
 935 0016 0594     		str	r4, [sp, #20]
 936 0018 B0F81940 		ldrh	r4, [r0, #25]	@ unaligned
 937 001c 0494     		str	r4, [sp, #16]
 938 001e B0F81740 		ldrh	r4, [r0, #23]	@ unaligned
 939 0022 0394     		str	r4, [sp, #12]
 940 0024 0291     		str	r1, [sp, #8]
 941 0026 0192     		str	r2, [sp, #4]
 942 0028 0093     		str	r3, [sp]
 943 002a 0379     		ldrb	r3, [r0, #4]	@ zero_extendqisi2
 944 002c C278     		ldrb	r2, [r0, #3]	@ zero_extendqisi2
 945 002e B0F80110 		ldrh	r1, [r0, #1]	@ unaligned
 946 0032 0078     		ldrb	r0, [r0]	@ zero_extendqisi2
 947              	.LVL77:
 451:Middlewares/ST/STM32_WPAN/ble/core/auto/ble_events.c ****                                              rp0->Connection_Handle,
 948              		.loc 1 451 3 view .LVU153
 949 0034 FFF7FEFF 		bl	hci_le_enhanced_connection_complete_event
 950              	.LVL78:
 458:Middlewares/ST/STM32_WPAN/ble/core/auto/ble_events.c ****                                              rp0->Conn_Interval,
 459:Middlewares/ST/STM32_WPAN/ble/core/auto/ble_events.c ****                                              rp0->Conn_Latency,
 460:Middlewares/ST/STM32_WPAN/ble/core/auto/ble_events.c ****                                              rp0->Supervision_Timeout,
 461:Middlewares/ST/STM32_WPAN/ble/core/auto/ble_events.c ****                                              rp0->Central_Clock_Accuracy );
 462:Middlewares/ST/STM32_WPAN/ble/core/auto/ble_events.c **** }
 951              		.loc 1 462 1 view .LVU154
ARM GAS  C:\Users\bku598\AppData\Local\Temp\cc3wINKy.s 			page 25


 952 0038 08B0     		add	sp, sp, #32
 953              	.LCFI26:
 954              		.cfi_def_cfa_offset 8
 955              		@ sp needed
 956 003a 10BD     		pop	{r4, pc}
 957              		.cfi_endproc
 958              	.LFE29:
 960              		.section	.text.hci_le_directed_advertising_report_event,"ax",%progbits
 961              		.align	1
 962              		.weak	hci_le_directed_advertising_report_event
 963              		.syntax unified
 964              		.thumb
 965              		.thumb_func
 967              	hci_le_directed_advertising_report_event:
 968              	.LVL79:
 969              	.LFB30:
 463:Middlewares/ST/STM32_WPAN/ble/core/auto/ble_events.c **** 
 464:Middlewares/ST/STM32_WPAN/ble/core/auto/ble_events.c **** /* HCI_LE_DIRECTED_ADVERTISING_REPORT_EVENT callback function */
 465:Middlewares/ST/STM32_WPAN/ble/core/auto/ble_events.c **** __WEAK void hci_le_directed_advertising_report_event( uint8_t Num_Reports,
 466:Middlewares/ST/STM32_WPAN/ble/core/auto/ble_events.c ****                                                       const Direct_Advertising_Report_t* Direct_Adv
 467:Middlewares/ST/STM32_WPAN/ble/core/auto/ble_events.c **** {
 970              		.loc 1 467 1 is_stmt 1 view -0
 971              		.cfi_startproc
 972              		@ args = 0, pretend = 0, frame = 0
 973              		@ frame_needed = 0, uses_anonymous_args = 0
 974              		@ link register save eliminated.
 468:Middlewares/ST/STM32_WPAN/ble/core/auto/ble_events.c **** }
 975              		.loc 1 468 1 view .LVU156
 976 0000 7047     		bx	lr
 977              		.cfi_endproc
 978              	.LFE30:
 980              		.section	.text.hci_le_directed_advertising_report_event_process,"ax",%progbits
 981              		.align	1
 982              		.syntax unified
 983              		.thumb
 984              		.thumb_func
 986              	hci_le_directed_advertising_report_event_process:
 987              	.LVL80:
 988              	.LFB31:
 469:Middlewares/ST/STM32_WPAN/ble/core/auto/ble_events.c **** 
 470:Middlewares/ST/STM32_WPAN/ble/core/auto/ble_events.c **** /* HCI_LE_DIRECTED_ADVERTISING_REPORT_EVENT process function */
 471:Middlewares/ST/STM32_WPAN/ble/core/auto/ble_events.c **** static void hci_le_directed_advertising_report_event_process( const uint8_t* in )
 472:Middlewares/ST/STM32_WPAN/ble/core/auto/ble_events.c **** {
 989              		.loc 1 472 1 view -0
 990              		.cfi_startproc
 991              		@ args = 0, pretend = 0, frame = 0
 992              		@ frame_needed = 0, uses_anonymous_args = 0
 993              		.loc 1 472 1 is_stmt 0 view .LVU158
 994 0000 08B5     		push	{r3, lr}
 995              	.LCFI27:
 996              		.cfi_def_cfa_offset 8
 997              		.cfi_offset 3, -8
 998              		.cfi_offset 14, -4
 473:Middlewares/ST/STM32_WPAN/ble/core/auto/ble_events.c ****   hci_le_directed_advertising_report_event_rp0 *rp0 = (void*)in;
 999              		.loc 1 473 3 is_stmt 1 view .LVU159
 1000              	.LVL81:
 474:Middlewares/ST/STM32_WPAN/ble/core/auto/ble_events.c ****   hci_le_directed_advertising_report_event( rp0->Num_Reports,
ARM GAS  C:\Users\bku598\AppData\Local\Temp\cc3wINKy.s 			page 26


 1001              		.loc 1 474 3 view .LVU160
 475:Middlewares/ST/STM32_WPAN/ble/core/auto/ble_events.c ****                                             rp0->Direct_Advertising_Report );
 1002              		.loc 1 475 48 is_stmt 0 view .LVU161
 1003 0002 0146     		mov	r1, r0
 474:Middlewares/ST/STM32_WPAN/ble/core/auto/ble_events.c ****   hci_le_directed_advertising_report_event( rp0->Num_Reports,
 1004              		.loc 1 474 3 view .LVU162
 1005 0004 11F8010B 		ldrb	r0, [r1], #1	@ zero_extendqisi2
 1006              	.LVL82:
 474:Middlewares/ST/STM32_WPAN/ble/core/auto/ble_events.c ****   hci_le_directed_advertising_report_event( rp0->Num_Reports,
 1007              		.loc 1 474 3 view .LVU163
 1008 0008 FFF7FEFF 		bl	hci_le_directed_advertising_report_event
 1009              	.LVL83:
 476:Middlewares/ST/STM32_WPAN/ble/core/auto/ble_events.c **** }
 1010              		.loc 1 476 1 view .LVU164
 1011 000c 08BD     		pop	{r3, pc}
 1012              		.cfi_endproc
 1013              	.LFE31:
 1015              		.section	.text.hci_le_phy_update_complete_event,"ax",%progbits
 1016              		.align	1
 1017              		.weak	hci_le_phy_update_complete_event
 1018              		.syntax unified
 1019              		.thumb
 1020              		.thumb_func
 1022              	hci_le_phy_update_complete_event:
 1023              	.LVL84:
 1024              	.LFB32:
 477:Middlewares/ST/STM32_WPAN/ble/core/auto/ble_events.c **** 
 478:Middlewares/ST/STM32_WPAN/ble/core/auto/ble_events.c **** /* HCI_LE_PHY_UPDATE_COMPLETE_EVENT callback function */
 479:Middlewares/ST/STM32_WPAN/ble/core/auto/ble_events.c **** __WEAK void hci_le_phy_update_complete_event( uint8_t Status,
 480:Middlewares/ST/STM32_WPAN/ble/core/auto/ble_events.c ****                                               uint16_t Connection_Handle,
 481:Middlewares/ST/STM32_WPAN/ble/core/auto/ble_events.c ****                                               uint8_t TX_PHY,
 482:Middlewares/ST/STM32_WPAN/ble/core/auto/ble_events.c ****                                               uint8_t RX_PHY )
 483:Middlewares/ST/STM32_WPAN/ble/core/auto/ble_events.c **** {
 1025              		.loc 1 483 1 is_stmt 1 view -0
 1026              		.cfi_startproc
 1027              		@ args = 0, pretend = 0, frame = 0
 1028              		@ frame_needed = 0, uses_anonymous_args = 0
 1029              		@ link register save eliminated.
 484:Middlewares/ST/STM32_WPAN/ble/core/auto/ble_events.c **** }
 1030              		.loc 1 484 1 view .LVU166
 1031 0000 7047     		bx	lr
 1032              		.cfi_endproc
 1033              	.LFE32:
 1035              		.section	.text.hci_le_phy_update_complete_event_process,"ax",%progbits
 1036              		.align	1
 1037              		.syntax unified
 1038              		.thumb
 1039              		.thumb_func
 1041              	hci_le_phy_update_complete_event_process:
 1042              	.LVL85:
 1043              	.LFB33:
 485:Middlewares/ST/STM32_WPAN/ble/core/auto/ble_events.c **** 
 486:Middlewares/ST/STM32_WPAN/ble/core/auto/ble_events.c **** /* HCI_LE_PHY_UPDATE_COMPLETE_EVENT process function */
 487:Middlewares/ST/STM32_WPAN/ble/core/auto/ble_events.c **** static void hci_le_phy_update_complete_event_process( const uint8_t* in )
 488:Middlewares/ST/STM32_WPAN/ble/core/auto/ble_events.c **** {
 1044              		.loc 1 488 1 view -0
 1045              		.cfi_startproc
ARM GAS  C:\Users\bku598\AppData\Local\Temp\cc3wINKy.s 			page 27


 1046              		@ args = 0, pretend = 0, frame = 0
 1047              		@ frame_needed = 0, uses_anonymous_args = 0
 1048              		.loc 1 488 1 is_stmt 0 view .LVU168
 1049 0000 08B5     		push	{r3, lr}
 1050              	.LCFI28:
 1051              		.cfi_def_cfa_offset 8
 1052              		.cfi_offset 3, -8
 1053              		.cfi_offset 14, -4
 489:Middlewares/ST/STM32_WPAN/ble/core/auto/ble_events.c ****   hci_le_phy_update_complete_event_rp0 *rp0 = (void*)in;
 1054              		.loc 1 489 3 is_stmt 1 view .LVU169
 1055              	.LVL86:
 490:Middlewares/ST/STM32_WPAN/ble/core/auto/ble_events.c ****   hci_le_phy_update_complete_event( rp0->Status,
 1056              		.loc 1 490 3 view .LVU170
 1057 0002 0379     		ldrb	r3, [r0, #4]	@ zero_extendqisi2
 1058 0004 C278     		ldrb	r2, [r0, #3]	@ zero_extendqisi2
 1059 0006 B0F80110 		ldrh	r1, [r0, #1]	@ unaligned
 1060 000a 0078     		ldrb	r0, [r0]	@ zero_extendqisi2
 1061              	.LVL87:
 1062              		.loc 1 490 3 is_stmt 0 view .LVU171
 1063 000c FFF7FEFF 		bl	hci_le_phy_update_complete_event
 1064              	.LVL88:
 491:Middlewares/ST/STM32_WPAN/ble/core/auto/ble_events.c ****                                     rp0->Connection_Handle,
 492:Middlewares/ST/STM32_WPAN/ble/core/auto/ble_events.c ****                                     rp0->TX_PHY,
 493:Middlewares/ST/STM32_WPAN/ble/core/auto/ble_events.c ****                                     rp0->RX_PHY );
 494:Middlewares/ST/STM32_WPAN/ble/core/auto/ble_events.c **** }
 1065              		.loc 1 494 1 view .LVU172
 1066 0010 08BD     		pop	{r3, pc}
 1067              		.cfi_endproc
 1068              	.LFE33:
 1070              		.section	.text.hci_le_extended_advertising_report_event,"ax",%progbits
 1071              		.align	1
 1072              		.weak	hci_le_extended_advertising_report_event
 1073              		.syntax unified
 1074              		.thumb
 1075              		.thumb_func
 1077              	hci_le_extended_advertising_report_event:
 1078              	.LVL89:
 1079              	.LFB34:
 495:Middlewares/ST/STM32_WPAN/ble/core/auto/ble_events.c **** 
 496:Middlewares/ST/STM32_WPAN/ble/core/auto/ble_events.c **** /* HCI_LE_EXTENDED_ADVERTISING_REPORT_EVENT callback function */
 497:Middlewares/ST/STM32_WPAN/ble/core/auto/ble_events.c **** __WEAK void hci_le_extended_advertising_report_event( uint8_t Num_Reports,
 498:Middlewares/ST/STM32_WPAN/ble/core/auto/ble_events.c ****                                                       uint16_t Event_Type,
 499:Middlewares/ST/STM32_WPAN/ble/core/auto/ble_events.c ****                                                       uint8_t Address_Type,
 500:Middlewares/ST/STM32_WPAN/ble/core/auto/ble_events.c ****                                                       const uint8_t* Address,
 501:Middlewares/ST/STM32_WPAN/ble/core/auto/ble_events.c ****                                                       uint8_t Primary_PHY,
 502:Middlewares/ST/STM32_WPAN/ble/core/auto/ble_events.c ****                                                       uint8_t Secondary_PHY,
 503:Middlewares/ST/STM32_WPAN/ble/core/auto/ble_events.c ****                                                       uint8_t Advertising_SID,
 504:Middlewares/ST/STM32_WPAN/ble/core/auto/ble_events.c ****                                                       uint8_t TX_Power,
 505:Middlewares/ST/STM32_WPAN/ble/core/auto/ble_events.c ****                                                       uint8_t RSSI,
 506:Middlewares/ST/STM32_WPAN/ble/core/auto/ble_events.c ****                                                       uint16_t Periodic_Adv_Interval,
 507:Middlewares/ST/STM32_WPAN/ble/core/auto/ble_events.c ****                                                       uint8_t Direct_Address_Type,
 508:Middlewares/ST/STM32_WPAN/ble/core/auto/ble_events.c ****                                                       const uint8_t* Direct_Address,
 509:Middlewares/ST/STM32_WPAN/ble/core/auto/ble_events.c ****                                                       uint8_t Data_Length,
 510:Middlewares/ST/STM32_WPAN/ble/core/auto/ble_events.c ****                                                       const uint8_t* Data )
 511:Middlewares/ST/STM32_WPAN/ble/core/auto/ble_events.c **** {
 1080              		.loc 1 511 1 is_stmt 1 view -0
 1081              		.cfi_startproc
ARM GAS  C:\Users\bku598\AppData\Local\Temp\cc3wINKy.s 			page 28


 1082              		@ args = 40, pretend = 0, frame = 0
 1083              		@ frame_needed = 0, uses_anonymous_args = 0
 1084              		@ link register save eliminated.
 512:Middlewares/ST/STM32_WPAN/ble/core/auto/ble_events.c **** }
 1085              		.loc 1 512 1 view .LVU174
 1086 0000 7047     		bx	lr
 1087              		.cfi_endproc
 1088              	.LFE34:
 1090              		.section	.text.hci_le_extended_advertising_report_event_process,"ax",%progbits
 1091              		.align	1
 1092              		.syntax unified
 1093              		.thumb
 1094              		.thumb_func
 1096              	hci_le_extended_advertising_report_event_process:
 1097              	.LVL90:
 1098              	.LFB35:
 513:Middlewares/ST/STM32_WPAN/ble/core/auto/ble_events.c **** 
 514:Middlewares/ST/STM32_WPAN/ble/core/auto/ble_events.c **** /* HCI_LE_EXTENDED_ADVERTISING_REPORT_EVENT process function */
 515:Middlewares/ST/STM32_WPAN/ble/core/auto/ble_events.c **** static void hci_le_extended_advertising_report_event_process( const uint8_t* in )
 516:Middlewares/ST/STM32_WPAN/ble/core/auto/ble_events.c **** {
 1099              		.loc 1 516 1 view -0
 1100              		.cfi_startproc
 1101              		@ args = 0, pretend = 0, frame = 0
 1102              		@ frame_needed = 0, uses_anonymous_args = 0
 1103              		.loc 1 516 1 is_stmt 0 view .LVU176
 1104 0000 00B5     		push	{lr}
 1105              	.LCFI29:
 1106              		.cfi_def_cfa_offset 4
 1107              		.cfi_offset 14, -4
 1108 0002 8BB0     		sub	sp, sp, #44
 1109              	.LCFI30:
 1110              		.cfi_def_cfa_offset 48
 517:Middlewares/ST/STM32_WPAN/ble/core/auto/ble_events.c ****   hci_le_extended_advertising_report_event_rp0 *rp0 = (void*)in;
 1111              		.loc 1 517 3 is_stmt 1 view .LVU177
 1112              	.LVL91:
 518:Middlewares/ST/STM32_WPAN/ble/core/auto/ble_events.c ****   hci_le_extended_advertising_report_event( rp0->Num_Reports,
 1113              		.loc 1 518 3 view .LVU178
 519:Middlewares/ST/STM32_WPAN/ble/core/auto/ble_events.c ****                                             rp0->Event_Type,
 520:Middlewares/ST/STM32_WPAN/ble/core/auto/ble_events.c ****                                             rp0->Address_Type,
 521:Middlewares/ST/STM32_WPAN/ble/core/auto/ble_events.c ****                                             rp0->Address,
 522:Middlewares/ST/STM32_WPAN/ble/core/auto/ble_events.c ****                                             rp0->Primary_PHY,
 523:Middlewares/ST/STM32_WPAN/ble/core/auto/ble_events.c ****                                             rp0->Secondary_PHY,
 524:Middlewares/ST/STM32_WPAN/ble/core/auto/ble_events.c ****                                             rp0->Advertising_SID,
 525:Middlewares/ST/STM32_WPAN/ble/core/auto/ble_events.c ****                                             rp0->TX_Power,
 526:Middlewares/ST/STM32_WPAN/ble/core/auto/ble_events.c ****                                             rp0->RSSI,
 527:Middlewares/ST/STM32_WPAN/ble/core/auto/ble_events.c ****                                             rp0->Periodic_Adv_Interval,
 528:Middlewares/ST/STM32_WPAN/ble/core/auto/ble_events.c ****                                             rp0->Direct_Address_Type,
 529:Middlewares/ST/STM32_WPAN/ble/core/auto/ble_events.c ****                                             rp0->Direct_Address,
 1114              		.loc 1 529 48 is_stmt 0 view .LVU179
 1115 0004 00F11203 		add	r3, r0, #18
 530:Middlewares/ST/STM32_WPAN/ble/core/auto/ble_events.c ****                                             rp0->Data_Length,
 531:Middlewares/ST/STM32_WPAN/ble/core/auto/ble_events.c ****                                             rp0->Data );
 1116              		.loc 1 531 48 view .LVU180
 1117 0008 00F11902 		add	r2, r0, #25
 518:Middlewares/ST/STM32_WPAN/ble/core/auto/ble_events.c ****                                             rp0->Event_Type,
 1118              		.loc 1 518 3 view .LVU181
 1119 000c 0992     		str	r2, [sp, #36]
ARM GAS  C:\Users\bku598\AppData\Local\Temp\cc3wINKy.s 			page 29


 1120 000e 027E     		ldrb	r2, [r0, #24]	@ zero_extendqisi2
 1121 0010 0892     		str	r2, [sp, #32]
 1122 0012 0793     		str	r3, [sp, #28]
 1123 0014 437C     		ldrb	r3, [r0, #17]	@ zero_extendqisi2
 1124 0016 0693     		str	r3, [sp, #24]
 1125 0018 B0F80F30 		ldrh	r3, [r0, #15]	@ unaligned
 1126 001c 0593     		str	r3, [sp, #20]
 1127 001e 837B     		ldrb	r3, [r0, #14]	@ zero_extendqisi2
 1128 0020 0493     		str	r3, [sp, #16]
 1129 0022 437B     		ldrb	r3, [r0, #13]	@ zero_extendqisi2
 1130 0024 0393     		str	r3, [sp, #12]
 1131 0026 037B     		ldrb	r3, [r0, #12]	@ zero_extendqisi2
 1132 0028 0293     		str	r3, [sp, #8]
 1133 002a C37A     		ldrb	r3, [r0, #11]	@ zero_extendqisi2
 1134 002c 0193     		str	r3, [sp, #4]
 1135 002e 837A     		ldrb	r3, [r0, #10]	@ zero_extendqisi2
 1136 0030 0093     		str	r3, [sp]
 1137 0032 031D     		adds	r3, r0, #4
 1138 0034 C278     		ldrb	r2, [r0, #3]	@ zero_extendqisi2
 1139 0036 B0F80110 		ldrh	r1, [r0, #1]	@ unaligned
 1140 003a 0078     		ldrb	r0, [r0]	@ zero_extendqisi2
 1141              	.LVL92:
 518:Middlewares/ST/STM32_WPAN/ble/core/auto/ble_events.c ****                                             rp0->Event_Type,
 1142              		.loc 1 518 3 view .LVU182
 1143 003c FFF7FEFF 		bl	hci_le_extended_advertising_report_event
 1144              	.LVL93:
 532:Middlewares/ST/STM32_WPAN/ble/core/auto/ble_events.c **** }
 1145              		.loc 1 532 1 view .LVU183
 1146 0040 0BB0     		add	sp, sp, #44
 1147              	.LCFI31:
 1148              		.cfi_def_cfa_offset 4
 1149              		@ sp needed
 1150 0042 5DF804FB 		ldr	pc, [sp], #4
 1151              		.cfi_endproc
 1152              	.LFE35:
 1154              		.section	.text.hci_le_scan_timeout_event,"ax",%progbits
 1155              		.align	1
 1156              		.weak	hci_le_scan_timeout_event
 1157              		.syntax unified
 1158              		.thumb
 1159              		.thumb_func
 1161              	hci_le_scan_timeout_event:
 1162              	.LFB36:
 533:Middlewares/ST/STM32_WPAN/ble/core/auto/ble_events.c **** 
 534:Middlewares/ST/STM32_WPAN/ble/core/auto/ble_events.c **** /* HCI_LE_SCAN_TIMEOUT_EVENT callback function */
 535:Middlewares/ST/STM32_WPAN/ble/core/auto/ble_events.c **** __WEAK void hci_le_scan_timeout_event( void )
 536:Middlewares/ST/STM32_WPAN/ble/core/auto/ble_events.c **** {
 1163              		.loc 1 536 1 is_stmt 1 view -0
 1164              		.cfi_startproc
 1165              		@ args = 0, pretend = 0, frame = 0
 1166              		@ frame_needed = 0, uses_anonymous_args = 0
 1167              		@ link register save eliminated.
 537:Middlewares/ST/STM32_WPAN/ble/core/auto/ble_events.c **** }
 1168              		.loc 1 537 1 view .LVU185
 1169 0000 7047     		bx	lr
 1170              		.cfi_endproc
 1171              	.LFE36:
ARM GAS  C:\Users\bku598\AppData\Local\Temp\cc3wINKy.s 			page 30


 1173              		.section	.text.hci_le_scan_timeout_event_process,"ax",%progbits
 1174              		.align	1
 1175              		.syntax unified
 1176              		.thumb
 1177              		.thumb_func
 1179              	hci_le_scan_timeout_event_process:
 1180              	.LVL94:
 1181              	.LFB37:
 538:Middlewares/ST/STM32_WPAN/ble/core/auto/ble_events.c **** 
 539:Middlewares/ST/STM32_WPAN/ble/core/auto/ble_events.c **** /* HCI_LE_SCAN_TIMEOUT_EVENT process function */
 540:Middlewares/ST/STM32_WPAN/ble/core/auto/ble_events.c **** static void hci_le_scan_timeout_event_process( const uint8_t* in )
 541:Middlewares/ST/STM32_WPAN/ble/core/auto/ble_events.c **** {
 1182              		.loc 1 541 1 view -0
 1183              		.cfi_startproc
 1184              		@ args = 0, pretend = 0, frame = 0
 1185              		@ frame_needed = 0, uses_anonymous_args = 0
 1186              		.loc 1 541 1 is_stmt 0 view .LVU187
 1187 0000 08B5     		push	{r3, lr}
 1188              	.LCFI32:
 1189              		.cfi_def_cfa_offset 8
 1190              		.cfi_offset 3, -8
 1191              		.cfi_offset 14, -4
 542:Middlewares/ST/STM32_WPAN/ble/core/auto/ble_events.c ****   hci_le_scan_timeout_event( );
 1192              		.loc 1 542 3 is_stmt 1 view .LVU188
 1193 0002 FFF7FEFF 		bl	hci_le_scan_timeout_event
 1194              	.LVL95:
 543:Middlewares/ST/STM32_WPAN/ble/core/auto/ble_events.c **** }
 1195              		.loc 1 543 1 is_stmt 0 view .LVU189
 1196 0006 08BD     		pop	{r3, pc}
 1197              		.cfi_endproc
 1198              	.LFE37:
 1200              		.section	.text.hci_le_advertising_set_terminated_event,"ax",%progbits
 1201              		.align	1
 1202              		.weak	hci_le_advertising_set_terminated_event
 1203              		.syntax unified
 1204              		.thumb
 1205              		.thumb_func
 1207              	hci_le_advertising_set_terminated_event:
 1208              	.LVL96:
 1209              	.LFB38:
 544:Middlewares/ST/STM32_WPAN/ble/core/auto/ble_events.c **** 
 545:Middlewares/ST/STM32_WPAN/ble/core/auto/ble_events.c **** /* HCI_LE_ADVERTISING_SET_TERMINATED_EVENT callback function */
 546:Middlewares/ST/STM32_WPAN/ble/core/auto/ble_events.c **** __WEAK void hci_le_advertising_set_terminated_event( uint8_t Status,
 547:Middlewares/ST/STM32_WPAN/ble/core/auto/ble_events.c ****                                                      uint8_t Advertising_Handle,
 548:Middlewares/ST/STM32_WPAN/ble/core/auto/ble_events.c ****                                                      uint16_t Connection_Handle,
 549:Middlewares/ST/STM32_WPAN/ble/core/auto/ble_events.c ****                                                      uint8_t Num_Completed_Ext_Adv_Events )
 550:Middlewares/ST/STM32_WPAN/ble/core/auto/ble_events.c **** {
 1210              		.loc 1 550 1 is_stmt 1 view -0
 1211              		.cfi_startproc
 1212              		@ args = 0, pretend = 0, frame = 0
 1213              		@ frame_needed = 0, uses_anonymous_args = 0
 1214              		@ link register save eliminated.
 551:Middlewares/ST/STM32_WPAN/ble/core/auto/ble_events.c **** }
 1215              		.loc 1 551 1 view .LVU191
 1216 0000 7047     		bx	lr
 1217              		.cfi_endproc
 1218              	.LFE38:
ARM GAS  C:\Users\bku598\AppData\Local\Temp\cc3wINKy.s 			page 31


 1220              		.section	.text.hci_le_advertising_set_terminated_event_process,"ax",%progbits
 1221              		.align	1
 1222              		.syntax unified
 1223              		.thumb
 1224              		.thumb_func
 1226              	hci_le_advertising_set_terminated_event_process:
 1227              	.LVL97:
 1228              	.LFB39:
 552:Middlewares/ST/STM32_WPAN/ble/core/auto/ble_events.c **** 
 553:Middlewares/ST/STM32_WPAN/ble/core/auto/ble_events.c **** /* HCI_LE_ADVERTISING_SET_TERMINATED_EVENT process function */
 554:Middlewares/ST/STM32_WPAN/ble/core/auto/ble_events.c **** static void hci_le_advertising_set_terminated_event_process( const uint8_t* in )
 555:Middlewares/ST/STM32_WPAN/ble/core/auto/ble_events.c **** {
 1229              		.loc 1 555 1 view -0
 1230              		.cfi_startproc
 1231              		@ args = 0, pretend = 0, frame = 0
 1232              		@ frame_needed = 0, uses_anonymous_args = 0
 1233              		.loc 1 555 1 is_stmt 0 view .LVU193
 1234 0000 08B5     		push	{r3, lr}
 1235              	.LCFI33:
 1236              		.cfi_def_cfa_offset 8
 1237              		.cfi_offset 3, -8
 1238              		.cfi_offset 14, -4
 556:Middlewares/ST/STM32_WPAN/ble/core/auto/ble_events.c ****   hci_le_advertising_set_terminated_event_rp0 *rp0 = (void*)in;
 1239              		.loc 1 556 3 is_stmt 1 view .LVU194
 1240              	.LVL98:
 557:Middlewares/ST/STM32_WPAN/ble/core/auto/ble_events.c ****   hci_le_advertising_set_terminated_event( rp0->Status,
 1241              		.loc 1 557 3 view .LVU195
 1242 0002 0379     		ldrb	r3, [r0, #4]	@ zero_extendqisi2
 1243 0004 4288     		ldrh	r2, [r0, #2]	@ unaligned
 1244 0006 4178     		ldrb	r1, [r0, #1]	@ zero_extendqisi2
 1245 0008 0078     		ldrb	r0, [r0]	@ zero_extendqisi2
 1246              	.LVL99:
 1247              		.loc 1 557 3 is_stmt 0 view .LVU196
 1248 000a FFF7FEFF 		bl	hci_le_advertising_set_terminated_event
 1249              	.LVL100:
 558:Middlewares/ST/STM32_WPAN/ble/core/auto/ble_events.c ****                                            rp0->Advertising_Handle,
 559:Middlewares/ST/STM32_WPAN/ble/core/auto/ble_events.c ****                                            rp0->Connection_Handle,
 560:Middlewares/ST/STM32_WPAN/ble/core/auto/ble_events.c ****                                            rp0->Num_Completed_Ext_Adv_Events );
 561:Middlewares/ST/STM32_WPAN/ble/core/auto/ble_events.c **** }
 1250              		.loc 1 561 1 view .LVU197
 1251 000e 08BD     		pop	{r3, pc}
 1252              		.cfi_endproc
 1253              	.LFE39:
 1255              		.section	.text.hci_le_scan_request_received_event,"ax",%progbits
 1256              		.align	1
 1257              		.weak	hci_le_scan_request_received_event
 1258              		.syntax unified
 1259              		.thumb
 1260              		.thumb_func
 1262              	hci_le_scan_request_received_event:
 1263              	.LVL101:
 1264              	.LFB40:
 562:Middlewares/ST/STM32_WPAN/ble/core/auto/ble_events.c **** 
 563:Middlewares/ST/STM32_WPAN/ble/core/auto/ble_events.c **** /* HCI_LE_SCAN_REQUEST_RECEIVED_EVENT callback function */
 564:Middlewares/ST/STM32_WPAN/ble/core/auto/ble_events.c **** __WEAK void hci_le_scan_request_received_event( uint8_t Advertising_Handle,
 565:Middlewares/ST/STM32_WPAN/ble/core/auto/ble_events.c ****                                                 uint8_t Scanner_Address_Type,
 566:Middlewares/ST/STM32_WPAN/ble/core/auto/ble_events.c ****                                                 const uint8_t* Scanner_Address )
ARM GAS  C:\Users\bku598\AppData\Local\Temp\cc3wINKy.s 			page 32


 567:Middlewares/ST/STM32_WPAN/ble/core/auto/ble_events.c **** {
 1265              		.loc 1 567 1 is_stmt 1 view -0
 1266              		.cfi_startproc
 1267              		@ args = 0, pretend = 0, frame = 0
 1268              		@ frame_needed = 0, uses_anonymous_args = 0
 1269              		@ link register save eliminated.
 568:Middlewares/ST/STM32_WPAN/ble/core/auto/ble_events.c **** }
 1270              		.loc 1 568 1 view .LVU199
 1271 0000 7047     		bx	lr
 1272              		.cfi_endproc
 1273              	.LFE40:
 1275              		.section	.text.hci_le_scan_request_received_event_process,"ax",%progbits
 1276              		.align	1
 1277              		.syntax unified
 1278              		.thumb
 1279              		.thumb_func
 1281              	hci_le_scan_request_received_event_process:
 1282              	.LVL102:
 1283              	.LFB41:
 569:Middlewares/ST/STM32_WPAN/ble/core/auto/ble_events.c **** 
 570:Middlewares/ST/STM32_WPAN/ble/core/auto/ble_events.c **** /* HCI_LE_SCAN_REQUEST_RECEIVED_EVENT process function */
 571:Middlewares/ST/STM32_WPAN/ble/core/auto/ble_events.c **** static void hci_le_scan_request_received_event_process( const uint8_t* in )
 572:Middlewares/ST/STM32_WPAN/ble/core/auto/ble_events.c **** {
 1284              		.loc 1 572 1 view -0
 1285              		.cfi_startproc
 1286              		@ args = 0, pretend = 0, frame = 0
 1287              		@ frame_needed = 0, uses_anonymous_args = 0
 1288              		.loc 1 572 1 is_stmt 0 view .LVU201
 1289 0000 08B5     		push	{r3, lr}
 1290              	.LCFI34:
 1291              		.cfi_def_cfa_offset 8
 1292              		.cfi_offset 3, -8
 1293              		.cfi_offset 14, -4
 573:Middlewares/ST/STM32_WPAN/ble/core/auto/ble_events.c ****   hci_le_scan_request_received_event_rp0 *rp0 = (void*)in;
 1294              		.loc 1 573 3 is_stmt 1 view .LVU202
 1295              	.LVL103:
 574:Middlewares/ST/STM32_WPAN/ble/core/auto/ble_events.c ****   hci_le_scan_request_received_event( rp0->Advertising_Handle,
 1296              		.loc 1 574 3 view .LVU203
 1297 0002 821C     		adds	r2, r0, #2
 1298 0004 4178     		ldrb	r1, [r0, #1]	@ zero_extendqisi2
 1299 0006 0078     		ldrb	r0, [r0]	@ zero_extendqisi2
 1300              	.LVL104:
 1301              		.loc 1 574 3 is_stmt 0 view .LVU204
 1302 0008 FFF7FEFF 		bl	hci_le_scan_request_received_event
 1303              	.LVL105:
 575:Middlewares/ST/STM32_WPAN/ble/core/auto/ble_events.c ****                                       rp0->Scanner_Address_Type,
 576:Middlewares/ST/STM32_WPAN/ble/core/auto/ble_events.c ****                                       rp0->Scanner_Address );
 577:Middlewares/ST/STM32_WPAN/ble/core/auto/ble_events.c **** }
 1304              		.loc 1 577 1 view .LVU205
 1305 000c 08BD     		pop	{r3, pc}
 1306              		.cfi_endproc
 1307              	.LFE41:
 1309              		.section	.text.hci_le_channel_selection_algorithm_event,"ax",%progbits
 1310              		.align	1
 1311              		.weak	hci_le_channel_selection_algorithm_event
 1312              		.syntax unified
 1313              		.thumb
ARM GAS  C:\Users\bku598\AppData\Local\Temp\cc3wINKy.s 			page 33


 1314              		.thumb_func
 1316              	hci_le_channel_selection_algorithm_event:
 1317              	.LVL106:
 1318              	.LFB42:
 578:Middlewares/ST/STM32_WPAN/ble/core/auto/ble_events.c **** 
 579:Middlewares/ST/STM32_WPAN/ble/core/auto/ble_events.c **** /* HCI_LE_CHANNEL_SELECTION_ALGORITHM_EVENT callback function */
 580:Middlewares/ST/STM32_WPAN/ble/core/auto/ble_events.c **** __WEAK void hci_le_channel_selection_algorithm_event( uint16_t Connection_Handle,
 581:Middlewares/ST/STM32_WPAN/ble/core/auto/ble_events.c ****                                                       uint8_t Channel_Selection_Algorithm )
 582:Middlewares/ST/STM32_WPAN/ble/core/auto/ble_events.c **** {
 1319              		.loc 1 582 1 is_stmt 1 view -0
 1320              		.cfi_startproc
 1321              		@ args = 0, pretend = 0, frame = 0
 1322              		@ frame_needed = 0, uses_anonymous_args = 0
 1323              		@ link register save eliminated.
 583:Middlewares/ST/STM32_WPAN/ble/core/auto/ble_events.c **** }
 1324              		.loc 1 583 1 view .LVU207
 1325 0000 7047     		bx	lr
 1326              		.cfi_endproc
 1327              	.LFE42:
 1329              		.section	.text.hci_le_channel_selection_algorithm_event_process,"ax",%progbits
 1330              		.align	1
 1331              		.syntax unified
 1332              		.thumb
 1333              		.thumb_func
 1335              	hci_le_channel_selection_algorithm_event_process:
 1336              	.LVL107:
 1337              	.LFB43:
 584:Middlewares/ST/STM32_WPAN/ble/core/auto/ble_events.c **** 
 585:Middlewares/ST/STM32_WPAN/ble/core/auto/ble_events.c **** /* HCI_LE_CHANNEL_SELECTION_ALGORITHM_EVENT process function */
 586:Middlewares/ST/STM32_WPAN/ble/core/auto/ble_events.c **** static void hci_le_channel_selection_algorithm_event_process( const uint8_t* in )
 587:Middlewares/ST/STM32_WPAN/ble/core/auto/ble_events.c **** {
 1338              		.loc 1 587 1 view -0
 1339              		.cfi_startproc
 1340              		@ args = 0, pretend = 0, frame = 0
 1341              		@ frame_needed = 0, uses_anonymous_args = 0
 1342              		.loc 1 587 1 is_stmt 0 view .LVU209
 1343 0000 08B5     		push	{r3, lr}
 1344              	.LCFI35:
 1345              		.cfi_def_cfa_offset 8
 1346              		.cfi_offset 3, -8
 1347              		.cfi_offset 14, -4
 588:Middlewares/ST/STM32_WPAN/ble/core/auto/ble_events.c ****   hci_le_channel_selection_algorithm_event_rp0 *rp0 = (void*)in;
 1348              		.loc 1 588 3 is_stmt 1 view .LVU210
 1349              	.LVL108:
 589:Middlewares/ST/STM32_WPAN/ble/core/auto/ble_events.c ****   hci_le_channel_selection_algorithm_event( rp0->Connection_Handle,
 1350              		.loc 1 589 3 view .LVU211
 1351 0002 8178     		ldrb	r1, [r0, #2]	@ zero_extendqisi2
 1352 0004 0088     		ldrh	r0, [r0]	@ unaligned
 1353              	.LVL109:
 1354              		.loc 1 589 3 is_stmt 0 view .LVU212
 1355 0006 FFF7FEFF 		bl	hci_le_channel_selection_algorithm_event
 1356              	.LVL110:
 590:Middlewares/ST/STM32_WPAN/ble/core/auto/ble_events.c ****                                             rp0->Channel_Selection_Algorithm );
 591:Middlewares/ST/STM32_WPAN/ble/core/auto/ble_events.c **** }
 1357              		.loc 1 591 1 view .LVU213
 1358 000a 08BD     		pop	{r3, pc}
 1359              		.cfi_endproc
ARM GAS  C:\Users\bku598\AppData\Local\Temp\cc3wINKy.s 			page 34


 1360              	.LFE43:
 1362              		.section	.text.aci_warning_event,"ax",%progbits
 1363              		.align	1
 1364              		.weak	aci_warning_event
 1365              		.syntax unified
 1366              		.thumb
 1367              		.thumb_func
 1369              	aci_warning_event:
 1370              	.LVL111:
 1371              	.LFB44:
 592:Middlewares/ST/STM32_WPAN/ble/core/auto/ble_events.c **** 
 593:Middlewares/ST/STM32_WPAN/ble/core/auto/ble_events.c **** /* ACI_WARNING_EVENT callback function */
 594:Middlewares/ST/STM32_WPAN/ble/core/auto/ble_events.c **** __WEAK void aci_warning_event( uint8_t Warning_Type,
 595:Middlewares/ST/STM32_WPAN/ble/core/auto/ble_events.c ****                                uint8_t Data_Length,
 596:Middlewares/ST/STM32_WPAN/ble/core/auto/ble_events.c ****                                const uint8_t* Data )
 597:Middlewares/ST/STM32_WPAN/ble/core/auto/ble_events.c **** {
 1372              		.loc 1 597 1 is_stmt 1 view -0
 1373              		.cfi_startproc
 1374              		@ args = 0, pretend = 0, frame = 0
 1375              		@ frame_needed = 0, uses_anonymous_args = 0
 1376              		@ link register save eliminated.
 598:Middlewares/ST/STM32_WPAN/ble/core/auto/ble_events.c **** }
 1377              		.loc 1 598 1 view .LVU215
 1378 0000 7047     		bx	lr
 1379              		.cfi_endproc
 1380              	.LFE44:
 1382              		.section	.text.aci_warning_event_process,"ax",%progbits
 1383              		.align	1
 1384              		.syntax unified
 1385              		.thumb
 1386              		.thumb_func
 1388              	aci_warning_event_process:
 1389              	.LVL112:
 1390              	.LFB45:
 599:Middlewares/ST/STM32_WPAN/ble/core/auto/ble_events.c **** 
 600:Middlewares/ST/STM32_WPAN/ble/core/auto/ble_events.c **** /* ACI_WARNING_EVENT process function */
 601:Middlewares/ST/STM32_WPAN/ble/core/auto/ble_events.c **** static void aci_warning_event_process( const uint8_t* in )
 602:Middlewares/ST/STM32_WPAN/ble/core/auto/ble_events.c **** {
 1391              		.loc 1 602 1 view -0
 1392              		.cfi_startproc
 1393              		@ args = 0, pretend = 0, frame = 0
 1394              		@ frame_needed = 0, uses_anonymous_args = 0
 1395              		.loc 1 602 1 is_stmt 0 view .LVU217
 1396 0000 08B5     		push	{r3, lr}
 1397              	.LCFI36:
 1398              		.cfi_def_cfa_offset 8
 1399              		.cfi_offset 3, -8
 1400              		.cfi_offset 14, -4
 603:Middlewares/ST/STM32_WPAN/ble/core/auto/ble_events.c ****   aci_warning_event_rp0 *rp0 = (void*)in;
 1401              		.loc 1 603 3 is_stmt 1 view .LVU218
 1402              	.LVL113:
 604:Middlewares/ST/STM32_WPAN/ble/core/auto/ble_events.c ****   aci_warning_event( rp0->Warning_Type,
 1403              		.loc 1 604 3 view .LVU219
 1404 0002 821C     		adds	r2, r0, #2
 1405 0004 4178     		ldrb	r1, [r0, #1]	@ zero_extendqisi2
 1406 0006 0078     		ldrb	r0, [r0]	@ zero_extendqisi2
 1407              	.LVL114:
ARM GAS  C:\Users\bku598\AppData\Local\Temp\cc3wINKy.s 			page 35


 1408              		.loc 1 604 3 is_stmt 0 view .LVU220
 1409 0008 FFF7FEFF 		bl	aci_warning_event
 1410              	.LVL115:
 605:Middlewares/ST/STM32_WPAN/ble/core/auto/ble_events.c ****                      rp0->Data_Length,
 606:Middlewares/ST/STM32_WPAN/ble/core/auto/ble_events.c ****                      rp0->Data );
 607:Middlewares/ST/STM32_WPAN/ble/core/auto/ble_events.c **** }
 1411              		.loc 1 607 1 view .LVU221
 1412 000c 08BD     		pop	{r3, pc}
 1413              		.cfi_endproc
 1414              	.LFE45:
 1416              		.section	.text.aci_gap_limited_discoverable_event,"ax",%progbits
 1417              		.align	1
 1418              		.weak	aci_gap_limited_discoverable_event
 1419              		.syntax unified
 1420              		.thumb
 1421              		.thumb_func
 1423              	aci_gap_limited_discoverable_event:
 1424              	.LFB46:
 608:Middlewares/ST/STM32_WPAN/ble/core/auto/ble_events.c **** 
 609:Middlewares/ST/STM32_WPAN/ble/core/auto/ble_events.c **** /* ACI_GAP_LIMITED_DISCOVERABLE_EVENT callback function */
 610:Middlewares/ST/STM32_WPAN/ble/core/auto/ble_events.c **** __WEAK void aci_gap_limited_discoverable_event( void )
 611:Middlewares/ST/STM32_WPAN/ble/core/auto/ble_events.c **** {
 1425              		.loc 1 611 1 is_stmt 1 view -0
 1426              		.cfi_startproc
 1427              		@ args = 0, pretend = 0, frame = 0
 1428              		@ frame_needed = 0, uses_anonymous_args = 0
 1429              		@ link register save eliminated.
 612:Middlewares/ST/STM32_WPAN/ble/core/auto/ble_events.c **** }
 1430              		.loc 1 612 1 view .LVU223
 1431 0000 7047     		bx	lr
 1432              		.cfi_endproc
 1433              	.LFE46:
 1435              		.section	.text.aci_gap_limited_discoverable_event_process,"ax",%progbits
 1436              		.align	1
 1437              		.syntax unified
 1438              		.thumb
 1439              		.thumb_func
 1441              	aci_gap_limited_discoverable_event_process:
 1442              	.LVL116:
 1443              	.LFB47:
 613:Middlewares/ST/STM32_WPAN/ble/core/auto/ble_events.c **** 
 614:Middlewares/ST/STM32_WPAN/ble/core/auto/ble_events.c **** /* ACI_GAP_LIMITED_DISCOVERABLE_EVENT process function */
 615:Middlewares/ST/STM32_WPAN/ble/core/auto/ble_events.c **** static void aci_gap_limited_discoverable_event_process( const uint8_t* in )
 616:Middlewares/ST/STM32_WPAN/ble/core/auto/ble_events.c **** {
 1444              		.loc 1 616 1 view -0
 1445              		.cfi_startproc
 1446              		@ args = 0, pretend = 0, frame = 0
 1447              		@ frame_needed = 0, uses_anonymous_args = 0
 1448              		.loc 1 616 1 is_stmt 0 view .LVU225
 1449 0000 08B5     		push	{r3, lr}
 1450              	.LCFI37:
 1451              		.cfi_def_cfa_offset 8
 1452              		.cfi_offset 3, -8
 1453              		.cfi_offset 14, -4
 617:Middlewares/ST/STM32_WPAN/ble/core/auto/ble_events.c ****   aci_gap_limited_discoverable_event( );
 1454              		.loc 1 617 3 is_stmt 1 view .LVU226
 1455 0002 FFF7FEFF 		bl	aci_gap_limited_discoverable_event
ARM GAS  C:\Users\bku598\AppData\Local\Temp\cc3wINKy.s 			page 36


 1456              	.LVL117:
 618:Middlewares/ST/STM32_WPAN/ble/core/auto/ble_events.c **** }
 1457              		.loc 1 618 1 is_stmt 0 view .LVU227
 1458 0006 08BD     		pop	{r3, pc}
 1459              		.cfi_endproc
 1460              	.LFE47:
 1462              		.section	.text.aci_gap_pairing_complete_event,"ax",%progbits
 1463              		.align	1
 1464              		.weak	aci_gap_pairing_complete_event
 1465              		.syntax unified
 1466              		.thumb
 1467              		.thumb_func
 1469              	aci_gap_pairing_complete_event:
 1470              	.LVL118:
 1471              	.LFB48:
 619:Middlewares/ST/STM32_WPAN/ble/core/auto/ble_events.c **** 
 620:Middlewares/ST/STM32_WPAN/ble/core/auto/ble_events.c **** /* ACI_GAP_PAIRING_COMPLETE_EVENT callback function */
 621:Middlewares/ST/STM32_WPAN/ble/core/auto/ble_events.c **** __WEAK void aci_gap_pairing_complete_event( uint16_t Connection_Handle,
 622:Middlewares/ST/STM32_WPAN/ble/core/auto/ble_events.c ****                                             uint8_t Status,
 623:Middlewares/ST/STM32_WPAN/ble/core/auto/ble_events.c ****                                             uint8_t Reason )
 624:Middlewares/ST/STM32_WPAN/ble/core/auto/ble_events.c **** {
 1472              		.loc 1 624 1 is_stmt 1 view -0
 1473              		.cfi_startproc
 1474              		@ args = 0, pretend = 0, frame = 0
 1475              		@ frame_needed = 0, uses_anonymous_args = 0
 1476              		@ link register save eliminated.
 625:Middlewares/ST/STM32_WPAN/ble/core/auto/ble_events.c **** }
 1477              		.loc 1 625 1 view .LVU229
 1478 0000 7047     		bx	lr
 1479              		.cfi_endproc
 1480              	.LFE48:
 1482              		.section	.text.aci_gap_pairing_complete_event_process,"ax",%progbits
 1483              		.align	1
 1484              		.syntax unified
 1485              		.thumb
 1486              		.thumb_func
 1488              	aci_gap_pairing_complete_event_process:
 1489              	.LVL119:
 1490              	.LFB49:
 626:Middlewares/ST/STM32_WPAN/ble/core/auto/ble_events.c **** 
 627:Middlewares/ST/STM32_WPAN/ble/core/auto/ble_events.c **** /* ACI_GAP_PAIRING_COMPLETE_EVENT process function */
 628:Middlewares/ST/STM32_WPAN/ble/core/auto/ble_events.c **** static void aci_gap_pairing_complete_event_process( const uint8_t* in )
 629:Middlewares/ST/STM32_WPAN/ble/core/auto/ble_events.c **** {
 1491              		.loc 1 629 1 view -0
 1492              		.cfi_startproc
 1493              		@ args = 0, pretend = 0, frame = 0
 1494              		@ frame_needed = 0, uses_anonymous_args = 0
 1495              		.loc 1 629 1 is_stmt 0 view .LVU231
 1496 0000 08B5     		push	{r3, lr}
 1497              	.LCFI38:
 1498              		.cfi_def_cfa_offset 8
 1499              		.cfi_offset 3, -8
 1500              		.cfi_offset 14, -4
 630:Middlewares/ST/STM32_WPAN/ble/core/auto/ble_events.c ****   aci_gap_pairing_complete_event_rp0 *rp0 = (void*)in;
 1501              		.loc 1 630 3 is_stmt 1 view .LVU232
 1502              	.LVL120:
 631:Middlewares/ST/STM32_WPAN/ble/core/auto/ble_events.c ****   aci_gap_pairing_complete_event( rp0->Connection_Handle,
ARM GAS  C:\Users\bku598\AppData\Local\Temp\cc3wINKy.s 			page 37


 1503              		.loc 1 631 3 view .LVU233
 1504 0002 C278     		ldrb	r2, [r0, #3]	@ zero_extendqisi2
 1505 0004 8178     		ldrb	r1, [r0, #2]	@ zero_extendqisi2
 1506 0006 0088     		ldrh	r0, [r0]	@ unaligned
 1507              	.LVL121:
 1508              		.loc 1 631 3 is_stmt 0 view .LVU234
 1509 0008 FFF7FEFF 		bl	aci_gap_pairing_complete_event
 1510              	.LVL122:
 632:Middlewares/ST/STM32_WPAN/ble/core/auto/ble_events.c ****                                   rp0->Status,
 633:Middlewares/ST/STM32_WPAN/ble/core/auto/ble_events.c ****                                   rp0->Reason );
 634:Middlewares/ST/STM32_WPAN/ble/core/auto/ble_events.c **** }
 1511              		.loc 1 634 1 view .LVU235
 1512 000c 08BD     		pop	{r3, pc}
 1513              		.cfi_endproc
 1514              	.LFE49:
 1516              		.section	.text.aci_gap_pass_key_req_event,"ax",%progbits
 1517              		.align	1
 1518              		.weak	aci_gap_pass_key_req_event
 1519              		.syntax unified
 1520              		.thumb
 1521              		.thumb_func
 1523              	aci_gap_pass_key_req_event:
 1524              	.LVL123:
 1525              	.LFB50:
 635:Middlewares/ST/STM32_WPAN/ble/core/auto/ble_events.c **** 
 636:Middlewares/ST/STM32_WPAN/ble/core/auto/ble_events.c **** /* ACI_GAP_PASS_KEY_REQ_EVENT callback function */
 637:Middlewares/ST/STM32_WPAN/ble/core/auto/ble_events.c **** __WEAK void aci_gap_pass_key_req_event( uint16_t Connection_Handle )
 638:Middlewares/ST/STM32_WPAN/ble/core/auto/ble_events.c **** {
 1526              		.loc 1 638 1 is_stmt 1 view -0
 1527              		.cfi_startproc
 1528              		@ args = 0, pretend = 0, frame = 0
 1529              		@ frame_needed = 0, uses_anonymous_args = 0
 1530              		@ link register save eliminated.
 639:Middlewares/ST/STM32_WPAN/ble/core/auto/ble_events.c **** }
 1531              		.loc 1 639 1 view .LVU237
 1532 0000 7047     		bx	lr
 1533              		.cfi_endproc
 1534              	.LFE50:
 1536              		.section	.text.aci_gap_pass_key_req_event_process,"ax",%progbits
 1537              		.align	1
 1538              		.syntax unified
 1539              		.thumb
 1540              		.thumb_func
 1542              	aci_gap_pass_key_req_event_process:
 1543              	.LVL124:
 1544              	.LFB51:
 640:Middlewares/ST/STM32_WPAN/ble/core/auto/ble_events.c **** 
 641:Middlewares/ST/STM32_WPAN/ble/core/auto/ble_events.c **** /* ACI_GAP_PASS_KEY_REQ_EVENT process function */
 642:Middlewares/ST/STM32_WPAN/ble/core/auto/ble_events.c **** static void aci_gap_pass_key_req_event_process( const uint8_t* in )
 643:Middlewares/ST/STM32_WPAN/ble/core/auto/ble_events.c **** {
 1545              		.loc 1 643 1 view -0
 1546              		.cfi_startproc
 1547              		@ args = 0, pretend = 0, frame = 0
 1548              		@ frame_needed = 0, uses_anonymous_args = 0
 1549              		.loc 1 643 1 is_stmt 0 view .LVU239
 1550 0000 08B5     		push	{r3, lr}
 1551              	.LCFI39:
ARM GAS  C:\Users\bku598\AppData\Local\Temp\cc3wINKy.s 			page 38


 1552              		.cfi_def_cfa_offset 8
 1553              		.cfi_offset 3, -8
 1554              		.cfi_offset 14, -4
 644:Middlewares/ST/STM32_WPAN/ble/core/auto/ble_events.c ****   aci_gap_pass_key_req_event_rp0 *rp0 = (void*)in;
 1555              		.loc 1 644 3 is_stmt 1 view .LVU240
 1556              	.LVL125:
 645:Middlewares/ST/STM32_WPAN/ble/core/auto/ble_events.c ****   aci_gap_pass_key_req_event( rp0->Connection_Handle );
 1557              		.loc 1 645 3 view .LVU241
 1558 0002 0088     		ldrh	r0, [r0]	@ unaligned
 1559              	.LVL126:
 1560              		.loc 1 645 3 is_stmt 0 view .LVU242
 1561 0004 FFF7FEFF 		bl	aci_gap_pass_key_req_event
 1562              	.LVL127:
 646:Middlewares/ST/STM32_WPAN/ble/core/auto/ble_events.c **** }
 1563              		.loc 1 646 1 view .LVU243
 1564 0008 08BD     		pop	{r3, pc}
 1565              		.cfi_endproc
 1566              	.LFE51:
 1568              		.section	.text.aci_gap_authorization_req_event,"ax",%progbits
 1569              		.align	1
 1570              		.weak	aci_gap_authorization_req_event
 1571              		.syntax unified
 1572              		.thumb
 1573              		.thumb_func
 1575              	aci_gap_authorization_req_event:
 1576              	.LVL128:
 1577              	.LFB52:
 647:Middlewares/ST/STM32_WPAN/ble/core/auto/ble_events.c **** 
 648:Middlewares/ST/STM32_WPAN/ble/core/auto/ble_events.c **** /* ACI_GAP_AUTHORIZATION_REQ_EVENT callback function */
 649:Middlewares/ST/STM32_WPAN/ble/core/auto/ble_events.c **** __WEAK void aci_gap_authorization_req_event( uint16_t Connection_Handle )
 650:Middlewares/ST/STM32_WPAN/ble/core/auto/ble_events.c **** {
 1578              		.loc 1 650 1 is_stmt 1 view -0
 1579              		.cfi_startproc
 1580              		@ args = 0, pretend = 0, frame = 0
 1581              		@ frame_needed = 0, uses_anonymous_args = 0
 1582              		@ link register save eliminated.
 651:Middlewares/ST/STM32_WPAN/ble/core/auto/ble_events.c **** }
 1583              		.loc 1 651 1 view .LVU245
 1584 0000 7047     		bx	lr
 1585              		.cfi_endproc
 1586              	.LFE52:
 1588              		.section	.text.aci_gap_authorization_req_event_process,"ax",%progbits
 1589              		.align	1
 1590              		.syntax unified
 1591              		.thumb
 1592              		.thumb_func
 1594              	aci_gap_authorization_req_event_process:
 1595              	.LVL129:
 1596              	.LFB53:
 652:Middlewares/ST/STM32_WPAN/ble/core/auto/ble_events.c **** 
 653:Middlewares/ST/STM32_WPAN/ble/core/auto/ble_events.c **** /* ACI_GAP_AUTHORIZATION_REQ_EVENT process function */
 654:Middlewares/ST/STM32_WPAN/ble/core/auto/ble_events.c **** static void aci_gap_authorization_req_event_process( const uint8_t* in )
 655:Middlewares/ST/STM32_WPAN/ble/core/auto/ble_events.c **** {
 1597              		.loc 1 655 1 view -0
 1598              		.cfi_startproc
 1599              		@ args = 0, pretend = 0, frame = 0
 1600              		@ frame_needed = 0, uses_anonymous_args = 0
ARM GAS  C:\Users\bku598\AppData\Local\Temp\cc3wINKy.s 			page 39


 1601              		.loc 1 655 1 is_stmt 0 view .LVU247
 1602 0000 08B5     		push	{r3, lr}
 1603              	.LCFI40:
 1604              		.cfi_def_cfa_offset 8
 1605              		.cfi_offset 3, -8
 1606              		.cfi_offset 14, -4
 656:Middlewares/ST/STM32_WPAN/ble/core/auto/ble_events.c ****   aci_gap_authorization_req_event_rp0 *rp0 = (void*)in;
 1607              		.loc 1 656 3 is_stmt 1 view .LVU248
 1608              	.LVL130:
 657:Middlewares/ST/STM32_WPAN/ble/core/auto/ble_events.c ****   aci_gap_authorization_req_event( rp0->Connection_Handle );
 1609              		.loc 1 657 3 view .LVU249
 1610 0002 0088     		ldrh	r0, [r0]	@ unaligned
 1611              	.LVL131:
 1612              		.loc 1 657 3 is_stmt 0 view .LVU250
 1613 0004 FFF7FEFF 		bl	aci_gap_authorization_req_event
 1614              	.LVL132:
 658:Middlewares/ST/STM32_WPAN/ble/core/auto/ble_events.c **** }
 1615              		.loc 1 658 1 view .LVU251
 1616 0008 08BD     		pop	{r3, pc}
 1617              		.cfi_endproc
 1618              	.LFE53:
 1620              		.section	.text.aci_gap_bond_lost_event,"ax",%progbits
 1621              		.align	1
 1622              		.weak	aci_gap_bond_lost_event
 1623              		.syntax unified
 1624              		.thumb
 1625              		.thumb_func
 1627              	aci_gap_bond_lost_event:
 1628              	.LVL133:
 1629              	.LFB54:
 659:Middlewares/ST/STM32_WPAN/ble/core/auto/ble_events.c **** 
 660:Middlewares/ST/STM32_WPAN/ble/core/auto/ble_events.c **** /* ACI_GAP_BOND_LOST_EVENT callback function */
 661:Middlewares/ST/STM32_WPAN/ble/core/auto/ble_events.c **** __WEAK void aci_gap_bond_lost_event( uint16_t Connection_Handle )
 662:Middlewares/ST/STM32_WPAN/ble/core/auto/ble_events.c **** {
 1630              		.loc 1 662 1 is_stmt 1 view -0
 1631              		.cfi_startproc
 1632              		@ args = 0, pretend = 0, frame = 0
 1633              		@ frame_needed = 0, uses_anonymous_args = 0
 1634              		@ link register save eliminated.
 663:Middlewares/ST/STM32_WPAN/ble/core/auto/ble_events.c **** }
 1635              		.loc 1 663 1 view .LVU253
 1636 0000 7047     		bx	lr
 1637              		.cfi_endproc
 1638              	.LFE54:
 1640              		.section	.text.aci_gap_bond_lost_event_process,"ax",%progbits
 1641              		.align	1
 1642              		.syntax unified
 1643              		.thumb
 1644              		.thumb_func
 1646              	aci_gap_bond_lost_event_process:
 1647              	.LVL134:
 1648              	.LFB55:
 664:Middlewares/ST/STM32_WPAN/ble/core/auto/ble_events.c **** 
 665:Middlewares/ST/STM32_WPAN/ble/core/auto/ble_events.c **** /* ACI_GAP_BOND_LOST_EVENT process function */
 666:Middlewares/ST/STM32_WPAN/ble/core/auto/ble_events.c **** static void aci_gap_bond_lost_event_process( const uint8_t* in )
 667:Middlewares/ST/STM32_WPAN/ble/core/auto/ble_events.c **** {
 1649              		.loc 1 667 1 view -0
ARM GAS  C:\Users\bku598\AppData\Local\Temp\cc3wINKy.s 			page 40


 1650              		.cfi_startproc
 1651              		@ args = 0, pretend = 0, frame = 0
 1652              		@ frame_needed = 0, uses_anonymous_args = 0
 1653              		.loc 1 667 1 is_stmt 0 view .LVU255
 1654 0000 08B5     		push	{r3, lr}
 1655              	.LCFI41:
 1656              		.cfi_def_cfa_offset 8
 1657              		.cfi_offset 3, -8
 1658              		.cfi_offset 14, -4
 668:Middlewares/ST/STM32_WPAN/ble/core/auto/ble_events.c ****   aci_gap_bond_lost_event_rp0 *rp0 = (void*)in;
 1659              		.loc 1 668 3 is_stmt 1 view .LVU256
 1660              	.LVL135:
 669:Middlewares/ST/STM32_WPAN/ble/core/auto/ble_events.c ****   aci_gap_bond_lost_event( rp0->Connection_Handle );
 1661              		.loc 1 669 3 view .LVU257
 1662 0002 0088     		ldrh	r0, [r0]	@ unaligned
 1663              	.LVL136:
 1664              		.loc 1 669 3 is_stmt 0 view .LVU258
 1665 0004 FFF7FEFF 		bl	aci_gap_bond_lost_event
 1666              	.LVL137:
 670:Middlewares/ST/STM32_WPAN/ble/core/auto/ble_events.c **** }
 1667              		.loc 1 670 1 view .LVU259
 1668 0008 08BD     		pop	{r3, pc}
 1669              		.cfi_endproc
 1670              	.LFE55:
 1672              		.section	.text.aci_gap_proc_complete_event,"ax",%progbits
 1673              		.align	1
 1674              		.weak	aci_gap_proc_complete_event
 1675              		.syntax unified
 1676              		.thumb
 1677              		.thumb_func
 1679              	aci_gap_proc_complete_event:
 1680              	.LVL138:
 1681              	.LFB56:
 671:Middlewares/ST/STM32_WPAN/ble/core/auto/ble_events.c **** 
 672:Middlewares/ST/STM32_WPAN/ble/core/auto/ble_events.c **** /* ACI_GAP_PROC_COMPLETE_EVENT callback function */
 673:Middlewares/ST/STM32_WPAN/ble/core/auto/ble_events.c **** __WEAK void aci_gap_proc_complete_event( uint8_t Procedure_Code,
 674:Middlewares/ST/STM32_WPAN/ble/core/auto/ble_events.c ****                                          uint8_t Status,
 675:Middlewares/ST/STM32_WPAN/ble/core/auto/ble_events.c ****                                          uint8_t Data_Length,
 676:Middlewares/ST/STM32_WPAN/ble/core/auto/ble_events.c ****                                          const uint8_t* Data )
 677:Middlewares/ST/STM32_WPAN/ble/core/auto/ble_events.c **** {
 1682              		.loc 1 677 1 is_stmt 1 view -0
 1683              		.cfi_startproc
 1684              		@ args = 0, pretend = 0, frame = 0
 1685              		@ frame_needed = 0, uses_anonymous_args = 0
 1686              		@ link register save eliminated.
 678:Middlewares/ST/STM32_WPAN/ble/core/auto/ble_events.c **** }
 1687              		.loc 1 678 1 view .LVU261
 1688 0000 7047     		bx	lr
 1689              		.cfi_endproc
 1690              	.LFE56:
 1692              		.section	.text.aci_gap_proc_complete_event_process,"ax",%progbits
 1693              		.align	1
 1694              		.syntax unified
 1695              		.thumb
 1696              		.thumb_func
 1698              	aci_gap_proc_complete_event_process:
 1699              	.LVL139:
ARM GAS  C:\Users\bku598\AppData\Local\Temp\cc3wINKy.s 			page 41


 1700              	.LFB57:
 679:Middlewares/ST/STM32_WPAN/ble/core/auto/ble_events.c **** 
 680:Middlewares/ST/STM32_WPAN/ble/core/auto/ble_events.c **** /* ACI_GAP_PROC_COMPLETE_EVENT process function */
 681:Middlewares/ST/STM32_WPAN/ble/core/auto/ble_events.c **** static void aci_gap_proc_complete_event_process( const uint8_t* in )
 682:Middlewares/ST/STM32_WPAN/ble/core/auto/ble_events.c **** {
 1701              		.loc 1 682 1 view -0
 1702              		.cfi_startproc
 1703              		@ args = 0, pretend = 0, frame = 0
 1704              		@ frame_needed = 0, uses_anonymous_args = 0
 1705              		.loc 1 682 1 is_stmt 0 view .LVU263
 1706 0000 08B5     		push	{r3, lr}
 1707              	.LCFI42:
 1708              		.cfi_def_cfa_offset 8
 1709              		.cfi_offset 3, -8
 1710              		.cfi_offset 14, -4
 683:Middlewares/ST/STM32_WPAN/ble/core/auto/ble_events.c ****   aci_gap_proc_complete_event_rp0 *rp0 = (void*)in;
 1711              		.loc 1 683 3 is_stmt 1 view .LVU264
 1712              	.LVL140:
 684:Middlewares/ST/STM32_WPAN/ble/core/auto/ble_events.c ****   aci_gap_proc_complete_event( rp0->Procedure_Code,
 1713              		.loc 1 684 3 view .LVU265
 1714 0002 C31C     		adds	r3, r0, #3
 1715 0004 8278     		ldrb	r2, [r0, #2]	@ zero_extendqisi2
 1716 0006 4178     		ldrb	r1, [r0, #1]	@ zero_extendqisi2
 1717 0008 0078     		ldrb	r0, [r0]	@ zero_extendqisi2
 1718              	.LVL141:
 1719              		.loc 1 684 3 is_stmt 0 view .LVU266
 1720 000a FFF7FEFF 		bl	aci_gap_proc_complete_event
 1721              	.LVL142:
 685:Middlewares/ST/STM32_WPAN/ble/core/auto/ble_events.c ****                                rp0->Status,
 686:Middlewares/ST/STM32_WPAN/ble/core/auto/ble_events.c ****                                rp0->Data_Length,
 687:Middlewares/ST/STM32_WPAN/ble/core/auto/ble_events.c ****                                rp0->Data );
 688:Middlewares/ST/STM32_WPAN/ble/core/auto/ble_events.c **** }
 1722              		.loc 1 688 1 view .LVU267
 1723 000e 08BD     		pop	{r3, pc}
 1724              		.cfi_endproc
 1725              	.LFE57:
 1727              		.section	.text.aci_gap_addr_not_resolved_event,"ax",%progbits
 1728              		.align	1
 1729              		.weak	aci_gap_addr_not_resolved_event
 1730              		.syntax unified
 1731              		.thumb
 1732              		.thumb_func
 1734              	aci_gap_addr_not_resolved_event:
 1735              	.LVL143:
 1736              	.LFB58:
 689:Middlewares/ST/STM32_WPAN/ble/core/auto/ble_events.c **** 
 690:Middlewares/ST/STM32_WPAN/ble/core/auto/ble_events.c **** /* ACI_GAP_ADDR_NOT_RESOLVED_EVENT callback function */
 691:Middlewares/ST/STM32_WPAN/ble/core/auto/ble_events.c **** __WEAK void aci_gap_addr_not_resolved_event( uint16_t Connection_Handle )
 692:Middlewares/ST/STM32_WPAN/ble/core/auto/ble_events.c **** {
 1737              		.loc 1 692 1 is_stmt 1 view -0
 1738              		.cfi_startproc
 1739              		@ args = 0, pretend = 0, frame = 0
 1740              		@ frame_needed = 0, uses_anonymous_args = 0
 1741              		@ link register save eliminated.
 693:Middlewares/ST/STM32_WPAN/ble/core/auto/ble_events.c **** }
 1742              		.loc 1 693 1 view .LVU269
 1743 0000 7047     		bx	lr
ARM GAS  C:\Users\bku598\AppData\Local\Temp\cc3wINKy.s 			page 42


 1744              		.cfi_endproc
 1745              	.LFE58:
 1747              		.section	.text.aci_gap_addr_not_resolved_event_process,"ax",%progbits
 1748              		.align	1
 1749              		.syntax unified
 1750              		.thumb
 1751              		.thumb_func
 1753              	aci_gap_addr_not_resolved_event_process:
 1754              	.LVL144:
 1755              	.LFB59:
 694:Middlewares/ST/STM32_WPAN/ble/core/auto/ble_events.c **** 
 695:Middlewares/ST/STM32_WPAN/ble/core/auto/ble_events.c **** /* ACI_GAP_ADDR_NOT_RESOLVED_EVENT process function */
 696:Middlewares/ST/STM32_WPAN/ble/core/auto/ble_events.c **** static void aci_gap_addr_not_resolved_event_process( const uint8_t* in )
 697:Middlewares/ST/STM32_WPAN/ble/core/auto/ble_events.c **** {
 1756              		.loc 1 697 1 view -0
 1757              		.cfi_startproc
 1758              		@ args = 0, pretend = 0, frame = 0
 1759              		@ frame_needed = 0, uses_anonymous_args = 0
 1760              		.loc 1 697 1 is_stmt 0 view .LVU271
 1761 0000 08B5     		push	{r3, lr}
 1762              	.LCFI43:
 1763              		.cfi_def_cfa_offset 8
 1764              		.cfi_offset 3, -8
 1765              		.cfi_offset 14, -4
 698:Middlewares/ST/STM32_WPAN/ble/core/auto/ble_events.c ****   aci_gap_addr_not_resolved_event_rp0 *rp0 = (void*)in;
 1766              		.loc 1 698 3 is_stmt 1 view .LVU272
 1767              	.LVL145:
 699:Middlewares/ST/STM32_WPAN/ble/core/auto/ble_events.c ****   aci_gap_addr_not_resolved_event( rp0->Connection_Handle );
 1768              		.loc 1 699 3 view .LVU273
 1769 0002 0088     		ldrh	r0, [r0]	@ unaligned
 1770              	.LVL146:
 1771              		.loc 1 699 3 is_stmt 0 view .LVU274
 1772 0004 FFF7FEFF 		bl	aci_gap_addr_not_resolved_event
 1773              	.LVL147:
 700:Middlewares/ST/STM32_WPAN/ble/core/auto/ble_events.c **** }
 1774              		.loc 1 700 1 view .LVU275
 1775 0008 08BD     		pop	{r3, pc}
 1776              		.cfi_endproc
 1777              	.LFE59:
 1779              		.section	.text.aci_gap_numeric_comparison_value_event,"ax",%progbits
 1780              		.align	1
 1781              		.weak	aci_gap_numeric_comparison_value_event
 1782              		.syntax unified
 1783              		.thumb
 1784              		.thumb_func
 1786              	aci_gap_numeric_comparison_value_event:
 1787              	.LVL148:
 1788              	.LFB60:
 701:Middlewares/ST/STM32_WPAN/ble/core/auto/ble_events.c **** 
 702:Middlewares/ST/STM32_WPAN/ble/core/auto/ble_events.c **** /* ACI_GAP_NUMERIC_COMPARISON_VALUE_EVENT callback function */
 703:Middlewares/ST/STM32_WPAN/ble/core/auto/ble_events.c **** __WEAK void aci_gap_numeric_comparison_value_event( uint16_t Connection_Handle,
 704:Middlewares/ST/STM32_WPAN/ble/core/auto/ble_events.c ****                                                     uint32_t Numeric_Value )
 705:Middlewares/ST/STM32_WPAN/ble/core/auto/ble_events.c **** {
 1789              		.loc 1 705 1 is_stmt 1 view -0
 1790              		.cfi_startproc
 1791              		@ args = 0, pretend = 0, frame = 0
 1792              		@ frame_needed = 0, uses_anonymous_args = 0
ARM GAS  C:\Users\bku598\AppData\Local\Temp\cc3wINKy.s 			page 43


 1793              		@ link register save eliminated.
 706:Middlewares/ST/STM32_WPAN/ble/core/auto/ble_events.c **** }
 1794              		.loc 1 706 1 view .LVU277
 1795 0000 7047     		bx	lr
 1796              		.cfi_endproc
 1797              	.LFE60:
 1799              		.section	.text.aci_gap_numeric_comparison_value_event_process,"ax",%progbits
 1800              		.align	1
 1801              		.syntax unified
 1802              		.thumb
 1803              		.thumb_func
 1805              	aci_gap_numeric_comparison_value_event_process:
 1806              	.LVL149:
 1807              	.LFB61:
 707:Middlewares/ST/STM32_WPAN/ble/core/auto/ble_events.c **** 
 708:Middlewares/ST/STM32_WPAN/ble/core/auto/ble_events.c **** /* ACI_GAP_NUMERIC_COMPARISON_VALUE_EVENT process function */
 709:Middlewares/ST/STM32_WPAN/ble/core/auto/ble_events.c **** static void aci_gap_numeric_comparison_value_event_process( const uint8_t* in )
 710:Middlewares/ST/STM32_WPAN/ble/core/auto/ble_events.c **** {
 1808              		.loc 1 710 1 view -0
 1809              		.cfi_startproc
 1810              		@ args = 0, pretend = 0, frame = 0
 1811              		@ frame_needed = 0, uses_anonymous_args = 0
 1812              		.loc 1 710 1 is_stmt 0 view .LVU279
 1813 0000 08B5     		push	{r3, lr}
 1814              	.LCFI44:
 1815              		.cfi_def_cfa_offset 8
 1816              		.cfi_offset 3, -8
 1817              		.cfi_offset 14, -4
 711:Middlewares/ST/STM32_WPAN/ble/core/auto/ble_events.c ****   aci_gap_numeric_comparison_value_event_rp0 *rp0 = (void*)in;
 1818              		.loc 1 711 3 is_stmt 1 view .LVU280
 1819              	.LVL150:
 712:Middlewares/ST/STM32_WPAN/ble/core/auto/ble_events.c ****   aci_gap_numeric_comparison_value_event( rp0->Connection_Handle,
 1820              		.loc 1 712 3 view .LVU281
 1821 0002 D0F80210 		ldr	r1, [r0, #2]	@ unaligned
 1822 0006 0088     		ldrh	r0, [r0]	@ unaligned
 1823              	.LVL151:
 1824              		.loc 1 712 3 is_stmt 0 view .LVU282
 1825 0008 FFF7FEFF 		bl	aci_gap_numeric_comparison_value_event
 1826              	.LVL152:
 713:Middlewares/ST/STM32_WPAN/ble/core/auto/ble_events.c ****                                           rp0->Numeric_Value );
 714:Middlewares/ST/STM32_WPAN/ble/core/auto/ble_events.c **** }
 1827              		.loc 1 714 1 view .LVU283
 1828 000c 08BD     		pop	{r3, pc}
 1829              		.cfi_endproc
 1830              	.LFE61:
 1832              		.section	.text.aci_gap_keypress_notification_event,"ax",%progbits
 1833              		.align	1
 1834              		.weak	aci_gap_keypress_notification_event
 1835              		.syntax unified
 1836              		.thumb
 1837              		.thumb_func
 1839              	aci_gap_keypress_notification_event:
 1840              	.LVL153:
 1841              	.LFB62:
 715:Middlewares/ST/STM32_WPAN/ble/core/auto/ble_events.c **** 
 716:Middlewares/ST/STM32_WPAN/ble/core/auto/ble_events.c **** /* ACI_GAP_KEYPRESS_NOTIFICATION_EVENT callback function */
 717:Middlewares/ST/STM32_WPAN/ble/core/auto/ble_events.c **** __WEAK void aci_gap_keypress_notification_event( uint16_t Connection_Handle,
ARM GAS  C:\Users\bku598\AppData\Local\Temp\cc3wINKy.s 			page 44


 718:Middlewares/ST/STM32_WPAN/ble/core/auto/ble_events.c ****                                                  uint8_t Notification_Type )
 719:Middlewares/ST/STM32_WPAN/ble/core/auto/ble_events.c **** {
 1842              		.loc 1 719 1 is_stmt 1 view -0
 1843              		.cfi_startproc
 1844              		@ args = 0, pretend = 0, frame = 0
 1845              		@ frame_needed = 0, uses_anonymous_args = 0
 1846              		@ link register save eliminated.
 720:Middlewares/ST/STM32_WPAN/ble/core/auto/ble_events.c **** }
 1847              		.loc 1 720 1 view .LVU285
 1848 0000 7047     		bx	lr
 1849              		.cfi_endproc
 1850              	.LFE62:
 1852              		.section	.text.aci_gap_keypress_notification_event_process,"ax",%progbits
 1853              		.align	1
 1854              		.syntax unified
 1855              		.thumb
 1856              		.thumb_func
 1858              	aci_gap_keypress_notification_event_process:
 1859              	.LVL154:
 1860              	.LFB63:
 721:Middlewares/ST/STM32_WPAN/ble/core/auto/ble_events.c **** 
 722:Middlewares/ST/STM32_WPAN/ble/core/auto/ble_events.c **** /* ACI_GAP_KEYPRESS_NOTIFICATION_EVENT process function */
 723:Middlewares/ST/STM32_WPAN/ble/core/auto/ble_events.c **** static void aci_gap_keypress_notification_event_process( const uint8_t* in )
 724:Middlewares/ST/STM32_WPAN/ble/core/auto/ble_events.c **** {
 1861              		.loc 1 724 1 view -0
 1862              		.cfi_startproc
 1863              		@ args = 0, pretend = 0, frame = 0
 1864              		@ frame_needed = 0, uses_anonymous_args = 0
 1865              		.loc 1 724 1 is_stmt 0 view .LVU287
 1866 0000 08B5     		push	{r3, lr}
 1867              	.LCFI45:
 1868              		.cfi_def_cfa_offset 8
 1869              		.cfi_offset 3, -8
 1870              		.cfi_offset 14, -4
 725:Middlewares/ST/STM32_WPAN/ble/core/auto/ble_events.c ****   aci_gap_keypress_notification_event_rp0 *rp0 = (void*)in;
 1871              		.loc 1 725 3 is_stmt 1 view .LVU288
 1872              	.LVL155:
 726:Middlewares/ST/STM32_WPAN/ble/core/auto/ble_events.c ****   aci_gap_keypress_notification_event( rp0->Connection_Handle,
 1873              		.loc 1 726 3 view .LVU289
 1874 0002 8178     		ldrb	r1, [r0, #2]	@ zero_extendqisi2
 1875 0004 0088     		ldrh	r0, [r0]	@ unaligned
 1876              	.LVL156:
 1877              		.loc 1 726 3 is_stmt 0 view .LVU290
 1878 0006 FFF7FEFF 		bl	aci_gap_keypress_notification_event
 1879              	.LVL157:
 727:Middlewares/ST/STM32_WPAN/ble/core/auto/ble_events.c ****                                        rp0->Notification_Type );
 728:Middlewares/ST/STM32_WPAN/ble/core/auto/ble_events.c **** }
 1880              		.loc 1 728 1 view .LVU291
 1881 000a 08BD     		pop	{r3, pc}
 1882              		.cfi_endproc
 1883              	.LFE63:
 1885              		.section	.text.aci_gap_pairing_request_event,"ax",%progbits
 1886              		.align	1
 1887              		.weak	aci_gap_pairing_request_event
 1888              		.syntax unified
 1889              		.thumb
 1890              		.thumb_func
ARM GAS  C:\Users\bku598\AppData\Local\Temp\cc3wINKy.s 			page 45


 1892              	aci_gap_pairing_request_event:
 1893              	.LVL158:
 1894              	.LFB64:
 729:Middlewares/ST/STM32_WPAN/ble/core/auto/ble_events.c **** 
 730:Middlewares/ST/STM32_WPAN/ble/core/auto/ble_events.c **** /* ACI_GAP_PAIRING_REQUEST_EVENT callback function */
 731:Middlewares/ST/STM32_WPAN/ble/core/auto/ble_events.c **** __WEAK void aci_gap_pairing_request_event( uint16_t Connection_Handle,
 732:Middlewares/ST/STM32_WPAN/ble/core/auto/ble_events.c ****                                            uint8_t Bonded,
 733:Middlewares/ST/STM32_WPAN/ble/core/auto/ble_events.c ****                                            uint8_t Auth_Req )
 734:Middlewares/ST/STM32_WPAN/ble/core/auto/ble_events.c **** {
 1895              		.loc 1 734 1 is_stmt 1 view -0
 1896              		.cfi_startproc
 1897              		@ args = 0, pretend = 0, frame = 0
 1898              		@ frame_needed = 0, uses_anonymous_args = 0
 1899              		@ link register save eliminated.
 735:Middlewares/ST/STM32_WPAN/ble/core/auto/ble_events.c **** }
 1900              		.loc 1 735 1 view .LVU293
 1901 0000 7047     		bx	lr
 1902              		.cfi_endproc
 1903              	.LFE64:
 1905              		.section	.text.aci_gap_pairing_request_event_process,"ax",%progbits
 1906              		.align	1
 1907              		.syntax unified
 1908              		.thumb
 1909              		.thumb_func
 1911              	aci_gap_pairing_request_event_process:
 1912              	.LVL159:
 1913              	.LFB65:
 736:Middlewares/ST/STM32_WPAN/ble/core/auto/ble_events.c **** 
 737:Middlewares/ST/STM32_WPAN/ble/core/auto/ble_events.c **** /* ACI_GAP_PAIRING_REQUEST_EVENT process function */
 738:Middlewares/ST/STM32_WPAN/ble/core/auto/ble_events.c **** static void aci_gap_pairing_request_event_process( const uint8_t* in )
 739:Middlewares/ST/STM32_WPAN/ble/core/auto/ble_events.c **** {
 1914              		.loc 1 739 1 view -0
 1915              		.cfi_startproc
 1916              		@ args = 0, pretend = 0, frame = 0
 1917              		@ frame_needed = 0, uses_anonymous_args = 0
 1918              		.loc 1 739 1 is_stmt 0 view .LVU295
 1919 0000 08B5     		push	{r3, lr}
 1920              	.LCFI46:
 1921              		.cfi_def_cfa_offset 8
 1922              		.cfi_offset 3, -8
 1923              		.cfi_offset 14, -4
 740:Middlewares/ST/STM32_WPAN/ble/core/auto/ble_events.c ****   aci_gap_pairing_request_event_rp0 *rp0 = (void*)in;
 1924              		.loc 1 740 3 is_stmt 1 view .LVU296
 1925              	.LVL160:
 741:Middlewares/ST/STM32_WPAN/ble/core/auto/ble_events.c ****   aci_gap_pairing_request_event( rp0->Connection_Handle,
 1926              		.loc 1 741 3 view .LVU297
 1927 0002 C278     		ldrb	r2, [r0, #3]	@ zero_extendqisi2
 1928 0004 8178     		ldrb	r1, [r0, #2]	@ zero_extendqisi2
 1929 0006 0088     		ldrh	r0, [r0]	@ unaligned
 1930              	.LVL161:
 1931              		.loc 1 741 3 is_stmt 0 view .LVU298
 1932 0008 FFF7FEFF 		bl	aci_gap_pairing_request_event
 1933              	.LVL162:
 742:Middlewares/ST/STM32_WPAN/ble/core/auto/ble_events.c ****                                  rp0->Bonded,
 743:Middlewares/ST/STM32_WPAN/ble/core/auto/ble_events.c ****                                  rp0->Auth_Req );
 744:Middlewares/ST/STM32_WPAN/ble/core/auto/ble_events.c **** }
 1934              		.loc 1 744 1 view .LVU299
ARM GAS  C:\Users\bku598\AppData\Local\Temp\cc3wINKy.s 			page 46


 1935 000c 08BD     		pop	{r3, pc}
 1936              		.cfi_endproc
 1937              	.LFE65:
 1939              		.section	.text.aci_l2cap_connection_update_resp_event,"ax",%progbits
 1940              		.align	1
 1941              		.weak	aci_l2cap_connection_update_resp_event
 1942              		.syntax unified
 1943              		.thumb
 1944              		.thumb_func
 1946              	aci_l2cap_connection_update_resp_event:
 1947              	.LVL163:
 1948              	.LFB66:
 745:Middlewares/ST/STM32_WPAN/ble/core/auto/ble_events.c **** 
 746:Middlewares/ST/STM32_WPAN/ble/core/auto/ble_events.c **** /* ACI_L2CAP_CONNECTION_UPDATE_RESP_EVENT callback function */
 747:Middlewares/ST/STM32_WPAN/ble/core/auto/ble_events.c **** __WEAK void aci_l2cap_connection_update_resp_event( uint16_t Connection_Handle,
 748:Middlewares/ST/STM32_WPAN/ble/core/auto/ble_events.c ****                                                     uint16_t Result )
 749:Middlewares/ST/STM32_WPAN/ble/core/auto/ble_events.c **** {
 1949              		.loc 1 749 1 is_stmt 1 view -0
 1950              		.cfi_startproc
 1951              		@ args = 0, pretend = 0, frame = 0
 1952              		@ frame_needed = 0, uses_anonymous_args = 0
 1953              		@ link register save eliminated.
 750:Middlewares/ST/STM32_WPAN/ble/core/auto/ble_events.c **** }
 1954              		.loc 1 750 1 view .LVU301
 1955 0000 7047     		bx	lr
 1956              		.cfi_endproc
 1957              	.LFE66:
 1959              		.section	.text.aci_l2cap_connection_update_resp_event_process,"ax",%progbits
 1960              		.align	1
 1961              		.syntax unified
 1962              		.thumb
 1963              		.thumb_func
 1965              	aci_l2cap_connection_update_resp_event_process:
 1966              	.LVL164:
 1967              	.LFB67:
 751:Middlewares/ST/STM32_WPAN/ble/core/auto/ble_events.c **** 
 752:Middlewares/ST/STM32_WPAN/ble/core/auto/ble_events.c **** /* ACI_L2CAP_CONNECTION_UPDATE_RESP_EVENT process function */
 753:Middlewares/ST/STM32_WPAN/ble/core/auto/ble_events.c **** static void aci_l2cap_connection_update_resp_event_process( const uint8_t* in )
 754:Middlewares/ST/STM32_WPAN/ble/core/auto/ble_events.c **** {
 1968              		.loc 1 754 1 view -0
 1969              		.cfi_startproc
 1970              		@ args = 0, pretend = 0, frame = 0
 1971              		@ frame_needed = 0, uses_anonymous_args = 0
 1972              		.loc 1 754 1 is_stmt 0 view .LVU303
 1973 0000 08B5     		push	{r3, lr}
 1974              	.LCFI47:
 1975              		.cfi_def_cfa_offset 8
 1976              		.cfi_offset 3, -8
 1977              		.cfi_offset 14, -4
 755:Middlewares/ST/STM32_WPAN/ble/core/auto/ble_events.c ****   aci_l2cap_connection_update_resp_event_rp0 *rp0 = (void*)in;
 1978              		.loc 1 755 3 is_stmt 1 view .LVU304
 1979              	.LVL165:
 756:Middlewares/ST/STM32_WPAN/ble/core/auto/ble_events.c ****   aci_l2cap_connection_update_resp_event( rp0->Connection_Handle,
 1980              		.loc 1 756 3 view .LVU305
 1981 0002 4188     		ldrh	r1, [r0, #2]	@ unaligned
 1982 0004 0088     		ldrh	r0, [r0]	@ unaligned
 1983              	.LVL166:
ARM GAS  C:\Users\bku598\AppData\Local\Temp\cc3wINKy.s 			page 47


 1984              		.loc 1 756 3 is_stmt 0 view .LVU306
 1985 0006 FFF7FEFF 		bl	aci_l2cap_connection_update_resp_event
 1986              	.LVL167:
 757:Middlewares/ST/STM32_WPAN/ble/core/auto/ble_events.c ****                                           rp0->Result );
 758:Middlewares/ST/STM32_WPAN/ble/core/auto/ble_events.c **** }
 1987              		.loc 1 758 1 view .LVU307
 1988 000a 08BD     		pop	{r3, pc}
 1989              		.cfi_endproc
 1990              	.LFE67:
 1992              		.section	.text.aci_l2cap_proc_timeout_event,"ax",%progbits
 1993              		.align	1
 1994              		.weak	aci_l2cap_proc_timeout_event
 1995              		.syntax unified
 1996              		.thumb
 1997              		.thumb_func
 1999              	aci_l2cap_proc_timeout_event:
 2000              	.LVL168:
 2001              	.LFB68:
 759:Middlewares/ST/STM32_WPAN/ble/core/auto/ble_events.c **** 
 760:Middlewares/ST/STM32_WPAN/ble/core/auto/ble_events.c **** /* ACI_L2CAP_PROC_TIMEOUT_EVENT callback function */
 761:Middlewares/ST/STM32_WPAN/ble/core/auto/ble_events.c **** __WEAK void aci_l2cap_proc_timeout_event( uint16_t Connection_Handle,
 762:Middlewares/ST/STM32_WPAN/ble/core/auto/ble_events.c ****                                           uint8_t Data_Length,
 763:Middlewares/ST/STM32_WPAN/ble/core/auto/ble_events.c ****                                           const uint8_t* Data )
 764:Middlewares/ST/STM32_WPAN/ble/core/auto/ble_events.c **** {
 2002              		.loc 1 764 1 is_stmt 1 view -0
 2003              		.cfi_startproc
 2004              		@ args = 0, pretend = 0, frame = 0
 2005              		@ frame_needed = 0, uses_anonymous_args = 0
 2006              		@ link register save eliminated.
 765:Middlewares/ST/STM32_WPAN/ble/core/auto/ble_events.c **** }
 2007              		.loc 1 765 1 view .LVU309
 2008 0000 7047     		bx	lr
 2009              		.cfi_endproc
 2010              	.LFE68:
 2012              		.section	.text.aci_l2cap_proc_timeout_event_process,"ax",%progbits
 2013              		.align	1
 2014              		.syntax unified
 2015              		.thumb
 2016              		.thumb_func
 2018              	aci_l2cap_proc_timeout_event_process:
 2019              	.LVL169:
 2020              	.LFB69:
 766:Middlewares/ST/STM32_WPAN/ble/core/auto/ble_events.c **** 
 767:Middlewares/ST/STM32_WPAN/ble/core/auto/ble_events.c **** /* ACI_L2CAP_PROC_TIMEOUT_EVENT process function */
 768:Middlewares/ST/STM32_WPAN/ble/core/auto/ble_events.c **** static void aci_l2cap_proc_timeout_event_process( const uint8_t* in )
 769:Middlewares/ST/STM32_WPAN/ble/core/auto/ble_events.c **** {
 2021              		.loc 1 769 1 view -0
 2022              		.cfi_startproc
 2023              		@ args = 0, pretend = 0, frame = 0
 2024              		@ frame_needed = 0, uses_anonymous_args = 0
 2025              		.loc 1 769 1 is_stmt 0 view .LVU311
 2026 0000 08B5     		push	{r3, lr}
 2027              	.LCFI48:
 2028              		.cfi_def_cfa_offset 8
 2029              		.cfi_offset 3, -8
 2030              		.cfi_offset 14, -4
 770:Middlewares/ST/STM32_WPAN/ble/core/auto/ble_events.c ****   aci_l2cap_proc_timeout_event_rp0 *rp0 = (void*)in;
ARM GAS  C:\Users\bku598\AppData\Local\Temp\cc3wINKy.s 			page 48


 2031              		.loc 1 770 3 is_stmt 1 view .LVU312
 2032              	.LVL170:
 771:Middlewares/ST/STM32_WPAN/ble/core/auto/ble_events.c ****   aci_l2cap_proc_timeout_event( rp0->Connection_Handle,
 2033              		.loc 1 771 3 view .LVU313
 2034 0002 C21C     		adds	r2, r0, #3
 2035 0004 8178     		ldrb	r1, [r0, #2]	@ zero_extendqisi2
 2036 0006 0088     		ldrh	r0, [r0]	@ unaligned
 2037              	.LVL171:
 2038              		.loc 1 771 3 is_stmt 0 view .LVU314
 2039 0008 FFF7FEFF 		bl	aci_l2cap_proc_timeout_event
 2040              	.LVL172:
 772:Middlewares/ST/STM32_WPAN/ble/core/auto/ble_events.c ****                                 rp0->Data_Length,
 773:Middlewares/ST/STM32_WPAN/ble/core/auto/ble_events.c ****                                 rp0->Data );
 774:Middlewares/ST/STM32_WPAN/ble/core/auto/ble_events.c **** }
 2041              		.loc 1 774 1 view .LVU315
 2042 000c 08BD     		pop	{r3, pc}
 2043              		.cfi_endproc
 2044              	.LFE69:
 2046              		.section	.text.aci_l2cap_connection_update_req_event,"ax",%progbits
 2047              		.align	1
 2048              		.weak	aci_l2cap_connection_update_req_event
 2049              		.syntax unified
 2050              		.thumb
 2051              		.thumb_func
 2053              	aci_l2cap_connection_update_req_event:
 2054              	.LVL173:
 2055              	.LFB70:
 775:Middlewares/ST/STM32_WPAN/ble/core/auto/ble_events.c **** 
 776:Middlewares/ST/STM32_WPAN/ble/core/auto/ble_events.c **** /* ACI_L2CAP_CONNECTION_UPDATE_REQ_EVENT callback function */
 777:Middlewares/ST/STM32_WPAN/ble/core/auto/ble_events.c **** __WEAK void aci_l2cap_connection_update_req_event( uint16_t Connection_Handle,
 778:Middlewares/ST/STM32_WPAN/ble/core/auto/ble_events.c ****                                                    uint8_t Identifier,
 779:Middlewares/ST/STM32_WPAN/ble/core/auto/ble_events.c ****                                                    uint16_t L2CAP_Length,
 780:Middlewares/ST/STM32_WPAN/ble/core/auto/ble_events.c ****                                                    uint16_t Interval_Min,
 781:Middlewares/ST/STM32_WPAN/ble/core/auto/ble_events.c ****                                                    uint16_t Interval_Max,
 782:Middlewares/ST/STM32_WPAN/ble/core/auto/ble_events.c ****                                                    uint16_t Latency,
 783:Middlewares/ST/STM32_WPAN/ble/core/auto/ble_events.c ****                                                    uint16_t Timeout_Multiplier )
 784:Middlewares/ST/STM32_WPAN/ble/core/auto/ble_events.c **** {
 2056              		.loc 1 784 1 is_stmt 1 view -0
 2057              		.cfi_startproc
 2058              		@ args = 12, pretend = 0, frame = 0
 2059              		@ frame_needed = 0, uses_anonymous_args = 0
 2060              		@ link register save eliminated.
 785:Middlewares/ST/STM32_WPAN/ble/core/auto/ble_events.c **** }
 2061              		.loc 1 785 1 view .LVU317
 2062 0000 7047     		bx	lr
 2063              		.cfi_endproc
 2064              	.LFE70:
 2066              		.section	.text.aci_l2cap_connection_update_req_event_process,"ax",%progbits
 2067              		.align	1
 2068              		.syntax unified
 2069              		.thumb
 2070              		.thumb_func
 2072              	aci_l2cap_connection_update_req_event_process:
 2073              	.LVL174:
 2074              	.LFB71:
 786:Middlewares/ST/STM32_WPAN/ble/core/auto/ble_events.c **** 
 787:Middlewares/ST/STM32_WPAN/ble/core/auto/ble_events.c **** /* ACI_L2CAP_CONNECTION_UPDATE_REQ_EVENT process function */
ARM GAS  C:\Users\bku598\AppData\Local\Temp\cc3wINKy.s 			page 49


 788:Middlewares/ST/STM32_WPAN/ble/core/auto/ble_events.c **** static void aci_l2cap_connection_update_req_event_process( const uint8_t* in )
 789:Middlewares/ST/STM32_WPAN/ble/core/auto/ble_events.c **** {
 2075              		.loc 1 789 1 view -0
 2076              		.cfi_startproc
 2077              		@ args = 0, pretend = 0, frame = 0
 2078              		@ frame_needed = 0, uses_anonymous_args = 0
 2079              		.loc 1 789 1 is_stmt 0 view .LVU319
 2080 0000 00B5     		push	{lr}
 2081              	.LCFI49:
 2082              		.cfi_def_cfa_offset 4
 2083              		.cfi_offset 14, -4
 2084 0002 85B0     		sub	sp, sp, #20
 2085              	.LCFI50:
 2086              		.cfi_def_cfa_offset 24
 790:Middlewares/ST/STM32_WPAN/ble/core/auto/ble_events.c ****   aci_l2cap_connection_update_req_event_rp0 *rp0 = (void*)in;
 2087              		.loc 1 790 3 is_stmt 1 view .LVU320
 2088              	.LVL175:
 791:Middlewares/ST/STM32_WPAN/ble/core/auto/ble_events.c ****   aci_l2cap_connection_update_req_event( rp0->Connection_Handle,
 2089              		.loc 1 791 3 view .LVU321
 2090 0004 B0F80B30 		ldrh	r3, [r0, #11]	@ unaligned
 2091 0008 0293     		str	r3, [sp, #8]
 2092 000a B0F80930 		ldrh	r3, [r0, #9]	@ unaligned
 2093 000e 0193     		str	r3, [sp, #4]
 2094 0010 B0F80730 		ldrh	r3, [r0, #7]	@ unaligned
 2095 0014 0093     		str	r3, [sp]
 2096 0016 B0F80530 		ldrh	r3, [r0, #5]	@ unaligned
 2097 001a B0F80320 		ldrh	r2, [r0, #3]	@ unaligned
 2098 001e 8178     		ldrb	r1, [r0, #2]	@ zero_extendqisi2
 2099 0020 0088     		ldrh	r0, [r0]	@ unaligned
 2100              	.LVL176:
 2101              		.loc 1 791 3 is_stmt 0 view .LVU322
 2102 0022 FFF7FEFF 		bl	aci_l2cap_connection_update_req_event
 2103              	.LVL177:
 792:Middlewares/ST/STM32_WPAN/ble/core/auto/ble_events.c ****                                          rp0->Identifier,
 793:Middlewares/ST/STM32_WPAN/ble/core/auto/ble_events.c ****                                          rp0->L2CAP_Length,
 794:Middlewares/ST/STM32_WPAN/ble/core/auto/ble_events.c ****                                          rp0->Interval_Min,
 795:Middlewares/ST/STM32_WPAN/ble/core/auto/ble_events.c ****                                          rp0->Interval_Max,
 796:Middlewares/ST/STM32_WPAN/ble/core/auto/ble_events.c ****                                          rp0->Latency,
 797:Middlewares/ST/STM32_WPAN/ble/core/auto/ble_events.c ****                                          rp0->Timeout_Multiplier );
 798:Middlewares/ST/STM32_WPAN/ble/core/auto/ble_events.c **** }
 2104              		.loc 1 798 1 view .LVU323
 2105 0026 05B0     		add	sp, sp, #20
 2106              	.LCFI51:
 2107              		.cfi_def_cfa_offset 4
 2108              		@ sp needed
 2109 0028 5DF804FB 		ldr	pc, [sp], #4
 2110              		.cfi_endproc
 2111              	.LFE71:
 2113              		.section	.text.aci_l2cap_command_reject_event,"ax",%progbits
 2114              		.align	1
 2115              		.weak	aci_l2cap_command_reject_event
 2116              		.syntax unified
 2117              		.thumb
 2118              		.thumb_func
 2120              	aci_l2cap_command_reject_event:
 2121              	.LVL178:
 2122              	.LFB72:
ARM GAS  C:\Users\bku598\AppData\Local\Temp\cc3wINKy.s 			page 50


 799:Middlewares/ST/STM32_WPAN/ble/core/auto/ble_events.c **** 
 800:Middlewares/ST/STM32_WPAN/ble/core/auto/ble_events.c **** /* ACI_L2CAP_COMMAND_REJECT_EVENT callback function */
 801:Middlewares/ST/STM32_WPAN/ble/core/auto/ble_events.c **** __WEAK void aci_l2cap_command_reject_event( uint16_t Connection_Handle,
 802:Middlewares/ST/STM32_WPAN/ble/core/auto/ble_events.c ****                                             uint8_t Identifier,
 803:Middlewares/ST/STM32_WPAN/ble/core/auto/ble_events.c ****                                             uint16_t Reason,
 804:Middlewares/ST/STM32_WPAN/ble/core/auto/ble_events.c ****                                             uint8_t Data_Length,
 805:Middlewares/ST/STM32_WPAN/ble/core/auto/ble_events.c ****                                             const uint8_t* Data )
 806:Middlewares/ST/STM32_WPAN/ble/core/auto/ble_events.c **** {
 2123              		.loc 1 806 1 is_stmt 1 view -0
 2124              		.cfi_startproc
 2125              		@ args = 4, pretend = 0, frame = 0
 2126              		@ frame_needed = 0, uses_anonymous_args = 0
 2127              		@ link register save eliminated.
 807:Middlewares/ST/STM32_WPAN/ble/core/auto/ble_events.c **** }
 2128              		.loc 1 807 1 view .LVU325
 2129 0000 7047     		bx	lr
 2130              		.cfi_endproc
 2131              	.LFE72:
 2133              		.section	.text.aci_l2cap_command_reject_event_process,"ax",%progbits
 2134              		.align	1
 2135              		.syntax unified
 2136              		.thumb
 2137              		.thumb_func
 2139              	aci_l2cap_command_reject_event_process:
 2140              	.LVL179:
 2141              	.LFB73:
 808:Middlewares/ST/STM32_WPAN/ble/core/auto/ble_events.c **** 
 809:Middlewares/ST/STM32_WPAN/ble/core/auto/ble_events.c **** /* ACI_L2CAP_COMMAND_REJECT_EVENT process function */
 810:Middlewares/ST/STM32_WPAN/ble/core/auto/ble_events.c **** static void aci_l2cap_command_reject_event_process( const uint8_t* in )
 811:Middlewares/ST/STM32_WPAN/ble/core/auto/ble_events.c **** {
 2142              		.loc 1 811 1 view -0
 2143              		.cfi_startproc
 2144              		@ args = 0, pretend = 0, frame = 0
 2145              		@ frame_needed = 0, uses_anonymous_args = 0
 2146              		.loc 1 811 1 is_stmt 0 view .LVU327
 2147 0000 00B5     		push	{lr}
 2148              	.LCFI52:
 2149              		.cfi_def_cfa_offset 4
 2150              		.cfi_offset 14, -4
 2151 0002 83B0     		sub	sp, sp, #12
 2152              	.LCFI53:
 2153              		.cfi_def_cfa_offset 16
 812:Middlewares/ST/STM32_WPAN/ble/core/auto/ble_events.c ****   aci_l2cap_command_reject_event_rp0 *rp0 = (void*)in;
 2154              		.loc 1 812 3 is_stmt 1 view .LVU328
 2155              	.LVL180:
 813:Middlewares/ST/STM32_WPAN/ble/core/auto/ble_events.c ****   aci_l2cap_command_reject_event( rp0->Connection_Handle,
 2156              		.loc 1 813 3 view .LVU329
 814:Middlewares/ST/STM32_WPAN/ble/core/auto/ble_events.c ****                                   rp0->Identifier,
 815:Middlewares/ST/STM32_WPAN/ble/core/auto/ble_events.c ****                                   rp0->Reason,
 816:Middlewares/ST/STM32_WPAN/ble/core/auto/ble_events.c ****                                   rp0->Data_Length,
 817:Middlewares/ST/STM32_WPAN/ble/core/auto/ble_events.c ****                                   rp0->Data );
 2157              		.loc 1 817 38 is_stmt 0 view .LVU330
 2158 0004 831D     		adds	r3, r0, #6
 813:Middlewares/ST/STM32_WPAN/ble/core/auto/ble_events.c ****   aci_l2cap_command_reject_event( rp0->Connection_Handle,
 2159              		.loc 1 813 3 view .LVU331
 2160 0006 0093     		str	r3, [sp]
 2161 0008 4379     		ldrb	r3, [r0, #5]	@ zero_extendqisi2
ARM GAS  C:\Users\bku598\AppData\Local\Temp\cc3wINKy.s 			page 51


 2162 000a B0F80320 		ldrh	r2, [r0, #3]	@ unaligned
 2163 000e 8178     		ldrb	r1, [r0, #2]	@ zero_extendqisi2
 2164 0010 0088     		ldrh	r0, [r0]	@ unaligned
 2165              	.LVL181:
 813:Middlewares/ST/STM32_WPAN/ble/core/auto/ble_events.c ****   aci_l2cap_command_reject_event( rp0->Connection_Handle,
 2166              		.loc 1 813 3 view .LVU332
 2167 0012 FFF7FEFF 		bl	aci_l2cap_command_reject_event
 2168              	.LVL182:
 818:Middlewares/ST/STM32_WPAN/ble/core/auto/ble_events.c **** }
 2169              		.loc 1 818 1 view .LVU333
 2170 0016 03B0     		add	sp, sp, #12
 2171              	.LCFI54:
 2172              		.cfi_def_cfa_offset 4
 2173              		@ sp needed
 2174 0018 5DF804FB 		ldr	pc, [sp], #4
 2175              		.cfi_endproc
 2176              	.LFE73:
 2178              		.section	.text.aci_l2cap_coc_connect_event,"ax",%progbits
 2179              		.align	1
 2180              		.weak	aci_l2cap_coc_connect_event
 2181              		.syntax unified
 2182              		.thumb
 2183              		.thumb_func
 2185              	aci_l2cap_coc_connect_event:
 2186              	.LVL183:
 2187              	.LFB74:
 819:Middlewares/ST/STM32_WPAN/ble/core/auto/ble_events.c **** 
 820:Middlewares/ST/STM32_WPAN/ble/core/auto/ble_events.c **** /* ACI_L2CAP_COC_CONNECT_EVENT callback function */
 821:Middlewares/ST/STM32_WPAN/ble/core/auto/ble_events.c **** __WEAK void aci_l2cap_coc_connect_event( uint16_t Connection_Handle,
 822:Middlewares/ST/STM32_WPAN/ble/core/auto/ble_events.c ****                                          uint16_t SPSM,
 823:Middlewares/ST/STM32_WPAN/ble/core/auto/ble_events.c ****                                          uint16_t MTU,
 824:Middlewares/ST/STM32_WPAN/ble/core/auto/ble_events.c ****                                          uint16_t MPS,
 825:Middlewares/ST/STM32_WPAN/ble/core/auto/ble_events.c ****                                          uint16_t Initial_Credits,
 826:Middlewares/ST/STM32_WPAN/ble/core/auto/ble_events.c ****                                          uint8_t Channel_Number )
 827:Middlewares/ST/STM32_WPAN/ble/core/auto/ble_events.c **** {
 2188              		.loc 1 827 1 is_stmt 1 view -0
 2189              		.cfi_startproc
 2190              		@ args = 8, pretend = 0, frame = 0
 2191              		@ frame_needed = 0, uses_anonymous_args = 0
 2192              		@ link register save eliminated.
 828:Middlewares/ST/STM32_WPAN/ble/core/auto/ble_events.c **** }
 2193              		.loc 1 828 1 view .LVU335
 2194 0000 7047     		bx	lr
 2195              		.cfi_endproc
 2196              	.LFE74:
 2198              		.section	.text.aci_l2cap_coc_connect_event_process,"ax",%progbits
 2199              		.align	1
 2200              		.syntax unified
 2201              		.thumb
 2202              		.thumb_func
 2204              	aci_l2cap_coc_connect_event_process:
 2205              	.LVL184:
 2206              	.LFB75:
 829:Middlewares/ST/STM32_WPAN/ble/core/auto/ble_events.c **** 
 830:Middlewares/ST/STM32_WPAN/ble/core/auto/ble_events.c **** /* ACI_L2CAP_COC_CONNECT_EVENT process function */
 831:Middlewares/ST/STM32_WPAN/ble/core/auto/ble_events.c **** static void aci_l2cap_coc_connect_event_process( const uint8_t* in )
 832:Middlewares/ST/STM32_WPAN/ble/core/auto/ble_events.c **** {
ARM GAS  C:\Users\bku598\AppData\Local\Temp\cc3wINKy.s 			page 52


 2207              		.loc 1 832 1 view -0
 2208              		.cfi_startproc
 2209              		@ args = 0, pretend = 0, frame = 0
 2210              		@ frame_needed = 0, uses_anonymous_args = 0
 2211              		.loc 1 832 1 is_stmt 0 view .LVU337
 2212 0000 00B5     		push	{lr}
 2213              	.LCFI55:
 2214              		.cfi_def_cfa_offset 4
 2215              		.cfi_offset 14, -4
 2216 0002 83B0     		sub	sp, sp, #12
 2217              	.LCFI56:
 2218              		.cfi_def_cfa_offset 16
 833:Middlewares/ST/STM32_WPAN/ble/core/auto/ble_events.c ****   aci_l2cap_coc_connect_event_rp0 *rp0 = (void*)in;
 2219              		.loc 1 833 3 is_stmt 1 view .LVU338
 2220              	.LVL185:
 834:Middlewares/ST/STM32_WPAN/ble/core/auto/ble_events.c ****   aci_l2cap_coc_connect_event( rp0->Connection_Handle,
 2221              		.loc 1 834 3 view .LVU339
 2222 0004 837A     		ldrb	r3, [r0, #10]	@ zero_extendqisi2
 2223 0006 0193     		str	r3, [sp, #4]
 2224 0008 0389     		ldrh	r3, [r0, #8]	@ unaligned
 2225 000a 0093     		str	r3, [sp]
 2226 000c C388     		ldrh	r3, [r0, #6]	@ unaligned
 2227 000e 8288     		ldrh	r2, [r0, #4]	@ unaligned
 2228 0010 4188     		ldrh	r1, [r0, #2]	@ unaligned
 2229 0012 0088     		ldrh	r0, [r0]	@ unaligned
 2230              	.LVL186:
 2231              		.loc 1 834 3 is_stmt 0 view .LVU340
 2232 0014 FFF7FEFF 		bl	aci_l2cap_coc_connect_event
 2233              	.LVL187:
 835:Middlewares/ST/STM32_WPAN/ble/core/auto/ble_events.c ****                                rp0->SPSM,
 836:Middlewares/ST/STM32_WPAN/ble/core/auto/ble_events.c ****                                rp0->MTU,
 837:Middlewares/ST/STM32_WPAN/ble/core/auto/ble_events.c ****                                rp0->MPS,
 838:Middlewares/ST/STM32_WPAN/ble/core/auto/ble_events.c ****                                rp0->Initial_Credits,
 839:Middlewares/ST/STM32_WPAN/ble/core/auto/ble_events.c ****                                rp0->Channel_Number );
 840:Middlewares/ST/STM32_WPAN/ble/core/auto/ble_events.c **** }
 2234              		.loc 1 840 1 view .LVU341
 2235 0018 03B0     		add	sp, sp, #12
 2236              	.LCFI57:
 2237              		.cfi_def_cfa_offset 4
 2238              		@ sp needed
 2239 001a 5DF804FB 		ldr	pc, [sp], #4
 2240              		.cfi_endproc
 2241              	.LFE75:
 2243              		.section	.text.aci_l2cap_coc_connect_confirm_event,"ax",%progbits
 2244              		.align	1
 2245              		.weak	aci_l2cap_coc_connect_confirm_event
 2246              		.syntax unified
 2247              		.thumb
 2248              		.thumb_func
 2250              	aci_l2cap_coc_connect_confirm_event:
 2251              	.LVL188:
 2252              	.LFB76:
 841:Middlewares/ST/STM32_WPAN/ble/core/auto/ble_events.c **** 
 842:Middlewares/ST/STM32_WPAN/ble/core/auto/ble_events.c **** /* ACI_L2CAP_COC_CONNECT_CONFIRM_EVENT callback function */
 843:Middlewares/ST/STM32_WPAN/ble/core/auto/ble_events.c **** __WEAK void aci_l2cap_coc_connect_confirm_event( uint16_t Connection_Handle,
 844:Middlewares/ST/STM32_WPAN/ble/core/auto/ble_events.c ****                                                  uint16_t MTU,
 845:Middlewares/ST/STM32_WPAN/ble/core/auto/ble_events.c ****                                                  uint16_t MPS,
ARM GAS  C:\Users\bku598\AppData\Local\Temp\cc3wINKy.s 			page 53


 846:Middlewares/ST/STM32_WPAN/ble/core/auto/ble_events.c ****                                                  uint16_t Initial_Credits,
 847:Middlewares/ST/STM32_WPAN/ble/core/auto/ble_events.c ****                                                  uint16_t Result,
 848:Middlewares/ST/STM32_WPAN/ble/core/auto/ble_events.c ****                                                  uint8_t Channel_Number,
 849:Middlewares/ST/STM32_WPAN/ble/core/auto/ble_events.c ****                                                  const uint8_t* Channel_Index_List )
 850:Middlewares/ST/STM32_WPAN/ble/core/auto/ble_events.c **** {
 2253              		.loc 1 850 1 is_stmt 1 view -0
 2254              		.cfi_startproc
 2255              		@ args = 12, pretend = 0, frame = 0
 2256              		@ frame_needed = 0, uses_anonymous_args = 0
 2257              		@ link register save eliminated.
 851:Middlewares/ST/STM32_WPAN/ble/core/auto/ble_events.c **** }
 2258              		.loc 1 851 1 view .LVU343
 2259 0000 7047     		bx	lr
 2260              		.cfi_endproc
 2261              	.LFE76:
 2263              		.section	.text.aci_l2cap_coc_connect_confirm_event_process,"ax",%progbits
 2264              		.align	1
 2265              		.syntax unified
 2266              		.thumb
 2267              		.thumb_func
 2269              	aci_l2cap_coc_connect_confirm_event_process:
 2270              	.LVL189:
 2271              	.LFB77:
 852:Middlewares/ST/STM32_WPAN/ble/core/auto/ble_events.c **** 
 853:Middlewares/ST/STM32_WPAN/ble/core/auto/ble_events.c **** /* ACI_L2CAP_COC_CONNECT_CONFIRM_EVENT process function */
 854:Middlewares/ST/STM32_WPAN/ble/core/auto/ble_events.c **** static void aci_l2cap_coc_connect_confirm_event_process( const uint8_t* in )
 855:Middlewares/ST/STM32_WPAN/ble/core/auto/ble_events.c **** {
 2272              		.loc 1 855 1 view -0
 2273              		.cfi_startproc
 2274              		@ args = 0, pretend = 0, frame = 0
 2275              		@ frame_needed = 0, uses_anonymous_args = 0
 2276              		.loc 1 855 1 is_stmt 0 view .LVU345
 2277 0000 00B5     		push	{lr}
 2278              	.LCFI58:
 2279              		.cfi_def_cfa_offset 4
 2280              		.cfi_offset 14, -4
 2281 0002 85B0     		sub	sp, sp, #20
 2282              	.LCFI59:
 2283              		.cfi_def_cfa_offset 24
 856:Middlewares/ST/STM32_WPAN/ble/core/auto/ble_events.c ****   aci_l2cap_coc_connect_confirm_event_rp0 *rp0 = (void*)in;
 2284              		.loc 1 856 3 is_stmt 1 view .LVU346
 2285              	.LVL190:
 857:Middlewares/ST/STM32_WPAN/ble/core/auto/ble_events.c ****   aci_l2cap_coc_connect_confirm_event( rp0->Connection_Handle,
 2286              		.loc 1 857 3 view .LVU347
 858:Middlewares/ST/STM32_WPAN/ble/core/auto/ble_events.c ****                                        rp0->MTU,
 859:Middlewares/ST/STM32_WPAN/ble/core/auto/ble_events.c ****                                        rp0->MPS,
 860:Middlewares/ST/STM32_WPAN/ble/core/auto/ble_events.c ****                                        rp0->Initial_Credits,
 861:Middlewares/ST/STM32_WPAN/ble/core/auto/ble_events.c ****                                        rp0->Result,
 862:Middlewares/ST/STM32_WPAN/ble/core/auto/ble_events.c ****                                        rp0->Channel_Number,
 863:Middlewares/ST/STM32_WPAN/ble/core/auto/ble_events.c ****                                        rp0->Channel_Index_List );
 2287              		.loc 1 863 43 is_stmt 0 view .LVU348
 2288 0004 00F10B03 		add	r3, r0, #11
 857:Middlewares/ST/STM32_WPAN/ble/core/auto/ble_events.c ****   aci_l2cap_coc_connect_confirm_event( rp0->Connection_Handle,
 2289              		.loc 1 857 3 view .LVU349
 2290 0008 0293     		str	r3, [sp, #8]
 2291 000a 837A     		ldrb	r3, [r0, #10]	@ zero_extendqisi2
 2292 000c 0193     		str	r3, [sp, #4]
ARM GAS  C:\Users\bku598\AppData\Local\Temp\cc3wINKy.s 			page 54


 2293 000e 0389     		ldrh	r3, [r0, #8]	@ unaligned
 2294 0010 0093     		str	r3, [sp]
 2295 0012 C388     		ldrh	r3, [r0, #6]	@ unaligned
 2296 0014 8288     		ldrh	r2, [r0, #4]	@ unaligned
 2297 0016 4188     		ldrh	r1, [r0, #2]	@ unaligned
 2298 0018 0088     		ldrh	r0, [r0]	@ unaligned
 2299              	.LVL191:
 857:Middlewares/ST/STM32_WPAN/ble/core/auto/ble_events.c ****   aci_l2cap_coc_connect_confirm_event( rp0->Connection_Handle,
 2300              		.loc 1 857 3 view .LVU350
 2301 001a FFF7FEFF 		bl	aci_l2cap_coc_connect_confirm_event
 2302              	.LVL192:
 864:Middlewares/ST/STM32_WPAN/ble/core/auto/ble_events.c **** }
 2303              		.loc 1 864 1 view .LVU351
 2304 001e 05B0     		add	sp, sp, #20
 2305              	.LCFI60:
 2306              		.cfi_def_cfa_offset 4
 2307              		@ sp needed
 2308 0020 5DF804FB 		ldr	pc, [sp], #4
 2309              		.cfi_endproc
 2310              	.LFE77:
 2312              		.section	.text.aci_l2cap_coc_reconf_event,"ax",%progbits
 2313              		.align	1
 2314              		.weak	aci_l2cap_coc_reconf_event
 2315              		.syntax unified
 2316              		.thumb
 2317              		.thumb_func
 2319              	aci_l2cap_coc_reconf_event:
 2320              	.LVL193:
 2321              	.LFB78:
 865:Middlewares/ST/STM32_WPAN/ble/core/auto/ble_events.c **** 
 866:Middlewares/ST/STM32_WPAN/ble/core/auto/ble_events.c **** /* ACI_L2CAP_COC_RECONF_EVENT callback function */
 867:Middlewares/ST/STM32_WPAN/ble/core/auto/ble_events.c **** __WEAK void aci_l2cap_coc_reconf_event( uint16_t Connection_Handle,
 868:Middlewares/ST/STM32_WPAN/ble/core/auto/ble_events.c ****                                         uint16_t MTU,
 869:Middlewares/ST/STM32_WPAN/ble/core/auto/ble_events.c ****                                         uint16_t MPS,
 870:Middlewares/ST/STM32_WPAN/ble/core/auto/ble_events.c ****                                         uint8_t Channel_Number,
 871:Middlewares/ST/STM32_WPAN/ble/core/auto/ble_events.c ****                                         const uint8_t* Channel_Index_List )
 872:Middlewares/ST/STM32_WPAN/ble/core/auto/ble_events.c **** {
 2322              		.loc 1 872 1 is_stmt 1 view -0
 2323              		.cfi_startproc
 2324              		@ args = 4, pretend = 0, frame = 0
 2325              		@ frame_needed = 0, uses_anonymous_args = 0
 2326              		@ link register save eliminated.
 873:Middlewares/ST/STM32_WPAN/ble/core/auto/ble_events.c **** }
 2327              		.loc 1 873 1 view .LVU353
 2328 0000 7047     		bx	lr
 2329              		.cfi_endproc
 2330              	.LFE78:
 2332              		.section	.text.aci_l2cap_coc_reconf_event_process,"ax",%progbits
 2333              		.align	1
 2334              		.syntax unified
 2335              		.thumb
 2336              		.thumb_func
 2338              	aci_l2cap_coc_reconf_event_process:
 2339              	.LVL194:
 2340              	.LFB79:
 874:Middlewares/ST/STM32_WPAN/ble/core/auto/ble_events.c **** 
 875:Middlewares/ST/STM32_WPAN/ble/core/auto/ble_events.c **** /* ACI_L2CAP_COC_RECONF_EVENT process function */
ARM GAS  C:\Users\bku598\AppData\Local\Temp\cc3wINKy.s 			page 55


 876:Middlewares/ST/STM32_WPAN/ble/core/auto/ble_events.c **** static void aci_l2cap_coc_reconf_event_process( const uint8_t* in )
 877:Middlewares/ST/STM32_WPAN/ble/core/auto/ble_events.c **** {
 2341              		.loc 1 877 1 view -0
 2342              		.cfi_startproc
 2343              		@ args = 0, pretend = 0, frame = 0
 2344              		@ frame_needed = 0, uses_anonymous_args = 0
 2345              		.loc 1 877 1 is_stmt 0 view .LVU355
 2346 0000 00B5     		push	{lr}
 2347              	.LCFI61:
 2348              		.cfi_def_cfa_offset 4
 2349              		.cfi_offset 14, -4
 2350 0002 83B0     		sub	sp, sp, #12
 2351              	.LCFI62:
 2352              		.cfi_def_cfa_offset 16
 878:Middlewares/ST/STM32_WPAN/ble/core/auto/ble_events.c ****   aci_l2cap_coc_reconf_event_rp0 *rp0 = (void*)in;
 2353              		.loc 1 878 3 is_stmt 1 view .LVU356
 2354              	.LVL195:
 879:Middlewares/ST/STM32_WPAN/ble/core/auto/ble_events.c ****   aci_l2cap_coc_reconf_event( rp0->Connection_Handle,
 2355              		.loc 1 879 3 view .LVU357
 880:Middlewares/ST/STM32_WPAN/ble/core/auto/ble_events.c ****                               rp0->MTU,
 881:Middlewares/ST/STM32_WPAN/ble/core/auto/ble_events.c ****                               rp0->MPS,
 882:Middlewares/ST/STM32_WPAN/ble/core/auto/ble_events.c ****                               rp0->Channel_Number,
 883:Middlewares/ST/STM32_WPAN/ble/core/auto/ble_events.c ****                               rp0->Channel_Index_List );
 2356              		.loc 1 883 34 is_stmt 0 view .LVU358
 2357 0004 C31D     		adds	r3, r0, #7
 879:Middlewares/ST/STM32_WPAN/ble/core/auto/ble_events.c ****   aci_l2cap_coc_reconf_event( rp0->Connection_Handle,
 2358              		.loc 1 879 3 view .LVU359
 2359 0006 0093     		str	r3, [sp]
 2360 0008 8379     		ldrb	r3, [r0, #6]	@ zero_extendqisi2
 2361 000a 8288     		ldrh	r2, [r0, #4]	@ unaligned
 2362 000c 4188     		ldrh	r1, [r0, #2]	@ unaligned
 2363 000e 0088     		ldrh	r0, [r0]	@ unaligned
 2364              	.LVL196:
 879:Middlewares/ST/STM32_WPAN/ble/core/auto/ble_events.c ****   aci_l2cap_coc_reconf_event( rp0->Connection_Handle,
 2365              		.loc 1 879 3 view .LVU360
 2366 0010 FFF7FEFF 		bl	aci_l2cap_coc_reconf_event
 2367              	.LVL197:
 884:Middlewares/ST/STM32_WPAN/ble/core/auto/ble_events.c **** }
 2368              		.loc 1 884 1 view .LVU361
 2369 0014 03B0     		add	sp, sp, #12
 2370              	.LCFI63:
 2371              		.cfi_def_cfa_offset 4
 2372              		@ sp needed
 2373 0016 5DF804FB 		ldr	pc, [sp], #4
 2374              		.cfi_endproc
 2375              	.LFE79:
 2377              		.section	.text.aci_l2cap_coc_reconf_confirm_event,"ax",%progbits
 2378              		.align	1
 2379              		.weak	aci_l2cap_coc_reconf_confirm_event
 2380              		.syntax unified
 2381              		.thumb
 2382              		.thumb_func
 2384              	aci_l2cap_coc_reconf_confirm_event:
 2385              	.LVL198:
 2386              	.LFB80:
 885:Middlewares/ST/STM32_WPAN/ble/core/auto/ble_events.c **** 
 886:Middlewares/ST/STM32_WPAN/ble/core/auto/ble_events.c **** /* ACI_L2CAP_COC_RECONF_CONFIRM_EVENT callback function */
ARM GAS  C:\Users\bku598\AppData\Local\Temp\cc3wINKy.s 			page 56


 887:Middlewares/ST/STM32_WPAN/ble/core/auto/ble_events.c **** __WEAK void aci_l2cap_coc_reconf_confirm_event( uint16_t Connection_Handle,
 888:Middlewares/ST/STM32_WPAN/ble/core/auto/ble_events.c ****                                                 uint16_t Result )
 889:Middlewares/ST/STM32_WPAN/ble/core/auto/ble_events.c **** {
 2387              		.loc 1 889 1 is_stmt 1 view -0
 2388              		.cfi_startproc
 2389              		@ args = 0, pretend = 0, frame = 0
 2390              		@ frame_needed = 0, uses_anonymous_args = 0
 2391              		@ link register save eliminated.
 890:Middlewares/ST/STM32_WPAN/ble/core/auto/ble_events.c **** }
 2392              		.loc 1 890 1 view .LVU363
 2393 0000 7047     		bx	lr
 2394              		.cfi_endproc
 2395              	.LFE80:
 2397              		.section	.text.aci_l2cap_coc_reconf_confirm_event_process,"ax",%progbits
 2398              		.align	1
 2399              		.syntax unified
 2400              		.thumb
 2401              		.thumb_func
 2403              	aci_l2cap_coc_reconf_confirm_event_process:
 2404              	.LVL199:
 2405              	.LFB81:
 891:Middlewares/ST/STM32_WPAN/ble/core/auto/ble_events.c **** 
 892:Middlewares/ST/STM32_WPAN/ble/core/auto/ble_events.c **** /* ACI_L2CAP_COC_RECONF_CONFIRM_EVENT process function */
 893:Middlewares/ST/STM32_WPAN/ble/core/auto/ble_events.c **** static void aci_l2cap_coc_reconf_confirm_event_process( const uint8_t* in )
 894:Middlewares/ST/STM32_WPAN/ble/core/auto/ble_events.c **** {
 2406              		.loc 1 894 1 view -0
 2407              		.cfi_startproc
 2408              		@ args = 0, pretend = 0, frame = 0
 2409              		@ frame_needed = 0, uses_anonymous_args = 0
 2410              		.loc 1 894 1 is_stmt 0 view .LVU365
 2411 0000 08B5     		push	{r3, lr}
 2412              	.LCFI64:
 2413              		.cfi_def_cfa_offset 8
 2414              		.cfi_offset 3, -8
 2415              		.cfi_offset 14, -4
 895:Middlewares/ST/STM32_WPAN/ble/core/auto/ble_events.c ****   aci_l2cap_coc_reconf_confirm_event_rp0 *rp0 = (void*)in;
 2416              		.loc 1 895 3 is_stmt 1 view .LVU366
 2417              	.LVL200:
 896:Middlewares/ST/STM32_WPAN/ble/core/auto/ble_events.c ****   aci_l2cap_coc_reconf_confirm_event( rp0->Connection_Handle,
 2418              		.loc 1 896 3 view .LVU367
 2419 0002 4188     		ldrh	r1, [r0, #2]	@ unaligned
 2420 0004 0088     		ldrh	r0, [r0]	@ unaligned
 2421              	.LVL201:
 2422              		.loc 1 896 3 is_stmt 0 view .LVU368
 2423 0006 FFF7FEFF 		bl	aci_l2cap_coc_reconf_confirm_event
 2424              	.LVL202:
 897:Middlewares/ST/STM32_WPAN/ble/core/auto/ble_events.c ****                                       rp0->Result );
 898:Middlewares/ST/STM32_WPAN/ble/core/auto/ble_events.c **** }
 2425              		.loc 1 898 1 view .LVU369
 2426 000a 08BD     		pop	{r3, pc}
 2427              		.cfi_endproc
 2428              	.LFE81:
 2430              		.section	.text.aci_l2cap_coc_disconnect_event,"ax",%progbits
 2431              		.align	1
 2432              		.weak	aci_l2cap_coc_disconnect_event
 2433              		.syntax unified
 2434              		.thumb
ARM GAS  C:\Users\bku598\AppData\Local\Temp\cc3wINKy.s 			page 57


 2435              		.thumb_func
 2437              	aci_l2cap_coc_disconnect_event:
 2438              	.LVL203:
 2439              	.LFB82:
 899:Middlewares/ST/STM32_WPAN/ble/core/auto/ble_events.c **** 
 900:Middlewares/ST/STM32_WPAN/ble/core/auto/ble_events.c **** /* ACI_L2CAP_COC_DISCONNECT_EVENT callback function */
 901:Middlewares/ST/STM32_WPAN/ble/core/auto/ble_events.c **** __WEAK void aci_l2cap_coc_disconnect_event( uint8_t Channel_Index )
 902:Middlewares/ST/STM32_WPAN/ble/core/auto/ble_events.c **** {
 2440              		.loc 1 902 1 is_stmt 1 view -0
 2441              		.cfi_startproc
 2442              		@ args = 0, pretend = 0, frame = 0
 2443              		@ frame_needed = 0, uses_anonymous_args = 0
 2444              		@ link register save eliminated.
 903:Middlewares/ST/STM32_WPAN/ble/core/auto/ble_events.c **** }
 2445              		.loc 1 903 1 view .LVU371
 2446 0000 7047     		bx	lr
 2447              		.cfi_endproc
 2448              	.LFE82:
 2450              		.section	.text.aci_l2cap_coc_disconnect_event_process,"ax",%progbits
 2451              		.align	1
 2452              		.syntax unified
 2453              		.thumb
 2454              		.thumb_func
 2456              	aci_l2cap_coc_disconnect_event_process:
 2457              	.LVL204:
 2458              	.LFB83:
 904:Middlewares/ST/STM32_WPAN/ble/core/auto/ble_events.c **** 
 905:Middlewares/ST/STM32_WPAN/ble/core/auto/ble_events.c **** /* ACI_L2CAP_COC_DISCONNECT_EVENT process function */
 906:Middlewares/ST/STM32_WPAN/ble/core/auto/ble_events.c **** static void aci_l2cap_coc_disconnect_event_process( const uint8_t* in )
 907:Middlewares/ST/STM32_WPAN/ble/core/auto/ble_events.c **** {
 2459              		.loc 1 907 1 view -0
 2460              		.cfi_startproc
 2461              		@ args = 0, pretend = 0, frame = 0
 2462              		@ frame_needed = 0, uses_anonymous_args = 0
 2463              		.loc 1 907 1 is_stmt 0 view .LVU373
 2464 0000 08B5     		push	{r3, lr}
 2465              	.LCFI65:
 2466              		.cfi_def_cfa_offset 8
 2467              		.cfi_offset 3, -8
 2468              		.cfi_offset 14, -4
 908:Middlewares/ST/STM32_WPAN/ble/core/auto/ble_events.c ****   aci_l2cap_coc_disconnect_event_rp0 *rp0 = (void*)in;
 2469              		.loc 1 908 3 is_stmt 1 view .LVU374
 2470              	.LVL205:
 909:Middlewares/ST/STM32_WPAN/ble/core/auto/ble_events.c ****   aci_l2cap_coc_disconnect_event( rp0->Channel_Index );
 2471              		.loc 1 909 3 view .LVU375
 2472 0002 0078     		ldrb	r0, [r0]	@ zero_extendqisi2
 2473              	.LVL206:
 2474              		.loc 1 909 3 is_stmt 0 view .LVU376
 2475 0004 FFF7FEFF 		bl	aci_l2cap_coc_disconnect_event
 2476              	.LVL207:
 910:Middlewares/ST/STM32_WPAN/ble/core/auto/ble_events.c **** }
 2477              		.loc 1 910 1 view .LVU377
 2478 0008 08BD     		pop	{r3, pc}
 2479              		.cfi_endproc
 2480              	.LFE83:
 2482              		.section	.text.aci_l2cap_coc_flow_control_event,"ax",%progbits
 2483              		.align	1
ARM GAS  C:\Users\bku598\AppData\Local\Temp\cc3wINKy.s 			page 58


 2484              		.weak	aci_l2cap_coc_flow_control_event
 2485              		.syntax unified
 2486              		.thumb
 2487              		.thumb_func
 2489              	aci_l2cap_coc_flow_control_event:
 2490              	.LVL208:
 2491              	.LFB84:
 911:Middlewares/ST/STM32_WPAN/ble/core/auto/ble_events.c **** 
 912:Middlewares/ST/STM32_WPAN/ble/core/auto/ble_events.c **** /* ACI_L2CAP_COC_FLOW_CONTROL_EVENT callback function */
 913:Middlewares/ST/STM32_WPAN/ble/core/auto/ble_events.c **** __WEAK void aci_l2cap_coc_flow_control_event( uint8_t Channel_Index,
 914:Middlewares/ST/STM32_WPAN/ble/core/auto/ble_events.c ****                                               uint16_t Credits )
 915:Middlewares/ST/STM32_WPAN/ble/core/auto/ble_events.c **** {
 2492              		.loc 1 915 1 is_stmt 1 view -0
 2493              		.cfi_startproc
 2494              		@ args = 0, pretend = 0, frame = 0
 2495              		@ frame_needed = 0, uses_anonymous_args = 0
 2496              		@ link register save eliminated.
 916:Middlewares/ST/STM32_WPAN/ble/core/auto/ble_events.c **** }
 2497              		.loc 1 916 1 view .LVU379
 2498 0000 7047     		bx	lr
 2499              		.cfi_endproc
 2500              	.LFE84:
 2502              		.section	.text.aci_l2cap_coc_flow_control_event_process,"ax",%progbits
 2503              		.align	1
 2504              		.syntax unified
 2505              		.thumb
 2506              		.thumb_func
 2508              	aci_l2cap_coc_flow_control_event_process:
 2509              	.LVL209:
 2510              	.LFB85:
 917:Middlewares/ST/STM32_WPAN/ble/core/auto/ble_events.c **** 
 918:Middlewares/ST/STM32_WPAN/ble/core/auto/ble_events.c **** /* ACI_L2CAP_COC_FLOW_CONTROL_EVENT process function */
 919:Middlewares/ST/STM32_WPAN/ble/core/auto/ble_events.c **** static void aci_l2cap_coc_flow_control_event_process( const uint8_t* in )
 920:Middlewares/ST/STM32_WPAN/ble/core/auto/ble_events.c **** {
 2511              		.loc 1 920 1 view -0
 2512              		.cfi_startproc
 2513              		@ args = 0, pretend = 0, frame = 0
 2514              		@ frame_needed = 0, uses_anonymous_args = 0
 2515              		.loc 1 920 1 is_stmt 0 view .LVU381
 2516 0000 08B5     		push	{r3, lr}
 2517              	.LCFI66:
 2518              		.cfi_def_cfa_offset 8
 2519              		.cfi_offset 3, -8
 2520              		.cfi_offset 14, -4
 921:Middlewares/ST/STM32_WPAN/ble/core/auto/ble_events.c ****   aci_l2cap_coc_flow_control_event_rp0 *rp0 = (void*)in;
 2521              		.loc 1 921 3 is_stmt 1 view .LVU382
 2522              	.LVL210:
 922:Middlewares/ST/STM32_WPAN/ble/core/auto/ble_events.c ****   aci_l2cap_coc_flow_control_event( rp0->Channel_Index,
 2523              		.loc 1 922 3 view .LVU383
 2524 0002 B0F80110 		ldrh	r1, [r0, #1]	@ unaligned
 2525 0006 0078     		ldrb	r0, [r0]	@ zero_extendqisi2
 2526              	.LVL211:
 2527              		.loc 1 922 3 is_stmt 0 view .LVU384
 2528 0008 FFF7FEFF 		bl	aci_l2cap_coc_flow_control_event
 2529              	.LVL212:
 923:Middlewares/ST/STM32_WPAN/ble/core/auto/ble_events.c ****                                     rp0->Credits );
 924:Middlewares/ST/STM32_WPAN/ble/core/auto/ble_events.c **** }
ARM GAS  C:\Users\bku598\AppData\Local\Temp\cc3wINKy.s 			page 59


 2530              		.loc 1 924 1 view .LVU385
 2531 000c 08BD     		pop	{r3, pc}
 2532              		.cfi_endproc
 2533              	.LFE85:
 2535              		.section	.text.aci_l2cap_coc_rx_data_event,"ax",%progbits
 2536              		.align	1
 2537              		.weak	aci_l2cap_coc_rx_data_event
 2538              		.syntax unified
 2539              		.thumb
 2540              		.thumb_func
 2542              	aci_l2cap_coc_rx_data_event:
 2543              	.LVL213:
 2544              	.LFB86:
 925:Middlewares/ST/STM32_WPAN/ble/core/auto/ble_events.c **** 
 926:Middlewares/ST/STM32_WPAN/ble/core/auto/ble_events.c **** /* ACI_L2CAP_COC_RX_DATA_EVENT callback function */
 927:Middlewares/ST/STM32_WPAN/ble/core/auto/ble_events.c **** __WEAK void aci_l2cap_coc_rx_data_event( uint8_t Channel_Index,
 928:Middlewares/ST/STM32_WPAN/ble/core/auto/ble_events.c ****                                          uint16_t Length,
 929:Middlewares/ST/STM32_WPAN/ble/core/auto/ble_events.c ****                                          const uint8_t* Data )
 930:Middlewares/ST/STM32_WPAN/ble/core/auto/ble_events.c **** {
 2545              		.loc 1 930 1 is_stmt 1 view -0
 2546              		.cfi_startproc
 2547              		@ args = 0, pretend = 0, frame = 0
 2548              		@ frame_needed = 0, uses_anonymous_args = 0
 2549              		@ link register save eliminated.
 931:Middlewares/ST/STM32_WPAN/ble/core/auto/ble_events.c **** }
 2550              		.loc 1 931 1 view .LVU387
 2551 0000 7047     		bx	lr
 2552              		.cfi_endproc
 2553              	.LFE86:
 2555              		.section	.text.aci_l2cap_coc_rx_data_event_process,"ax",%progbits
 2556              		.align	1
 2557              		.syntax unified
 2558              		.thumb
 2559              		.thumb_func
 2561              	aci_l2cap_coc_rx_data_event_process:
 2562              	.LVL214:
 2563              	.LFB87:
 932:Middlewares/ST/STM32_WPAN/ble/core/auto/ble_events.c **** 
 933:Middlewares/ST/STM32_WPAN/ble/core/auto/ble_events.c **** /* ACI_L2CAP_COC_RX_DATA_EVENT process function */
 934:Middlewares/ST/STM32_WPAN/ble/core/auto/ble_events.c **** static void aci_l2cap_coc_rx_data_event_process( const uint8_t* in )
 935:Middlewares/ST/STM32_WPAN/ble/core/auto/ble_events.c **** {
 2564              		.loc 1 935 1 view -0
 2565              		.cfi_startproc
 2566              		@ args = 0, pretend = 0, frame = 0
 2567              		@ frame_needed = 0, uses_anonymous_args = 0
 2568              		.loc 1 935 1 is_stmt 0 view .LVU389
 2569 0000 08B5     		push	{r3, lr}
 2570              	.LCFI67:
 2571              		.cfi_def_cfa_offset 8
 2572              		.cfi_offset 3, -8
 2573              		.cfi_offset 14, -4
 936:Middlewares/ST/STM32_WPAN/ble/core/auto/ble_events.c ****   aci_l2cap_coc_rx_data_event_rp0 *rp0 = (void*)in;
 2574              		.loc 1 936 3 is_stmt 1 view .LVU390
 2575              	.LVL215:
 937:Middlewares/ST/STM32_WPAN/ble/core/auto/ble_events.c ****   aci_l2cap_coc_rx_data_event( rp0->Channel_Index,
 2576              		.loc 1 937 3 view .LVU391
 2577 0002 C21C     		adds	r2, r0, #3
ARM GAS  C:\Users\bku598\AppData\Local\Temp\cc3wINKy.s 			page 60


 2578 0004 B0F80110 		ldrh	r1, [r0, #1]	@ unaligned
 2579 0008 0078     		ldrb	r0, [r0]	@ zero_extendqisi2
 2580              	.LVL216:
 2581              		.loc 1 937 3 is_stmt 0 view .LVU392
 2582 000a FFF7FEFF 		bl	aci_l2cap_coc_rx_data_event
 2583              	.LVL217:
 938:Middlewares/ST/STM32_WPAN/ble/core/auto/ble_events.c ****                                rp0->Length,
 939:Middlewares/ST/STM32_WPAN/ble/core/auto/ble_events.c ****                                rp0->Data );
 940:Middlewares/ST/STM32_WPAN/ble/core/auto/ble_events.c **** }
 2584              		.loc 1 940 1 view .LVU393
 2585 000e 08BD     		pop	{r3, pc}
 2586              		.cfi_endproc
 2587              	.LFE87:
 2589              		.section	.text.aci_l2cap_coc_tx_pool_available_event,"ax",%progbits
 2590              		.align	1
 2591              		.weak	aci_l2cap_coc_tx_pool_available_event
 2592              		.syntax unified
 2593              		.thumb
 2594              		.thumb_func
 2596              	aci_l2cap_coc_tx_pool_available_event:
 2597              	.LFB88:
 941:Middlewares/ST/STM32_WPAN/ble/core/auto/ble_events.c **** 
 942:Middlewares/ST/STM32_WPAN/ble/core/auto/ble_events.c **** /* ACI_L2CAP_COC_TX_POOL_AVAILABLE_EVENT callback function */
 943:Middlewares/ST/STM32_WPAN/ble/core/auto/ble_events.c **** __WEAK void aci_l2cap_coc_tx_pool_available_event( void )
 944:Middlewares/ST/STM32_WPAN/ble/core/auto/ble_events.c **** {
 2598              		.loc 1 944 1 is_stmt 1 view -0
 2599              		.cfi_startproc
 2600              		@ args = 0, pretend = 0, frame = 0
 2601              		@ frame_needed = 0, uses_anonymous_args = 0
 2602              		@ link register save eliminated.
 945:Middlewares/ST/STM32_WPAN/ble/core/auto/ble_events.c **** }
 2603              		.loc 1 945 1 view .LVU395
 2604 0000 7047     		bx	lr
 2605              		.cfi_endproc
 2606              	.LFE88:
 2608              		.section	.text.aci_l2cap_coc_tx_pool_available_event_process,"ax",%progbits
 2609              		.align	1
 2610              		.syntax unified
 2611              		.thumb
 2612              		.thumb_func
 2614              	aci_l2cap_coc_tx_pool_available_event_process:
 2615              	.LVL218:
 2616              	.LFB89:
 946:Middlewares/ST/STM32_WPAN/ble/core/auto/ble_events.c **** 
 947:Middlewares/ST/STM32_WPAN/ble/core/auto/ble_events.c **** /* ACI_L2CAP_COC_TX_POOL_AVAILABLE_EVENT process function */
 948:Middlewares/ST/STM32_WPAN/ble/core/auto/ble_events.c **** static void aci_l2cap_coc_tx_pool_available_event_process( const uint8_t* in )
 949:Middlewares/ST/STM32_WPAN/ble/core/auto/ble_events.c **** {
 2617              		.loc 1 949 1 view -0
 2618              		.cfi_startproc
 2619              		@ args = 0, pretend = 0, frame = 0
 2620              		@ frame_needed = 0, uses_anonymous_args = 0
 2621              		.loc 1 949 1 is_stmt 0 view .LVU397
 2622 0000 08B5     		push	{r3, lr}
 2623              	.LCFI68:
 2624              		.cfi_def_cfa_offset 8
 2625              		.cfi_offset 3, -8
 2626              		.cfi_offset 14, -4
ARM GAS  C:\Users\bku598\AppData\Local\Temp\cc3wINKy.s 			page 61


 950:Middlewares/ST/STM32_WPAN/ble/core/auto/ble_events.c ****   aci_l2cap_coc_tx_pool_available_event( );
 2627              		.loc 1 950 3 is_stmt 1 view .LVU398
 2628 0002 FFF7FEFF 		bl	aci_l2cap_coc_tx_pool_available_event
 2629              	.LVL219:
 951:Middlewares/ST/STM32_WPAN/ble/core/auto/ble_events.c **** }
 2630              		.loc 1 951 1 is_stmt 0 view .LVU399
 2631 0006 08BD     		pop	{r3, pc}
 2632              		.cfi_endproc
 2633              	.LFE89:
 2635              		.section	.text.aci_gatt_attribute_modified_event,"ax",%progbits
 2636              		.align	1
 2637              		.weak	aci_gatt_attribute_modified_event
 2638              		.syntax unified
 2639              		.thumb
 2640              		.thumb_func
 2642              	aci_gatt_attribute_modified_event:
 2643              	.LVL220:
 2644              	.LFB90:
 952:Middlewares/ST/STM32_WPAN/ble/core/auto/ble_events.c **** 
 953:Middlewares/ST/STM32_WPAN/ble/core/auto/ble_events.c **** /* ACI_GATT_ATTRIBUTE_MODIFIED_EVENT callback function */
 954:Middlewares/ST/STM32_WPAN/ble/core/auto/ble_events.c **** __WEAK void aci_gatt_attribute_modified_event( uint16_t Connection_Handle,
 955:Middlewares/ST/STM32_WPAN/ble/core/auto/ble_events.c ****                                                uint16_t Attr_Handle,
 956:Middlewares/ST/STM32_WPAN/ble/core/auto/ble_events.c ****                                                uint16_t Offset,
 957:Middlewares/ST/STM32_WPAN/ble/core/auto/ble_events.c ****                                                uint16_t Attr_Data_Length,
 958:Middlewares/ST/STM32_WPAN/ble/core/auto/ble_events.c ****                                                const uint8_t* Attr_Data )
 959:Middlewares/ST/STM32_WPAN/ble/core/auto/ble_events.c **** {
 2645              		.loc 1 959 1 is_stmt 1 view -0
 2646              		.cfi_startproc
 2647              		@ args = 4, pretend = 0, frame = 0
 2648              		@ frame_needed = 0, uses_anonymous_args = 0
 2649              		@ link register save eliminated.
 960:Middlewares/ST/STM32_WPAN/ble/core/auto/ble_events.c **** }
 2650              		.loc 1 960 1 view .LVU401
 2651 0000 7047     		bx	lr
 2652              		.cfi_endproc
 2653              	.LFE90:
 2655              		.section	.text.aci_gatt_attribute_modified_event_process,"ax",%progbits
 2656              		.align	1
 2657              		.syntax unified
 2658              		.thumb
 2659              		.thumb_func
 2661              	aci_gatt_attribute_modified_event_process:
 2662              	.LVL221:
 2663              	.LFB91:
 961:Middlewares/ST/STM32_WPAN/ble/core/auto/ble_events.c **** 
 962:Middlewares/ST/STM32_WPAN/ble/core/auto/ble_events.c **** /* ACI_GATT_ATTRIBUTE_MODIFIED_EVENT process function */
 963:Middlewares/ST/STM32_WPAN/ble/core/auto/ble_events.c **** static void aci_gatt_attribute_modified_event_process( const uint8_t* in )
 964:Middlewares/ST/STM32_WPAN/ble/core/auto/ble_events.c **** {
 2664              		.loc 1 964 1 view -0
 2665              		.cfi_startproc
 2666              		@ args = 0, pretend = 0, frame = 0
 2667              		@ frame_needed = 0, uses_anonymous_args = 0
 2668              		.loc 1 964 1 is_stmt 0 view .LVU403
 2669 0000 00B5     		push	{lr}
 2670              	.LCFI69:
 2671              		.cfi_def_cfa_offset 4
 2672              		.cfi_offset 14, -4
ARM GAS  C:\Users\bku598\AppData\Local\Temp\cc3wINKy.s 			page 62


 2673 0002 83B0     		sub	sp, sp, #12
 2674              	.LCFI70:
 2675              		.cfi_def_cfa_offset 16
 965:Middlewares/ST/STM32_WPAN/ble/core/auto/ble_events.c ****   aci_gatt_attribute_modified_event_rp0 *rp0 = (void*)in;
 2676              		.loc 1 965 3 is_stmt 1 view .LVU404
 2677              	.LVL222:
 966:Middlewares/ST/STM32_WPAN/ble/core/auto/ble_events.c ****   aci_gatt_attribute_modified_event( rp0->Connection_Handle,
 2678              		.loc 1 966 3 view .LVU405
 967:Middlewares/ST/STM32_WPAN/ble/core/auto/ble_events.c ****                                      rp0->Attr_Handle,
 968:Middlewares/ST/STM32_WPAN/ble/core/auto/ble_events.c ****                                      rp0->Offset,
 969:Middlewares/ST/STM32_WPAN/ble/core/auto/ble_events.c ****                                      rp0->Attr_Data_Length,
 970:Middlewares/ST/STM32_WPAN/ble/core/auto/ble_events.c ****                                      rp0->Attr_Data );
 2679              		.loc 1 970 41 is_stmt 0 view .LVU406
 2680 0004 00F10803 		add	r3, r0, #8
 966:Middlewares/ST/STM32_WPAN/ble/core/auto/ble_events.c ****   aci_gatt_attribute_modified_event( rp0->Connection_Handle,
 2681              		.loc 1 966 3 view .LVU407
 2682 0008 0093     		str	r3, [sp]
 2683 000a C388     		ldrh	r3, [r0, #6]	@ unaligned
 2684 000c 8288     		ldrh	r2, [r0, #4]	@ unaligned
 2685 000e 4188     		ldrh	r1, [r0, #2]	@ unaligned
 2686 0010 0088     		ldrh	r0, [r0]	@ unaligned
 2687              	.LVL223:
 966:Middlewares/ST/STM32_WPAN/ble/core/auto/ble_events.c ****   aci_gatt_attribute_modified_event( rp0->Connection_Handle,
 2688              		.loc 1 966 3 view .LVU408
 2689 0012 FFF7FEFF 		bl	aci_gatt_attribute_modified_event
 2690              	.LVL224:
 971:Middlewares/ST/STM32_WPAN/ble/core/auto/ble_events.c **** }
 2691              		.loc 1 971 1 view .LVU409
 2692 0016 03B0     		add	sp, sp, #12
 2693              	.LCFI71:
 2694              		.cfi_def_cfa_offset 4
 2695              		@ sp needed
 2696 0018 5DF804FB 		ldr	pc, [sp], #4
 2697              		.cfi_endproc
 2698              	.LFE91:
 2700              		.section	.text.aci_gatt_proc_timeout_event,"ax",%progbits
 2701              		.align	1
 2702              		.weak	aci_gatt_proc_timeout_event
 2703              		.syntax unified
 2704              		.thumb
 2705              		.thumb_func
 2707              	aci_gatt_proc_timeout_event:
 2708              	.LVL225:
 2709              	.LFB92:
 972:Middlewares/ST/STM32_WPAN/ble/core/auto/ble_events.c **** 
 973:Middlewares/ST/STM32_WPAN/ble/core/auto/ble_events.c **** /* ACI_GATT_PROC_TIMEOUT_EVENT callback function */
 974:Middlewares/ST/STM32_WPAN/ble/core/auto/ble_events.c **** __WEAK void aci_gatt_proc_timeout_event( uint16_t Connection_Handle )
 975:Middlewares/ST/STM32_WPAN/ble/core/auto/ble_events.c **** {
 2710              		.loc 1 975 1 is_stmt 1 view -0
 2711              		.cfi_startproc
 2712              		@ args = 0, pretend = 0, frame = 0
 2713              		@ frame_needed = 0, uses_anonymous_args = 0
 2714              		@ link register save eliminated.
 976:Middlewares/ST/STM32_WPAN/ble/core/auto/ble_events.c **** }
 2715              		.loc 1 976 1 view .LVU411
 2716 0000 7047     		bx	lr
 2717              		.cfi_endproc
ARM GAS  C:\Users\bku598\AppData\Local\Temp\cc3wINKy.s 			page 63


 2718              	.LFE92:
 2720              		.section	.text.aci_gatt_proc_timeout_event_process,"ax",%progbits
 2721              		.align	1
 2722              		.syntax unified
 2723              		.thumb
 2724              		.thumb_func
 2726              	aci_gatt_proc_timeout_event_process:
 2727              	.LVL226:
 2728              	.LFB93:
 977:Middlewares/ST/STM32_WPAN/ble/core/auto/ble_events.c **** 
 978:Middlewares/ST/STM32_WPAN/ble/core/auto/ble_events.c **** /* ACI_GATT_PROC_TIMEOUT_EVENT process function */
 979:Middlewares/ST/STM32_WPAN/ble/core/auto/ble_events.c **** static void aci_gatt_proc_timeout_event_process( const uint8_t* in )
 980:Middlewares/ST/STM32_WPAN/ble/core/auto/ble_events.c **** {
 2729              		.loc 1 980 1 view -0
 2730              		.cfi_startproc
 2731              		@ args = 0, pretend = 0, frame = 0
 2732              		@ frame_needed = 0, uses_anonymous_args = 0
 2733              		.loc 1 980 1 is_stmt 0 view .LVU413
 2734 0000 08B5     		push	{r3, lr}
 2735              	.LCFI72:
 2736              		.cfi_def_cfa_offset 8
 2737              		.cfi_offset 3, -8
 2738              		.cfi_offset 14, -4
 981:Middlewares/ST/STM32_WPAN/ble/core/auto/ble_events.c ****   aci_gatt_proc_timeout_event_rp0 *rp0 = (void*)in;
 2739              		.loc 1 981 3 is_stmt 1 view .LVU414
 2740              	.LVL227:
 982:Middlewares/ST/STM32_WPAN/ble/core/auto/ble_events.c ****   aci_gatt_proc_timeout_event( rp0->Connection_Handle );
 2741              		.loc 1 982 3 view .LVU415
 2742 0002 0088     		ldrh	r0, [r0]	@ unaligned
 2743              	.LVL228:
 2744              		.loc 1 982 3 is_stmt 0 view .LVU416
 2745 0004 FFF7FEFF 		bl	aci_gatt_proc_timeout_event
 2746              	.LVL229:
 983:Middlewares/ST/STM32_WPAN/ble/core/auto/ble_events.c **** }
 2747              		.loc 1 983 1 view .LVU417
 2748 0008 08BD     		pop	{r3, pc}
 2749              		.cfi_endproc
 2750              	.LFE93:
 2752              		.section	.text.aci_att_exchange_mtu_resp_event,"ax",%progbits
 2753              		.align	1
 2754              		.weak	aci_att_exchange_mtu_resp_event
 2755              		.syntax unified
 2756              		.thumb
 2757              		.thumb_func
 2759              	aci_att_exchange_mtu_resp_event:
 2760              	.LVL230:
 2761              	.LFB94:
 984:Middlewares/ST/STM32_WPAN/ble/core/auto/ble_events.c **** 
 985:Middlewares/ST/STM32_WPAN/ble/core/auto/ble_events.c **** /* ACI_ATT_EXCHANGE_MTU_RESP_EVENT callback function */
 986:Middlewares/ST/STM32_WPAN/ble/core/auto/ble_events.c **** __WEAK void aci_att_exchange_mtu_resp_event( uint16_t Connection_Handle,
 987:Middlewares/ST/STM32_WPAN/ble/core/auto/ble_events.c ****                                              uint16_t Server_RX_MTU )
 988:Middlewares/ST/STM32_WPAN/ble/core/auto/ble_events.c **** {
 2762              		.loc 1 988 1 is_stmt 1 view -0
 2763              		.cfi_startproc
 2764              		@ args = 0, pretend = 0, frame = 0
 2765              		@ frame_needed = 0, uses_anonymous_args = 0
 2766              		@ link register save eliminated.
ARM GAS  C:\Users\bku598\AppData\Local\Temp\cc3wINKy.s 			page 64


 989:Middlewares/ST/STM32_WPAN/ble/core/auto/ble_events.c **** }
 2767              		.loc 1 989 1 view .LVU419
 2768 0000 7047     		bx	lr
 2769              		.cfi_endproc
 2770              	.LFE94:
 2772              		.section	.text.aci_att_exchange_mtu_resp_event_process,"ax",%progbits
 2773              		.align	1
 2774              		.syntax unified
 2775              		.thumb
 2776              		.thumb_func
 2778              	aci_att_exchange_mtu_resp_event_process:
 2779              	.LVL231:
 2780              	.LFB95:
 990:Middlewares/ST/STM32_WPAN/ble/core/auto/ble_events.c **** 
 991:Middlewares/ST/STM32_WPAN/ble/core/auto/ble_events.c **** /* ACI_ATT_EXCHANGE_MTU_RESP_EVENT process function */
 992:Middlewares/ST/STM32_WPAN/ble/core/auto/ble_events.c **** static void aci_att_exchange_mtu_resp_event_process( const uint8_t* in )
 993:Middlewares/ST/STM32_WPAN/ble/core/auto/ble_events.c **** {
 2781              		.loc 1 993 1 view -0
 2782              		.cfi_startproc
 2783              		@ args = 0, pretend = 0, frame = 0
 2784              		@ frame_needed = 0, uses_anonymous_args = 0
 2785              		.loc 1 993 1 is_stmt 0 view .LVU421
 2786 0000 08B5     		push	{r3, lr}
 2787              	.LCFI73:
 2788              		.cfi_def_cfa_offset 8
 2789              		.cfi_offset 3, -8
 2790              		.cfi_offset 14, -4
 994:Middlewares/ST/STM32_WPAN/ble/core/auto/ble_events.c ****   aci_att_exchange_mtu_resp_event_rp0 *rp0 = (void*)in;
 2791              		.loc 1 994 3 is_stmt 1 view .LVU422
 2792              	.LVL232:
 995:Middlewares/ST/STM32_WPAN/ble/core/auto/ble_events.c ****   aci_att_exchange_mtu_resp_event( rp0->Connection_Handle,
 2793              		.loc 1 995 3 view .LVU423
 2794 0002 4188     		ldrh	r1, [r0, #2]	@ unaligned
 2795 0004 0088     		ldrh	r0, [r0]	@ unaligned
 2796              	.LVL233:
 2797              		.loc 1 995 3 is_stmt 0 view .LVU424
 2798 0006 FFF7FEFF 		bl	aci_att_exchange_mtu_resp_event
 2799              	.LVL234:
 996:Middlewares/ST/STM32_WPAN/ble/core/auto/ble_events.c ****                                    rp0->Server_RX_MTU );
 997:Middlewares/ST/STM32_WPAN/ble/core/auto/ble_events.c **** }
 2800              		.loc 1 997 1 view .LVU425
 2801 000a 08BD     		pop	{r3, pc}
 2802              		.cfi_endproc
 2803              	.LFE95:
 2805              		.section	.text.aci_att_find_info_resp_event,"ax",%progbits
 2806              		.align	1
 2807              		.weak	aci_att_find_info_resp_event
 2808              		.syntax unified
 2809              		.thumb
 2810              		.thumb_func
 2812              	aci_att_find_info_resp_event:
 2813              	.LVL235:
 2814              	.LFB96:
 998:Middlewares/ST/STM32_WPAN/ble/core/auto/ble_events.c **** 
 999:Middlewares/ST/STM32_WPAN/ble/core/auto/ble_events.c **** /* ACI_ATT_FIND_INFO_RESP_EVENT callback function */
1000:Middlewares/ST/STM32_WPAN/ble/core/auto/ble_events.c **** __WEAK void aci_att_find_info_resp_event( uint16_t Connection_Handle,
1001:Middlewares/ST/STM32_WPAN/ble/core/auto/ble_events.c ****                                           uint8_t Format,
ARM GAS  C:\Users\bku598\AppData\Local\Temp\cc3wINKy.s 			page 65


1002:Middlewares/ST/STM32_WPAN/ble/core/auto/ble_events.c ****                                           uint8_t Event_Data_Length,
1003:Middlewares/ST/STM32_WPAN/ble/core/auto/ble_events.c ****                                           const uint8_t* Handle_UUID_Pair )
1004:Middlewares/ST/STM32_WPAN/ble/core/auto/ble_events.c **** {
 2815              		.loc 1 1004 1 is_stmt 1 view -0
 2816              		.cfi_startproc
 2817              		@ args = 0, pretend = 0, frame = 0
 2818              		@ frame_needed = 0, uses_anonymous_args = 0
 2819              		@ link register save eliminated.
1005:Middlewares/ST/STM32_WPAN/ble/core/auto/ble_events.c **** }
 2820              		.loc 1 1005 1 view .LVU427
 2821 0000 7047     		bx	lr
 2822              		.cfi_endproc
 2823              	.LFE96:
 2825              		.section	.text.aci_att_find_info_resp_event_process,"ax",%progbits
 2826              		.align	1
 2827              		.syntax unified
 2828              		.thumb
 2829              		.thumb_func
 2831              	aci_att_find_info_resp_event_process:
 2832              	.LVL236:
 2833              	.LFB97:
1006:Middlewares/ST/STM32_WPAN/ble/core/auto/ble_events.c **** 
1007:Middlewares/ST/STM32_WPAN/ble/core/auto/ble_events.c **** /* ACI_ATT_FIND_INFO_RESP_EVENT process function */
1008:Middlewares/ST/STM32_WPAN/ble/core/auto/ble_events.c **** static void aci_att_find_info_resp_event_process( const uint8_t* in )
1009:Middlewares/ST/STM32_WPAN/ble/core/auto/ble_events.c **** {
 2834              		.loc 1 1009 1 view -0
 2835              		.cfi_startproc
 2836              		@ args = 0, pretend = 0, frame = 0
 2837              		@ frame_needed = 0, uses_anonymous_args = 0
 2838              		.loc 1 1009 1 is_stmt 0 view .LVU429
 2839 0000 08B5     		push	{r3, lr}
 2840              	.LCFI74:
 2841              		.cfi_def_cfa_offset 8
 2842              		.cfi_offset 3, -8
 2843              		.cfi_offset 14, -4
1010:Middlewares/ST/STM32_WPAN/ble/core/auto/ble_events.c ****   aci_att_find_info_resp_event_rp0 *rp0 = (void*)in;
 2844              		.loc 1 1010 3 is_stmt 1 view .LVU430
 2845              	.LVL237:
1011:Middlewares/ST/STM32_WPAN/ble/core/auto/ble_events.c ****   aci_att_find_info_resp_event( rp0->Connection_Handle,
 2846              		.loc 1 1011 3 view .LVU431
 2847 0002 031D     		adds	r3, r0, #4
 2848 0004 C278     		ldrb	r2, [r0, #3]	@ zero_extendqisi2
 2849 0006 8178     		ldrb	r1, [r0, #2]	@ zero_extendqisi2
 2850 0008 0088     		ldrh	r0, [r0]	@ unaligned
 2851              	.LVL238:
 2852              		.loc 1 1011 3 is_stmt 0 view .LVU432
 2853 000a FFF7FEFF 		bl	aci_att_find_info_resp_event
 2854              	.LVL239:
1012:Middlewares/ST/STM32_WPAN/ble/core/auto/ble_events.c ****                                 rp0->Format,
1013:Middlewares/ST/STM32_WPAN/ble/core/auto/ble_events.c ****                                 rp0->Event_Data_Length,
1014:Middlewares/ST/STM32_WPAN/ble/core/auto/ble_events.c ****                                 rp0->Handle_UUID_Pair );
1015:Middlewares/ST/STM32_WPAN/ble/core/auto/ble_events.c **** }
 2855              		.loc 1 1015 1 view .LVU433
 2856 000e 08BD     		pop	{r3, pc}
 2857              		.cfi_endproc
 2858              	.LFE97:
 2860              		.section	.text.aci_att_find_by_type_value_resp_event,"ax",%progbits
ARM GAS  C:\Users\bku598\AppData\Local\Temp\cc3wINKy.s 			page 66


 2861              		.align	1
 2862              		.weak	aci_att_find_by_type_value_resp_event
 2863              		.syntax unified
 2864              		.thumb
 2865              		.thumb_func
 2867              	aci_att_find_by_type_value_resp_event:
 2868              	.LVL240:
 2869              	.LFB98:
1016:Middlewares/ST/STM32_WPAN/ble/core/auto/ble_events.c **** 
1017:Middlewares/ST/STM32_WPAN/ble/core/auto/ble_events.c **** /* ACI_ATT_FIND_BY_TYPE_VALUE_RESP_EVENT callback function */
1018:Middlewares/ST/STM32_WPAN/ble/core/auto/ble_events.c **** __WEAK void aci_att_find_by_type_value_resp_event( uint16_t Connection_Handle,
1019:Middlewares/ST/STM32_WPAN/ble/core/auto/ble_events.c ****                                                    uint8_t Num_of_Handle_Pair,
1020:Middlewares/ST/STM32_WPAN/ble/core/auto/ble_events.c ****                                                    const Attribute_Group_Handle_Pair_t* Attribute_G
1021:Middlewares/ST/STM32_WPAN/ble/core/auto/ble_events.c **** {
 2870              		.loc 1 1021 1 is_stmt 1 view -0
 2871              		.cfi_startproc
 2872              		@ args = 0, pretend = 0, frame = 0
 2873              		@ frame_needed = 0, uses_anonymous_args = 0
 2874              		@ link register save eliminated.
1022:Middlewares/ST/STM32_WPAN/ble/core/auto/ble_events.c **** }
 2875              		.loc 1 1022 1 view .LVU435
 2876 0000 7047     		bx	lr
 2877              		.cfi_endproc
 2878              	.LFE98:
 2880              		.section	.text.aci_att_find_by_type_value_resp_event_process,"ax",%progbits
 2881              		.align	1
 2882              		.syntax unified
 2883              		.thumb
 2884              		.thumb_func
 2886              	aci_att_find_by_type_value_resp_event_process:
 2887              	.LVL241:
 2888              	.LFB99:
1023:Middlewares/ST/STM32_WPAN/ble/core/auto/ble_events.c **** 
1024:Middlewares/ST/STM32_WPAN/ble/core/auto/ble_events.c **** /* ACI_ATT_FIND_BY_TYPE_VALUE_RESP_EVENT process function */
1025:Middlewares/ST/STM32_WPAN/ble/core/auto/ble_events.c **** static void aci_att_find_by_type_value_resp_event_process( const uint8_t* in )
1026:Middlewares/ST/STM32_WPAN/ble/core/auto/ble_events.c **** {
 2889              		.loc 1 1026 1 view -0
 2890              		.cfi_startproc
 2891              		@ args = 0, pretend = 0, frame = 0
 2892              		@ frame_needed = 0, uses_anonymous_args = 0
 2893              		.loc 1 1026 1 is_stmt 0 view .LVU437
 2894 0000 08B5     		push	{r3, lr}
 2895              	.LCFI75:
 2896              		.cfi_def_cfa_offset 8
 2897              		.cfi_offset 3, -8
 2898              		.cfi_offset 14, -4
1027:Middlewares/ST/STM32_WPAN/ble/core/auto/ble_events.c ****   aci_att_find_by_type_value_resp_event_rp0 *rp0 = (void*)in;
 2899              		.loc 1 1027 3 is_stmt 1 view .LVU438
 2900              	.LVL242:
1028:Middlewares/ST/STM32_WPAN/ble/core/auto/ble_events.c ****   aci_att_find_by_type_value_resp_event( rp0->Connection_Handle,
 2901              		.loc 1 1028 3 view .LVU439
 2902 0002 C21C     		adds	r2, r0, #3
 2903 0004 8178     		ldrb	r1, [r0, #2]	@ zero_extendqisi2
 2904 0006 0088     		ldrh	r0, [r0]	@ unaligned
 2905              	.LVL243:
 2906              		.loc 1 1028 3 is_stmt 0 view .LVU440
 2907 0008 FFF7FEFF 		bl	aci_att_find_by_type_value_resp_event
ARM GAS  C:\Users\bku598\AppData\Local\Temp\cc3wINKy.s 			page 67


 2908              	.LVL244:
1029:Middlewares/ST/STM32_WPAN/ble/core/auto/ble_events.c ****                                          rp0->Num_of_Handle_Pair,
1030:Middlewares/ST/STM32_WPAN/ble/core/auto/ble_events.c ****                                          rp0->Attribute_Group_Handle_Pair );
1031:Middlewares/ST/STM32_WPAN/ble/core/auto/ble_events.c **** }
 2909              		.loc 1 1031 1 view .LVU441
 2910 000c 08BD     		pop	{r3, pc}
 2911              		.cfi_endproc
 2912              	.LFE99:
 2914              		.section	.text.aci_att_read_by_type_resp_event,"ax",%progbits
 2915              		.align	1
 2916              		.weak	aci_att_read_by_type_resp_event
 2917              		.syntax unified
 2918              		.thumb
 2919              		.thumb_func
 2921              	aci_att_read_by_type_resp_event:
 2922              	.LVL245:
 2923              	.LFB100:
1032:Middlewares/ST/STM32_WPAN/ble/core/auto/ble_events.c **** 
1033:Middlewares/ST/STM32_WPAN/ble/core/auto/ble_events.c **** /* ACI_ATT_READ_BY_TYPE_RESP_EVENT callback function */
1034:Middlewares/ST/STM32_WPAN/ble/core/auto/ble_events.c **** __WEAK void aci_att_read_by_type_resp_event( uint16_t Connection_Handle,
1035:Middlewares/ST/STM32_WPAN/ble/core/auto/ble_events.c ****                                              uint8_t Handle_Value_Pair_Length,
1036:Middlewares/ST/STM32_WPAN/ble/core/auto/ble_events.c ****                                              uint8_t Data_Length,
1037:Middlewares/ST/STM32_WPAN/ble/core/auto/ble_events.c ****                                              const uint8_t* Handle_Value_Pair_Data )
1038:Middlewares/ST/STM32_WPAN/ble/core/auto/ble_events.c **** {
 2924              		.loc 1 1038 1 is_stmt 1 view -0
 2925              		.cfi_startproc
 2926              		@ args = 0, pretend = 0, frame = 0
 2927              		@ frame_needed = 0, uses_anonymous_args = 0
 2928              		@ link register save eliminated.
1039:Middlewares/ST/STM32_WPAN/ble/core/auto/ble_events.c **** }
 2929              		.loc 1 1039 1 view .LVU443
 2930 0000 7047     		bx	lr
 2931              		.cfi_endproc
 2932              	.LFE100:
 2934              		.section	.text.aci_att_read_by_type_resp_event_process,"ax",%progbits
 2935              		.align	1
 2936              		.syntax unified
 2937              		.thumb
 2938              		.thumb_func
 2940              	aci_att_read_by_type_resp_event_process:
 2941              	.LVL246:
 2942              	.LFB101:
1040:Middlewares/ST/STM32_WPAN/ble/core/auto/ble_events.c **** 
1041:Middlewares/ST/STM32_WPAN/ble/core/auto/ble_events.c **** /* ACI_ATT_READ_BY_TYPE_RESP_EVENT process function */
1042:Middlewares/ST/STM32_WPAN/ble/core/auto/ble_events.c **** static void aci_att_read_by_type_resp_event_process( const uint8_t* in )
1043:Middlewares/ST/STM32_WPAN/ble/core/auto/ble_events.c **** {
 2943              		.loc 1 1043 1 view -0
 2944              		.cfi_startproc
 2945              		@ args = 0, pretend = 0, frame = 0
 2946              		@ frame_needed = 0, uses_anonymous_args = 0
 2947              		.loc 1 1043 1 is_stmt 0 view .LVU445
 2948 0000 08B5     		push	{r3, lr}
 2949              	.LCFI76:
 2950              		.cfi_def_cfa_offset 8
 2951              		.cfi_offset 3, -8
 2952              		.cfi_offset 14, -4
1044:Middlewares/ST/STM32_WPAN/ble/core/auto/ble_events.c ****   aci_att_read_by_type_resp_event_rp0 *rp0 = (void*)in;
ARM GAS  C:\Users\bku598\AppData\Local\Temp\cc3wINKy.s 			page 68


 2953              		.loc 1 1044 3 is_stmt 1 view .LVU446
 2954              	.LVL247:
1045:Middlewares/ST/STM32_WPAN/ble/core/auto/ble_events.c ****   aci_att_read_by_type_resp_event( rp0->Connection_Handle,
 2955              		.loc 1 1045 3 view .LVU447
 2956 0002 031D     		adds	r3, r0, #4
 2957 0004 C278     		ldrb	r2, [r0, #3]	@ zero_extendqisi2
 2958 0006 8178     		ldrb	r1, [r0, #2]	@ zero_extendqisi2
 2959 0008 0088     		ldrh	r0, [r0]	@ unaligned
 2960              	.LVL248:
 2961              		.loc 1 1045 3 is_stmt 0 view .LVU448
 2962 000a FFF7FEFF 		bl	aci_att_read_by_type_resp_event
 2963              	.LVL249:
1046:Middlewares/ST/STM32_WPAN/ble/core/auto/ble_events.c ****                                    rp0->Handle_Value_Pair_Length,
1047:Middlewares/ST/STM32_WPAN/ble/core/auto/ble_events.c ****                                    rp0->Data_Length,
1048:Middlewares/ST/STM32_WPAN/ble/core/auto/ble_events.c ****                                    rp0->Handle_Value_Pair_Data );
1049:Middlewares/ST/STM32_WPAN/ble/core/auto/ble_events.c **** }
 2964              		.loc 1 1049 1 view .LVU449
 2965 000e 08BD     		pop	{r3, pc}
 2966              		.cfi_endproc
 2967              	.LFE101:
 2969              		.section	.text.aci_att_read_resp_event,"ax",%progbits
 2970              		.align	1
 2971              		.weak	aci_att_read_resp_event
 2972              		.syntax unified
 2973              		.thumb
 2974              		.thumb_func
 2976              	aci_att_read_resp_event:
 2977              	.LVL250:
 2978              	.LFB102:
1050:Middlewares/ST/STM32_WPAN/ble/core/auto/ble_events.c **** 
1051:Middlewares/ST/STM32_WPAN/ble/core/auto/ble_events.c **** /* ACI_ATT_READ_RESP_EVENT callback function */
1052:Middlewares/ST/STM32_WPAN/ble/core/auto/ble_events.c **** __WEAK void aci_att_read_resp_event( uint16_t Connection_Handle,
1053:Middlewares/ST/STM32_WPAN/ble/core/auto/ble_events.c ****                                      uint8_t Event_Data_Length,
1054:Middlewares/ST/STM32_WPAN/ble/core/auto/ble_events.c ****                                      const uint8_t* Attribute_Value )
1055:Middlewares/ST/STM32_WPAN/ble/core/auto/ble_events.c **** {
 2979              		.loc 1 1055 1 is_stmt 1 view -0
 2980              		.cfi_startproc
 2981              		@ args = 0, pretend = 0, frame = 0
 2982              		@ frame_needed = 0, uses_anonymous_args = 0
 2983              		@ link register save eliminated.
1056:Middlewares/ST/STM32_WPAN/ble/core/auto/ble_events.c **** }
 2984              		.loc 1 1056 1 view .LVU451
 2985 0000 7047     		bx	lr
 2986              		.cfi_endproc
 2987              	.LFE102:
 2989              		.section	.text.aci_att_read_resp_event_process,"ax",%progbits
 2990              		.align	1
 2991              		.syntax unified
 2992              		.thumb
 2993              		.thumb_func
 2995              	aci_att_read_resp_event_process:
 2996              	.LVL251:
 2997              	.LFB103:
1057:Middlewares/ST/STM32_WPAN/ble/core/auto/ble_events.c **** 
1058:Middlewares/ST/STM32_WPAN/ble/core/auto/ble_events.c **** /* ACI_ATT_READ_RESP_EVENT process function */
1059:Middlewares/ST/STM32_WPAN/ble/core/auto/ble_events.c **** static void aci_att_read_resp_event_process( const uint8_t* in )
1060:Middlewares/ST/STM32_WPAN/ble/core/auto/ble_events.c **** {
ARM GAS  C:\Users\bku598\AppData\Local\Temp\cc3wINKy.s 			page 69


 2998              		.loc 1 1060 1 view -0
 2999              		.cfi_startproc
 3000              		@ args = 0, pretend = 0, frame = 0
 3001              		@ frame_needed = 0, uses_anonymous_args = 0
 3002              		.loc 1 1060 1 is_stmt 0 view .LVU453
 3003 0000 08B5     		push	{r3, lr}
 3004              	.LCFI77:
 3005              		.cfi_def_cfa_offset 8
 3006              		.cfi_offset 3, -8
 3007              		.cfi_offset 14, -4
1061:Middlewares/ST/STM32_WPAN/ble/core/auto/ble_events.c ****   aci_att_read_resp_event_rp0 *rp0 = (void*)in;
 3008              		.loc 1 1061 3 is_stmt 1 view .LVU454
 3009              	.LVL252:
1062:Middlewares/ST/STM32_WPAN/ble/core/auto/ble_events.c ****   aci_att_read_resp_event( rp0->Connection_Handle,
 3010              		.loc 1 1062 3 view .LVU455
 3011 0002 C21C     		adds	r2, r0, #3
 3012 0004 8178     		ldrb	r1, [r0, #2]	@ zero_extendqisi2
 3013 0006 0088     		ldrh	r0, [r0]	@ unaligned
 3014              	.LVL253:
 3015              		.loc 1 1062 3 is_stmt 0 view .LVU456
 3016 0008 FFF7FEFF 		bl	aci_att_read_resp_event
 3017              	.LVL254:
1063:Middlewares/ST/STM32_WPAN/ble/core/auto/ble_events.c ****                            rp0->Event_Data_Length,
1064:Middlewares/ST/STM32_WPAN/ble/core/auto/ble_events.c ****                            rp0->Attribute_Value );
1065:Middlewares/ST/STM32_WPAN/ble/core/auto/ble_events.c **** }
 3018              		.loc 1 1065 1 view .LVU457
 3019 000c 08BD     		pop	{r3, pc}
 3020              		.cfi_endproc
 3021              	.LFE103:
 3023              		.section	.text.aci_att_read_blob_resp_event,"ax",%progbits
 3024              		.align	1
 3025              		.weak	aci_att_read_blob_resp_event
 3026              		.syntax unified
 3027              		.thumb
 3028              		.thumb_func
 3030              	aci_att_read_blob_resp_event:
 3031              	.LVL255:
 3032              	.LFB104:
1066:Middlewares/ST/STM32_WPAN/ble/core/auto/ble_events.c **** 
1067:Middlewares/ST/STM32_WPAN/ble/core/auto/ble_events.c **** /* ACI_ATT_READ_BLOB_RESP_EVENT callback function */
1068:Middlewares/ST/STM32_WPAN/ble/core/auto/ble_events.c **** __WEAK void aci_att_read_blob_resp_event( uint16_t Connection_Handle,
1069:Middlewares/ST/STM32_WPAN/ble/core/auto/ble_events.c ****                                           uint8_t Event_Data_Length,
1070:Middlewares/ST/STM32_WPAN/ble/core/auto/ble_events.c ****                                           const uint8_t* Attribute_Value )
1071:Middlewares/ST/STM32_WPAN/ble/core/auto/ble_events.c **** {
 3033              		.loc 1 1071 1 is_stmt 1 view -0
 3034              		.cfi_startproc
 3035              		@ args = 0, pretend = 0, frame = 0
 3036              		@ frame_needed = 0, uses_anonymous_args = 0
 3037              		@ link register save eliminated.
1072:Middlewares/ST/STM32_WPAN/ble/core/auto/ble_events.c **** }
 3038              		.loc 1 1072 1 view .LVU459
 3039 0000 7047     		bx	lr
 3040              		.cfi_endproc
 3041              	.LFE104:
 3043              		.section	.text.aci_att_read_blob_resp_event_process,"ax",%progbits
 3044              		.align	1
 3045              		.syntax unified
ARM GAS  C:\Users\bku598\AppData\Local\Temp\cc3wINKy.s 			page 70


 3046              		.thumb
 3047              		.thumb_func
 3049              	aci_att_read_blob_resp_event_process:
 3050              	.LVL256:
 3051              	.LFB105:
1073:Middlewares/ST/STM32_WPAN/ble/core/auto/ble_events.c **** 
1074:Middlewares/ST/STM32_WPAN/ble/core/auto/ble_events.c **** /* ACI_ATT_READ_BLOB_RESP_EVENT process function */
1075:Middlewares/ST/STM32_WPAN/ble/core/auto/ble_events.c **** static void aci_att_read_blob_resp_event_process( const uint8_t* in )
1076:Middlewares/ST/STM32_WPAN/ble/core/auto/ble_events.c **** {
 3052              		.loc 1 1076 1 view -0
 3053              		.cfi_startproc
 3054              		@ args = 0, pretend = 0, frame = 0
 3055              		@ frame_needed = 0, uses_anonymous_args = 0
 3056              		.loc 1 1076 1 is_stmt 0 view .LVU461
 3057 0000 08B5     		push	{r3, lr}
 3058              	.LCFI78:
 3059              		.cfi_def_cfa_offset 8
 3060              		.cfi_offset 3, -8
 3061              		.cfi_offset 14, -4
1077:Middlewares/ST/STM32_WPAN/ble/core/auto/ble_events.c ****   aci_att_read_blob_resp_event_rp0 *rp0 = (void*)in;
 3062              		.loc 1 1077 3 is_stmt 1 view .LVU462
 3063              	.LVL257:
1078:Middlewares/ST/STM32_WPAN/ble/core/auto/ble_events.c ****   aci_att_read_blob_resp_event( rp0->Connection_Handle,
 3064              		.loc 1 1078 3 view .LVU463
 3065 0002 C21C     		adds	r2, r0, #3
 3066 0004 8178     		ldrb	r1, [r0, #2]	@ zero_extendqisi2
 3067 0006 0088     		ldrh	r0, [r0]	@ unaligned
 3068              	.LVL258:
 3069              		.loc 1 1078 3 is_stmt 0 view .LVU464
 3070 0008 FFF7FEFF 		bl	aci_att_read_blob_resp_event
 3071              	.LVL259:
1079:Middlewares/ST/STM32_WPAN/ble/core/auto/ble_events.c ****                                 rp0->Event_Data_Length,
1080:Middlewares/ST/STM32_WPAN/ble/core/auto/ble_events.c ****                                 rp0->Attribute_Value );
1081:Middlewares/ST/STM32_WPAN/ble/core/auto/ble_events.c **** }
 3072              		.loc 1 1081 1 view .LVU465
 3073 000c 08BD     		pop	{r3, pc}
 3074              		.cfi_endproc
 3075              	.LFE105:
 3077              		.section	.text.aci_att_read_multiple_resp_event,"ax",%progbits
 3078              		.align	1
 3079              		.weak	aci_att_read_multiple_resp_event
 3080              		.syntax unified
 3081              		.thumb
 3082              		.thumb_func
 3084              	aci_att_read_multiple_resp_event:
 3085              	.LVL260:
 3086              	.LFB106:
1082:Middlewares/ST/STM32_WPAN/ble/core/auto/ble_events.c **** 
1083:Middlewares/ST/STM32_WPAN/ble/core/auto/ble_events.c **** /* ACI_ATT_READ_MULTIPLE_RESP_EVENT callback function */
1084:Middlewares/ST/STM32_WPAN/ble/core/auto/ble_events.c **** __WEAK void aci_att_read_multiple_resp_event( uint16_t Connection_Handle,
1085:Middlewares/ST/STM32_WPAN/ble/core/auto/ble_events.c ****                                               uint8_t Event_Data_Length,
1086:Middlewares/ST/STM32_WPAN/ble/core/auto/ble_events.c ****                                               const uint8_t* Set_Of_Values )
1087:Middlewares/ST/STM32_WPAN/ble/core/auto/ble_events.c **** {
 3087              		.loc 1 1087 1 is_stmt 1 view -0
 3088              		.cfi_startproc
 3089              		@ args = 0, pretend = 0, frame = 0
 3090              		@ frame_needed = 0, uses_anonymous_args = 0
ARM GAS  C:\Users\bku598\AppData\Local\Temp\cc3wINKy.s 			page 71


 3091              		@ link register save eliminated.
1088:Middlewares/ST/STM32_WPAN/ble/core/auto/ble_events.c **** }
 3092              		.loc 1 1088 1 view .LVU467
 3093 0000 7047     		bx	lr
 3094              		.cfi_endproc
 3095              	.LFE106:
 3097              		.section	.text.aci_att_read_multiple_resp_event_process,"ax",%progbits
 3098              		.align	1
 3099              		.syntax unified
 3100              		.thumb
 3101              		.thumb_func
 3103              	aci_att_read_multiple_resp_event_process:
 3104              	.LVL261:
 3105              	.LFB107:
1089:Middlewares/ST/STM32_WPAN/ble/core/auto/ble_events.c **** 
1090:Middlewares/ST/STM32_WPAN/ble/core/auto/ble_events.c **** /* ACI_ATT_READ_MULTIPLE_RESP_EVENT process function */
1091:Middlewares/ST/STM32_WPAN/ble/core/auto/ble_events.c **** static void aci_att_read_multiple_resp_event_process( const uint8_t* in )
1092:Middlewares/ST/STM32_WPAN/ble/core/auto/ble_events.c **** {
 3106              		.loc 1 1092 1 view -0
 3107              		.cfi_startproc
 3108              		@ args = 0, pretend = 0, frame = 0
 3109              		@ frame_needed = 0, uses_anonymous_args = 0
 3110              		.loc 1 1092 1 is_stmt 0 view .LVU469
 3111 0000 08B5     		push	{r3, lr}
 3112              	.LCFI79:
 3113              		.cfi_def_cfa_offset 8
 3114              		.cfi_offset 3, -8
 3115              		.cfi_offset 14, -4
1093:Middlewares/ST/STM32_WPAN/ble/core/auto/ble_events.c ****   aci_att_read_multiple_resp_event_rp0 *rp0 = (void*)in;
 3116              		.loc 1 1093 3 is_stmt 1 view .LVU470
 3117              	.LVL262:
1094:Middlewares/ST/STM32_WPAN/ble/core/auto/ble_events.c ****   aci_att_read_multiple_resp_event( rp0->Connection_Handle,
 3118              		.loc 1 1094 3 view .LVU471
 3119 0002 C21C     		adds	r2, r0, #3
 3120 0004 8178     		ldrb	r1, [r0, #2]	@ zero_extendqisi2
 3121 0006 0088     		ldrh	r0, [r0]	@ unaligned
 3122              	.LVL263:
 3123              		.loc 1 1094 3 is_stmt 0 view .LVU472
 3124 0008 FFF7FEFF 		bl	aci_att_read_multiple_resp_event
 3125              	.LVL264:
1095:Middlewares/ST/STM32_WPAN/ble/core/auto/ble_events.c ****                                     rp0->Event_Data_Length,
1096:Middlewares/ST/STM32_WPAN/ble/core/auto/ble_events.c ****                                     rp0->Set_Of_Values );
1097:Middlewares/ST/STM32_WPAN/ble/core/auto/ble_events.c **** }
 3126              		.loc 1 1097 1 view .LVU473
 3127 000c 08BD     		pop	{r3, pc}
 3128              		.cfi_endproc
 3129              	.LFE107:
 3131              		.section	.text.aci_att_read_by_group_type_resp_event,"ax",%progbits
 3132              		.align	1
 3133              		.weak	aci_att_read_by_group_type_resp_event
 3134              		.syntax unified
 3135              		.thumb
 3136              		.thumb_func
 3138              	aci_att_read_by_group_type_resp_event:
 3139              	.LVL265:
 3140              	.LFB108:
1098:Middlewares/ST/STM32_WPAN/ble/core/auto/ble_events.c **** 
ARM GAS  C:\Users\bku598\AppData\Local\Temp\cc3wINKy.s 			page 72


1099:Middlewares/ST/STM32_WPAN/ble/core/auto/ble_events.c **** /* ACI_ATT_READ_BY_GROUP_TYPE_RESP_EVENT callback function */
1100:Middlewares/ST/STM32_WPAN/ble/core/auto/ble_events.c **** __WEAK void aci_att_read_by_group_type_resp_event( uint16_t Connection_Handle,
1101:Middlewares/ST/STM32_WPAN/ble/core/auto/ble_events.c ****                                                    uint8_t Attribute_Data_Length,
1102:Middlewares/ST/STM32_WPAN/ble/core/auto/ble_events.c ****                                                    uint8_t Data_Length,
1103:Middlewares/ST/STM32_WPAN/ble/core/auto/ble_events.c ****                                                    const uint8_t* Attribute_Data_List )
1104:Middlewares/ST/STM32_WPAN/ble/core/auto/ble_events.c **** {
 3141              		.loc 1 1104 1 is_stmt 1 view -0
 3142              		.cfi_startproc
 3143              		@ args = 0, pretend = 0, frame = 0
 3144              		@ frame_needed = 0, uses_anonymous_args = 0
 3145              		@ link register save eliminated.
1105:Middlewares/ST/STM32_WPAN/ble/core/auto/ble_events.c **** }
 3146              		.loc 1 1105 1 view .LVU475
 3147 0000 7047     		bx	lr
 3148              		.cfi_endproc
 3149              	.LFE108:
 3151              		.section	.text.aci_att_read_by_group_type_resp_event_process,"ax",%progbits
 3152              		.align	1
 3153              		.syntax unified
 3154              		.thumb
 3155              		.thumb_func
 3157              	aci_att_read_by_group_type_resp_event_process:
 3158              	.LVL266:
 3159              	.LFB109:
1106:Middlewares/ST/STM32_WPAN/ble/core/auto/ble_events.c **** 
1107:Middlewares/ST/STM32_WPAN/ble/core/auto/ble_events.c **** /* ACI_ATT_READ_BY_GROUP_TYPE_RESP_EVENT process function */
1108:Middlewares/ST/STM32_WPAN/ble/core/auto/ble_events.c **** static void aci_att_read_by_group_type_resp_event_process( const uint8_t* in )
1109:Middlewares/ST/STM32_WPAN/ble/core/auto/ble_events.c **** {
 3160              		.loc 1 1109 1 view -0
 3161              		.cfi_startproc
 3162              		@ args = 0, pretend = 0, frame = 0
 3163              		@ frame_needed = 0, uses_anonymous_args = 0
 3164              		.loc 1 1109 1 is_stmt 0 view .LVU477
 3165 0000 08B5     		push	{r3, lr}
 3166              	.LCFI80:
 3167              		.cfi_def_cfa_offset 8
 3168              		.cfi_offset 3, -8
 3169              		.cfi_offset 14, -4
1110:Middlewares/ST/STM32_WPAN/ble/core/auto/ble_events.c ****   aci_att_read_by_group_type_resp_event_rp0 *rp0 = (void*)in;
 3170              		.loc 1 1110 3 is_stmt 1 view .LVU478
 3171              	.LVL267:
1111:Middlewares/ST/STM32_WPAN/ble/core/auto/ble_events.c ****   aci_att_read_by_group_type_resp_event( rp0->Connection_Handle,
 3172              		.loc 1 1111 3 view .LVU479
 3173 0002 031D     		adds	r3, r0, #4
 3174 0004 C278     		ldrb	r2, [r0, #3]	@ zero_extendqisi2
 3175 0006 8178     		ldrb	r1, [r0, #2]	@ zero_extendqisi2
 3176 0008 0088     		ldrh	r0, [r0]	@ unaligned
 3177              	.LVL268:
 3178              		.loc 1 1111 3 is_stmt 0 view .LVU480
 3179 000a FFF7FEFF 		bl	aci_att_read_by_group_type_resp_event
 3180              	.LVL269:
1112:Middlewares/ST/STM32_WPAN/ble/core/auto/ble_events.c ****                                          rp0->Attribute_Data_Length,
1113:Middlewares/ST/STM32_WPAN/ble/core/auto/ble_events.c ****                                          rp0->Data_Length,
1114:Middlewares/ST/STM32_WPAN/ble/core/auto/ble_events.c ****                                          rp0->Attribute_Data_List );
1115:Middlewares/ST/STM32_WPAN/ble/core/auto/ble_events.c **** }
 3181              		.loc 1 1115 1 view .LVU481
 3182 000e 08BD     		pop	{r3, pc}
ARM GAS  C:\Users\bku598\AppData\Local\Temp\cc3wINKy.s 			page 73


 3183              		.cfi_endproc
 3184              	.LFE109:
 3186              		.section	.text.aci_att_prepare_write_resp_event,"ax",%progbits
 3187              		.align	1
 3188              		.weak	aci_att_prepare_write_resp_event
 3189              		.syntax unified
 3190              		.thumb
 3191              		.thumb_func
 3193              	aci_att_prepare_write_resp_event:
 3194              	.LVL270:
 3195              	.LFB110:
1116:Middlewares/ST/STM32_WPAN/ble/core/auto/ble_events.c **** 
1117:Middlewares/ST/STM32_WPAN/ble/core/auto/ble_events.c **** /* ACI_ATT_PREPARE_WRITE_RESP_EVENT callback function */
1118:Middlewares/ST/STM32_WPAN/ble/core/auto/ble_events.c **** __WEAK void aci_att_prepare_write_resp_event( uint16_t Connection_Handle,
1119:Middlewares/ST/STM32_WPAN/ble/core/auto/ble_events.c ****                                               uint16_t Attribute_Handle,
1120:Middlewares/ST/STM32_WPAN/ble/core/auto/ble_events.c ****                                               uint16_t Offset,
1121:Middlewares/ST/STM32_WPAN/ble/core/auto/ble_events.c ****                                               uint8_t Part_Attribute_Value_Length,
1122:Middlewares/ST/STM32_WPAN/ble/core/auto/ble_events.c ****                                               const uint8_t* Part_Attribute_Value )
1123:Middlewares/ST/STM32_WPAN/ble/core/auto/ble_events.c **** {
 3196              		.loc 1 1123 1 is_stmt 1 view -0
 3197              		.cfi_startproc
 3198              		@ args = 4, pretend = 0, frame = 0
 3199              		@ frame_needed = 0, uses_anonymous_args = 0
 3200              		@ link register save eliminated.
1124:Middlewares/ST/STM32_WPAN/ble/core/auto/ble_events.c **** }
 3201              		.loc 1 1124 1 view .LVU483
 3202 0000 7047     		bx	lr
 3203              		.cfi_endproc
 3204              	.LFE110:
 3206              		.section	.text.aci_att_prepare_write_resp_event_process,"ax",%progbits
 3207              		.align	1
 3208              		.syntax unified
 3209              		.thumb
 3210              		.thumb_func
 3212              	aci_att_prepare_write_resp_event_process:
 3213              	.LVL271:
 3214              	.LFB111:
1125:Middlewares/ST/STM32_WPAN/ble/core/auto/ble_events.c **** 
1126:Middlewares/ST/STM32_WPAN/ble/core/auto/ble_events.c **** /* ACI_ATT_PREPARE_WRITE_RESP_EVENT process function */
1127:Middlewares/ST/STM32_WPAN/ble/core/auto/ble_events.c **** static void aci_att_prepare_write_resp_event_process( const uint8_t* in )
1128:Middlewares/ST/STM32_WPAN/ble/core/auto/ble_events.c **** {
 3215              		.loc 1 1128 1 view -0
 3216              		.cfi_startproc
 3217              		@ args = 0, pretend = 0, frame = 0
 3218              		@ frame_needed = 0, uses_anonymous_args = 0
 3219              		.loc 1 1128 1 is_stmt 0 view .LVU485
 3220 0000 00B5     		push	{lr}
 3221              	.LCFI81:
 3222              		.cfi_def_cfa_offset 4
 3223              		.cfi_offset 14, -4
 3224 0002 83B0     		sub	sp, sp, #12
 3225              	.LCFI82:
 3226              		.cfi_def_cfa_offset 16
1129:Middlewares/ST/STM32_WPAN/ble/core/auto/ble_events.c ****   aci_att_prepare_write_resp_event_rp0 *rp0 = (void*)in;
 3227              		.loc 1 1129 3 is_stmt 1 view .LVU486
 3228              	.LVL272:
1130:Middlewares/ST/STM32_WPAN/ble/core/auto/ble_events.c ****   aci_att_prepare_write_resp_event( rp0->Connection_Handle,
ARM GAS  C:\Users\bku598\AppData\Local\Temp\cc3wINKy.s 			page 74


 3229              		.loc 1 1130 3 view .LVU487
1131:Middlewares/ST/STM32_WPAN/ble/core/auto/ble_events.c ****                                     rp0->Attribute_Handle,
1132:Middlewares/ST/STM32_WPAN/ble/core/auto/ble_events.c ****                                     rp0->Offset,
1133:Middlewares/ST/STM32_WPAN/ble/core/auto/ble_events.c ****                                     rp0->Part_Attribute_Value_Length,
1134:Middlewares/ST/STM32_WPAN/ble/core/auto/ble_events.c ****                                     rp0->Part_Attribute_Value );
 3230              		.loc 1 1134 40 is_stmt 0 view .LVU488
 3231 0004 C31D     		adds	r3, r0, #7
1130:Middlewares/ST/STM32_WPAN/ble/core/auto/ble_events.c ****   aci_att_prepare_write_resp_event( rp0->Connection_Handle,
 3232              		.loc 1 1130 3 view .LVU489
 3233 0006 0093     		str	r3, [sp]
 3234 0008 8379     		ldrb	r3, [r0, #6]	@ zero_extendqisi2
 3235 000a 8288     		ldrh	r2, [r0, #4]	@ unaligned
 3236 000c 4188     		ldrh	r1, [r0, #2]	@ unaligned
 3237 000e 0088     		ldrh	r0, [r0]	@ unaligned
 3238              	.LVL273:
1130:Middlewares/ST/STM32_WPAN/ble/core/auto/ble_events.c ****   aci_att_prepare_write_resp_event( rp0->Connection_Handle,
 3239              		.loc 1 1130 3 view .LVU490
 3240 0010 FFF7FEFF 		bl	aci_att_prepare_write_resp_event
 3241              	.LVL274:
1135:Middlewares/ST/STM32_WPAN/ble/core/auto/ble_events.c **** }
 3242              		.loc 1 1135 1 view .LVU491
 3243 0014 03B0     		add	sp, sp, #12
 3244              	.LCFI83:
 3245              		.cfi_def_cfa_offset 4
 3246              		@ sp needed
 3247 0016 5DF804FB 		ldr	pc, [sp], #4
 3248              		.cfi_endproc
 3249              	.LFE111:
 3251              		.section	.text.aci_att_exec_write_resp_event,"ax",%progbits
 3252              		.align	1
 3253              		.weak	aci_att_exec_write_resp_event
 3254              		.syntax unified
 3255              		.thumb
 3256              		.thumb_func
 3258              	aci_att_exec_write_resp_event:
 3259              	.LVL275:
 3260              	.LFB112:
1136:Middlewares/ST/STM32_WPAN/ble/core/auto/ble_events.c **** 
1137:Middlewares/ST/STM32_WPAN/ble/core/auto/ble_events.c **** /* ACI_ATT_EXEC_WRITE_RESP_EVENT callback function */
1138:Middlewares/ST/STM32_WPAN/ble/core/auto/ble_events.c **** __WEAK void aci_att_exec_write_resp_event( uint16_t Connection_Handle )
1139:Middlewares/ST/STM32_WPAN/ble/core/auto/ble_events.c **** {
 3261              		.loc 1 1139 1 is_stmt 1 view -0
 3262              		.cfi_startproc
 3263              		@ args = 0, pretend = 0, frame = 0
 3264              		@ frame_needed = 0, uses_anonymous_args = 0
 3265              		@ link register save eliminated.
1140:Middlewares/ST/STM32_WPAN/ble/core/auto/ble_events.c **** }
 3266              		.loc 1 1140 1 view .LVU493
 3267 0000 7047     		bx	lr
 3268              		.cfi_endproc
 3269              	.LFE112:
 3271              		.section	.text.aci_att_exec_write_resp_event_process,"ax",%progbits
 3272              		.align	1
 3273              		.syntax unified
 3274              		.thumb
 3275              		.thumb_func
 3277              	aci_att_exec_write_resp_event_process:
ARM GAS  C:\Users\bku598\AppData\Local\Temp\cc3wINKy.s 			page 75


 3278              	.LVL276:
 3279              	.LFB113:
1141:Middlewares/ST/STM32_WPAN/ble/core/auto/ble_events.c **** 
1142:Middlewares/ST/STM32_WPAN/ble/core/auto/ble_events.c **** /* ACI_ATT_EXEC_WRITE_RESP_EVENT process function */
1143:Middlewares/ST/STM32_WPAN/ble/core/auto/ble_events.c **** static void aci_att_exec_write_resp_event_process( const uint8_t* in )
1144:Middlewares/ST/STM32_WPAN/ble/core/auto/ble_events.c **** {
 3280              		.loc 1 1144 1 view -0
 3281              		.cfi_startproc
 3282              		@ args = 0, pretend = 0, frame = 0
 3283              		@ frame_needed = 0, uses_anonymous_args = 0
 3284              		.loc 1 1144 1 is_stmt 0 view .LVU495
 3285 0000 08B5     		push	{r3, lr}
 3286              	.LCFI84:
 3287              		.cfi_def_cfa_offset 8
 3288              		.cfi_offset 3, -8
 3289              		.cfi_offset 14, -4
1145:Middlewares/ST/STM32_WPAN/ble/core/auto/ble_events.c ****   aci_att_exec_write_resp_event_rp0 *rp0 = (void*)in;
 3290              		.loc 1 1145 3 is_stmt 1 view .LVU496
 3291              	.LVL277:
1146:Middlewares/ST/STM32_WPAN/ble/core/auto/ble_events.c ****   aci_att_exec_write_resp_event( rp0->Connection_Handle );
 3292              		.loc 1 1146 3 view .LVU497
 3293 0002 0088     		ldrh	r0, [r0]	@ unaligned
 3294              	.LVL278:
 3295              		.loc 1 1146 3 is_stmt 0 view .LVU498
 3296 0004 FFF7FEFF 		bl	aci_att_exec_write_resp_event
 3297              	.LVL279:
1147:Middlewares/ST/STM32_WPAN/ble/core/auto/ble_events.c **** }
 3298              		.loc 1 1147 1 view .LVU499
 3299 0008 08BD     		pop	{r3, pc}
 3300              		.cfi_endproc
 3301              	.LFE113:
 3303              		.section	.text.aci_gatt_indication_event,"ax",%progbits
 3304              		.align	1
 3305              		.weak	aci_gatt_indication_event
 3306              		.syntax unified
 3307              		.thumb
 3308              		.thumb_func
 3310              	aci_gatt_indication_event:
 3311              	.LVL280:
 3312              	.LFB114:
1148:Middlewares/ST/STM32_WPAN/ble/core/auto/ble_events.c **** 
1149:Middlewares/ST/STM32_WPAN/ble/core/auto/ble_events.c **** /* ACI_GATT_INDICATION_EVENT callback function */
1150:Middlewares/ST/STM32_WPAN/ble/core/auto/ble_events.c **** __WEAK void aci_gatt_indication_event( uint16_t Connection_Handle,
1151:Middlewares/ST/STM32_WPAN/ble/core/auto/ble_events.c ****                                        uint16_t Attribute_Handle,
1152:Middlewares/ST/STM32_WPAN/ble/core/auto/ble_events.c ****                                        uint8_t Attribute_Value_Length,
1153:Middlewares/ST/STM32_WPAN/ble/core/auto/ble_events.c ****                                        const uint8_t* Attribute_Value )
1154:Middlewares/ST/STM32_WPAN/ble/core/auto/ble_events.c **** {
 3313              		.loc 1 1154 1 is_stmt 1 view -0
 3314              		.cfi_startproc
 3315              		@ args = 0, pretend = 0, frame = 0
 3316              		@ frame_needed = 0, uses_anonymous_args = 0
 3317              		@ link register save eliminated.
1155:Middlewares/ST/STM32_WPAN/ble/core/auto/ble_events.c **** }
 3318              		.loc 1 1155 1 view .LVU501
 3319 0000 7047     		bx	lr
 3320              		.cfi_endproc
 3321              	.LFE114:
ARM GAS  C:\Users\bku598\AppData\Local\Temp\cc3wINKy.s 			page 76


 3323              		.section	.text.aci_gatt_indication_event_process,"ax",%progbits
 3324              		.align	1
 3325              		.syntax unified
 3326              		.thumb
 3327              		.thumb_func
 3329              	aci_gatt_indication_event_process:
 3330              	.LVL281:
 3331              	.LFB115:
1156:Middlewares/ST/STM32_WPAN/ble/core/auto/ble_events.c **** 
1157:Middlewares/ST/STM32_WPAN/ble/core/auto/ble_events.c **** /* ACI_GATT_INDICATION_EVENT process function */
1158:Middlewares/ST/STM32_WPAN/ble/core/auto/ble_events.c **** static void aci_gatt_indication_event_process( const uint8_t* in )
1159:Middlewares/ST/STM32_WPAN/ble/core/auto/ble_events.c **** {
 3332              		.loc 1 1159 1 view -0
 3333              		.cfi_startproc
 3334              		@ args = 0, pretend = 0, frame = 0
 3335              		@ frame_needed = 0, uses_anonymous_args = 0
 3336              		.loc 1 1159 1 is_stmt 0 view .LVU503
 3337 0000 08B5     		push	{r3, lr}
 3338              	.LCFI85:
 3339              		.cfi_def_cfa_offset 8
 3340              		.cfi_offset 3, -8
 3341              		.cfi_offset 14, -4
1160:Middlewares/ST/STM32_WPAN/ble/core/auto/ble_events.c ****   aci_gatt_indication_event_rp0 *rp0 = (void*)in;
 3342              		.loc 1 1160 3 is_stmt 1 view .LVU504
 3343              	.LVL282:
1161:Middlewares/ST/STM32_WPAN/ble/core/auto/ble_events.c ****   aci_gatt_indication_event( rp0->Connection_Handle,
 3344              		.loc 1 1161 3 view .LVU505
 3345 0002 431D     		adds	r3, r0, #5
 3346 0004 0279     		ldrb	r2, [r0, #4]	@ zero_extendqisi2
 3347 0006 4188     		ldrh	r1, [r0, #2]	@ unaligned
 3348 0008 0088     		ldrh	r0, [r0]	@ unaligned
 3349              	.LVL283:
 3350              		.loc 1 1161 3 is_stmt 0 view .LVU506
 3351 000a FFF7FEFF 		bl	aci_gatt_indication_event
 3352              	.LVL284:
1162:Middlewares/ST/STM32_WPAN/ble/core/auto/ble_events.c ****                              rp0->Attribute_Handle,
1163:Middlewares/ST/STM32_WPAN/ble/core/auto/ble_events.c ****                              rp0->Attribute_Value_Length,
1164:Middlewares/ST/STM32_WPAN/ble/core/auto/ble_events.c ****                              rp0->Attribute_Value );
1165:Middlewares/ST/STM32_WPAN/ble/core/auto/ble_events.c **** }
 3353              		.loc 1 1165 1 view .LVU507
 3354 000e 08BD     		pop	{r3, pc}
 3355              		.cfi_endproc
 3356              	.LFE115:
 3358              		.section	.text.aci_gatt_notification_event,"ax",%progbits
 3359              		.align	1
 3360              		.weak	aci_gatt_notification_event
 3361              		.syntax unified
 3362              		.thumb
 3363              		.thumb_func
 3365              	aci_gatt_notification_event:
 3366              	.LVL285:
 3367              	.LFB116:
1166:Middlewares/ST/STM32_WPAN/ble/core/auto/ble_events.c **** 
1167:Middlewares/ST/STM32_WPAN/ble/core/auto/ble_events.c **** /* ACI_GATT_NOTIFICATION_EVENT callback function */
1168:Middlewares/ST/STM32_WPAN/ble/core/auto/ble_events.c **** __WEAK void aci_gatt_notification_event( uint16_t Connection_Handle,
1169:Middlewares/ST/STM32_WPAN/ble/core/auto/ble_events.c ****                                          uint16_t Attribute_Handle,
1170:Middlewares/ST/STM32_WPAN/ble/core/auto/ble_events.c ****                                          uint8_t Attribute_Value_Length,
ARM GAS  C:\Users\bku598\AppData\Local\Temp\cc3wINKy.s 			page 77


1171:Middlewares/ST/STM32_WPAN/ble/core/auto/ble_events.c ****                                          const uint8_t* Attribute_Value )
1172:Middlewares/ST/STM32_WPAN/ble/core/auto/ble_events.c **** {
 3368              		.loc 1 1172 1 is_stmt 1 view -0
 3369              		.cfi_startproc
 3370              		@ args = 0, pretend = 0, frame = 0
 3371              		@ frame_needed = 0, uses_anonymous_args = 0
 3372              		@ link register save eliminated.
1173:Middlewares/ST/STM32_WPAN/ble/core/auto/ble_events.c **** }
 3373              		.loc 1 1173 1 view .LVU509
 3374 0000 7047     		bx	lr
 3375              		.cfi_endproc
 3376              	.LFE116:
 3378              		.section	.text.aci_gatt_notification_event_process,"ax",%progbits
 3379              		.align	1
 3380              		.syntax unified
 3381              		.thumb
 3382              		.thumb_func
 3384              	aci_gatt_notification_event_process:
 3385              	.LVL286:
 3386              	.LFB117:
1174:Middlewares/ST/STM32_WPAN/ble/core/auto/ble_events.c **** 
1175:Middlewares/ST/STM32_WPAN/ble/core/auto/ble_events.c **** /* ACI_GATT_NOTIFICATION_EVENT process function */
1176:Middlewares/ST/STM32_WPAN/ble/core/auto/ble_events.c **** static void aci_gatt_notification_event_process( const uint8_t* in )
1177:Middlewares/ST/STM32_WPAN/ble/core/auto/ble_events.c **** {
 3387              		.loc 1 1177 1 view -0
 3388              		.cfi_startproc
 3389              		@ args = 0, pretend = 0, frame = 0
 3390              		@ frame_needed = 0, uses_anonymous_args = 0
 3391              		.loc 1 1177 1 is_stmt 0 view .LVU511
 3392 0000 08B5     		push	{r3, lr}
 3393              	.LCFI86:
 3394              		.cfi_def_cfa_offset 8
 3395              		.cfi_offset 3, -8
 3396              		.cfi_offset 14, -4
1178:Middlewares/ST/STM32_WPAN/ble/core/auto/ble_events.c ****   aci_gatt_notification_event_rp0 *rp0 = (void*)in;
 3397              		.loc 1 1178 3 is_stmt 1 view .LVU512
 3398              	.LVL287:
1179:Middlewares/ST/STM32_WPAN/ble/core/auto/ble_events.c ****   aci_gatt_notification_event( rp0->Connection_Handle,
 3399              		.loc 1 1179 3 view .LVU513
 3400 0002 431D     		adds	r3, r0, #5
 3401 0004 0279     		ldrb	r2, [r0, #4]	@ zero_extendqisi2
 3402 0006 4188     		ldrh	r1, [r0, #2]	@ unaligned
 3403 0008 0088     		ldrh	r0, [r0]	@ unaligned
 3404              	.LVL288:
 3405              		.loc 1 1179 3 is_stmt 0 view .LVU514
 3406 000a FFF7FEFF 		bl	aci_gatt_notification_event
 3407              	.LVL289:
1180:Middlewares/ST/STM32_WPAN/ble/core/auto/ble_events.c ****                                rp0->Attribute_Handle,
1181:Middlewares/ST/STM32_WPAN/ble/core/auto/ble_events.c ****                                rp0->Attribute_Value_Length,
1182:Middlewares/ST/STM32_WPAN/ble/core/auto/ble_events.c ****                                rp0->Attribute_Value );
1183:Middlewares/ST/STM32_WPAN/ble/core/auto/ble_events.c **** }
 3408              		.loc 1 1183 1 view .LVU515
 3409 000e 08BD     		pop	{r3, pc}
 3410              		.cfi_endproc
 3411              	.LFE117:
 3413              		.section	.text.aci_gatt_proc_complete_event,"ax",%progbits
 3414              		.align	1
ARM GAS  C:\Users\bku598\AppData\Local\Temp\cc3wINKy.s 			page 78


 3415              		.weak	aci_gatt_proc_complete_event
 3416              		.syntax unified
 3417              		.thumb
 3418              		.thumb_func
 3420              	aci_gatt_proc_complete_event:
 3421              	.LVL290:
 3422              	.LFB118:
1184:Middlewares/ST/STM32_WPAN/ble/core/auto/ble_events.c **** 
1185:Middlewares/ST/STM32_WPAN/ble/core/auto/ble_events.c **** /* ACI_GATT_PROC_COMPLETE_EVENT callback function */
1186:Middlewares/ST/STM32_WPAN/ble/core/auto/ble_events.c **** __WEAK void aci_gatt_proc_complete_event( uint16_t Connection_Handle,
1187:Middlewares/ST/STM32_WPAN/ble/core/auto/ble_events.c ****                                           uint8_t Error_Code )
1188:Middlewares/ST/STM32_WPAN/ble/core/auto/ble_events.c **** {
 3423              		.loc 1 1188 1 is_stmt 1 view -0
 3424              		.cfi_startproc
 3425              		@ args = 0, pretend = 0, frame = 0
 3426              		@ frame_needed = 0, uses_anonymous_args = 0
 3427              		@ link register save eliminated.
1189:Middlewares/ST/STM32_WPAN/ble/core/auto/ble_events.c **** }
 3428              		.loc 1 1189 1 view .LVU517
 3429 0000 7047     		bx	lr
 3430              		.cfi_endproc
 3431              	.LFE118:
 3433              		.section	.text.aci_gatt_proc_complete_event_process,"ax",%progbits
 3434              		.align	1
 3435              		.syntax unified
 3436              		.thumb
 3437              		.thumb_func
 3439              	aci_gatt_proc_complete_event_process:
 3440              	.LVL291:
 3441              	.LFB119:
1190:Middlewares/ST/STM32_WPAN/ble/core/auto/ble_events.c **** 
1191:Middlewares/ST/STM32_WPAN/ble/core/auto/ble_events.c **** /* ACI_GATT_PROC_COMPLETE_EVENT process function */
1192:Middlewares/ST/STM32_WPAN/ble/core/auto/ble_events.c **** static void aci_gatt_proc_complete_event_process( const uint8_t* in )
1193:Middlewares/ST/STM32_WPAN/ble/core/auto/ble_events.c **** {
 3442              		.loc 1 1193 1 view -0
 3443              		.cfi_startproc
 3444              		@ args = 0, pretend = 0, frame = 0
 3445              		@ frame_needed = 0, uses_anonymous_args = 0
 3446              		.loc 1 1193 1 is_stmt 0 view .LVU519
 3447 0000 08B5     		push	{r3, lr}
 3448              	.LCFI87:
 3449              		.cfi_def_cfa_offset 8
 3450              		.cfi_offset 3, -8
 3451              		.cfi_offset 14, -4
1194:Middlewares/ST/STM32_WPAN/ble/core/auto/ble_events.c ****   aci_gatt_proc_complete_event_rp0 *rp0 = (void*)in;
 3452              		.loc 1 1194 3 is_stmt 1 view .LVU520
 3453              	.LVL292:
1195:Middlewares/ST/STM32_WPAN/ble/core/auto/ble_events.c ****   aci_gatt_proc_complete_event( rp0->Connection_Handle,
 3454              		.loc 1 1195 3 view .LVU521
 3455 0002 8178     		ldrb	r1, [r0, #2]	@ zero_extendqisi2
 3456 0004 0088     		ldrh	r0, [r0]	@ unaligned
 3457              	.LVL293:
 3458              		.loc 1 1195 3 is_stmt 0 view .LVU522
 3459 0006 FFF7FEFF 		bl	aci_gatt_proc_complete_event
 3460              	.LVL294:
1196:Middlewares/ST/STM32_WPAN/ble/core/auto/ble_events.c ****                                 rp0->Error_Code );
1197:Middlewares/ST/STM32_WPAN/ble/core/auto/ble_events.c **** }
ARM GAS  C:\Users\bku598\AppData\Local\Temp\cc3wINKy.s 			page 79


 3461              		.loc 1 1197 1 view .LVU523
 3462 000a 08BD     		pop	{r3, pc}
 3463              		.cfi_endproc
 3464              	.LFE119:
 3466              		.section	.text.aci_gatt_error_resp_event,"ax",%progbits
 3467              		.align	1
 3468              		.weak	aci_gatt_error_resp_event
 3469              		.syntax unified
 3470              		.thumb
 3471              		.thumb_func
 3473              	aci_gatt_error_resp_event:
 3474              	.LVL295:
 3475              	.LFB120:
1198:Middlewares/ST/STM32_WPAN/ble/core/auto/ble_events.c **** 
1199:Middlewares/ST/STM32_WPAN/ble/core/auto/ble_events.c **** /* ACI_GATT_ERROR_RESP_EVENT callback function */
1200:Middlewares/ST/STM32_WPAN/ble/core/auto/ble_events.c **** __WEAK void aci_gatt_error_resp_event( uint16_t Connection_Handle,
1201:Middlewares/ST/STM32_WPAN/ble/core/auto/ble_events.c ****                                        uint8_t Req_Opcode,
1202:Middlewares/ST/STM32_WPAN/ble/core/auto/ble_events.c ****                                        uint16_t Attribute_Handle,
1203:Middlewares/ST/STM32_WPAN/ble/core/auto/ble_events.c ****                                        uint8_t Error_Code )
1204:Middlewares/ST/STM32_WPAN/ble/core/auto/ble_events.c **** {
 3476              		.loc 1 1204 1 is_stmt 1 view -0
 3477              		.cfi_startproc
 3478              		@ args = 0, pretend = 0, frame = 0
 3479              		@ frame_needed = 0, uses_anonymous_args = 0
 3480              		@ link register save eliminated.
1205:Middlewares/ST/STM32_WPAN/ble/core/auto/ble_events.c **** }
 3481              		.loc 1 1205 1 view .LVU525
 3482 0000 7047     		bx	lr
 3483              		.cfi_endproc
 3484              	.LFE120:
 3486              		.section	.text.aci_gatt_error_resp_event_process,"ax",%progbits
 3487              		.align	1
 3488              		.syntax unified
 3489              		.thumb
 3490              		.thumb_func
 3492              	aci_gatt_error_resp_event_process:
 3493              	.LVL296:
 3494              	.LFB121:
1206:Middlewares/ST/STM32_WPAN/ble/core/auto/ble_events.c **** 
1207:Middlewares/ST/STM32_WPAN/ble/core/auto/ble_events.c **** /* ACI_GATT_ERROR_RESP_EVENT process function */
1208:Middlewares/ST/STM32_WPAN/ble/core/auto/ble_events.c **** static void aci_gatt_error_resp_event_process( const uint8_t* in )
1209:Middlewares/ST/STM32_WPAN/ble/core/auto/ble_events.c **** {
 3495              		.loc 1 1209 1 view -0
 3496              		.cfi_startproc
 3497              		@ args = 0, pretend = 0, frame = 0
 3498              		@ frame_needed = 0, uses_anonymous_args = 0
 3499              		.loc 1 1209 1 is_stmt 0 view .LVU527
 3500 0000 08B5     		push	{r3, lr}
 3501              	.LCFI88:
 3502              		.cfi_def_cfa_offset 8
 3503              		.cfi_offset 3, -8
 3504              		.cfi_offset 14, -4
1210:Middlewares/ST/STM32_WPAN/ble/core/auto/ble_events.c ****   aci_gatt_error_resp_event_rp0 *rp0 = (void*)in;
 3505              		.loc 1 1210 3 is_stmt 1 view .LVU528
 3506              	.LVL297:
1211:Middlewares/ST/STM32_WPAN/ble/core/auto/ble_events.c ****   aci_gatt_error_resp_event( rp0->Connection_Handle,
 3507              		.loc 1 1211 3 view .LVU529
ARM GAS  C:\Users\bku598\AppData\Local\Temp\cc3wINKy.s 			page 80


 3508 0002 4379     		ldrb	r3, [r0, #5]	@ zero_extendqisi2
 3509 0004 B0F80320 		ldrh	r2, [r0, #3]	@ unaligned
 3510 0008 8178     		ldrb	r1, [r0, #2]	@ zero_extendqisi2
 3511 000a 0088     		ldrh	r0, [r0]	@ unaligned
 3512              	.LVL298:
 3513              		.loc 1 1211 3 is_stmt 0 view .LVU530
 3514 000c FFF7FEFF 		bl	aci_gatt_error_resp_event
 3515              	.LVL299:
1212:Middlewares/ST/STM32_WPAN/ble/core/auto/ble_events.c ****                              rp0->Req_Opcode,
1213:Middlewares/ST/STM32_WPAN/ble/core/auto/ble_events.c ****                              rp0->Attribute_Handle,
1214:Middlewares/ST/STM32_WPAN/ble/core/auto/ble_events.c ****                              rp0->Error_Code );
1215:Middlewares/ST/STM32_WPAN/ble/core/auto/ble_events.c **** }
 3516              		.loc 1 1215 1 view .LVU531
 3517 0010 08BD     		pop	{r3, pc}
 3518              		.cfi_endproc
 3519              	.LFE121:
 3521              		.section	.text.aci_gatt_disc_read_char_by_uuid_resp_event,"ax",%progbits
 3522              		.align	1
 3523              		.weak	aci_gatt_disc_read_char_by_uuid_resp_event
 3524              		.syntax unified
 3525              		.thumb
 3526              		.thumb_func
 3528              	aci_gatt_disc_read_char_by_uuid_resp_event:
 3529              	.LVL300:
 3530              	.LFB122:
1216:Middlewares/ST/STM32_WPAN/ble/core/auto/ble_events.c **** 
1217:Middlewares/ST/STM32_WPAN/ble/core/auto/ble_events.c **** /* ACI_GATT_DISC_READ_CHAR_BY_UUID_RESP_EVENT callback function */
1218:Middlewares/ST/STM32_WPAN/ble/core/auto/ble_events.c **** __WEAK void aci_gatt_disc_read_char_by_uuid_resp_event( uint16_t Connection_Handle,
1219:Middlewares/ST/STM32_WPAN/ble/core/auto/ble_events.c ****                                                         uint16_t Attribute_Handle,
1220:Middlewares/ST/STM32_WPAN/ble/core/auto/ble_events.c ****                                                         uint8_t Attribute_Value_Length,
1221:Middlewares/ST/STM32_WPAN/ble/core/auto/ble_events.c ****                                                         const uint8_t* Attribute_Value )
1222:Middlewares/ST/STM32_WPAN/ble/core/auto/ble_events.c **** {
 3531              		.loc 1 1222 1 is_stmt 1 view -0
 3532              		.cfi_startproc
 3533              		@ args = 0, pretend = 0, frame = 0
 3534              		@ frame_needed = 0, uses_anonymous_args = 0
 3535              		@ link register save eliminated.
1223:Middlewares/ST/STM32_WPAN/ble/core/auto/ble_events.c **** }
 3536              		.loc 1 1223 1 view .LVU533
 3537 0000 7047     		bx	lr
 3538              		.cfi_endproc
 3539              	.LFE122:
 3541              		.section	.text.aci_gatt_disc_read_char_by_uuid_resp_event_process,"ax",%progbits
 3542              		.align	1
 3543              		.syntax unified
 3544              		.thumb
 3545              		.thumb_func
 3547              	aci_gatt_disc_read_char_by_uuid_resp_event_process:
 3548              	.LVL301:
 3549              	.LFB123:
1224:Middlewares/ST/STM32_WPAN/ble/core/auto/ble_events.c **** 
1225:Middlewares/ST/STM32_WPAN/ble/core/auto/ble_events.c **** /* ACI_GATT_DISC_READ_CHAR_BY_UUID_RESP_EVENT process function */
1226:Middlewares/ST/STM32_WPAN/ble/core/auto/ble_events.c **** static void aci_gatt_disc_read_char_by_uuid_resp_event_process( const uint8_t* in )
1227:Middlewares/ST/STM32_WPAN/ble/core/auto/ble_events.c **** {
 3550              		.loc 1 1227 1 view -0
 3551              		.cfi_startproc
 3552              		@ args = 0, pretend = 0, frame = 0
ARM GAS  C:\Users\bku598\AppData\Local\Temp\cc3wINKy.s 			page 81


 3553              		@ frame_needed = 0, uses_anonymous_args = 0
 3554              		.loc 1 1227 1 is_stmt 0 view .LVU535
 3555 0000 08B5     		push	{r3, lr}
 3556              	.LCFI89:
 3557              		.cfi_def_cfa_offset 8
 3558              		.cfi_offset 3, -8
 3559              		.cfi_offset 14, -4
1228:Middlewares/ST/STM32_WPAN/ble/core/auto/ble_events.c ****   aci_gatt_disc_read_char_by_uuid_resp_event_rp0 *rp0 = (void*)in;
 3560              		.loc 1 1228 3 is_stmt 1 view .LVU536
 3561              	.LVL302:
1229:Middlewares/ST/STM32_WPAN/ble/core/auto/ble_events.c ****   aci_gatt_disc_read_char_by_uuid_resp_event( rp0->Connection_Handle,
 3562              		.loc 1 1229 3 view .LVU537
 3563 0002 431D     		adds	r3, r0, #5
 3564 0004 0279     		ldrb	r2, [r0, #4]	@ zero_extendqisi2
 3565 0006 4188     		ldrh	r1, [r0, #2]	@ unaligned
 3566 0008 0088     		ldrh	r0, [r0]	@ unaligned
 3567              	.LVL303:
 3568              		.loc 1 1229 3 is_stmt 0 view .LVU538
 3569 000a FFF7FEFF 		bl	aci_gatt_disc_read_char_by_uuid_resp_event
 3570              	.LVL304:
1230:Middlewares/ST/STM32_WPAN/ble/core/auto/ble_events.c ****                                               rp0->Attribute_Handle,
1231:Middlewares/ST/STM32_WPAN/ble/core/auto/ble_events.c ****                                               rp0->Attribute_Value_Length,
1232:Middlewares/ST/STM32_WPAN/ble/core/auto/ble_events.c ****                                               rp0->Attribute_Value );
1233:Middlewares/ST/STM32_WPAN/ble/core/auto/ble_events.c **** }
 3571              		.loc 1 1233 1 view .LVU539
 3572 000e 08BD     		pop	{r3, pc}
 3573              		.cfi_endproc
 3574              	.LFE123:
 3576              		.section	.text.aci_gatt_write_permit_req_event,"ax",%progbits
 3577              		.align	1
 3578              		.weak	aci_gatt_write_permit_req_event
 3579              		.syntax unified
 3580              		.thumb
 3581              		.thumb_func
 3583              	aci_gatt_write_permit_req_event:
 3584              	.LVL305:
 3585              	.LFB124:
1234:Middlewares/ST/STM32_WPAN/ble/core/auto/ble_events.c **** 
1235:Middlewares/ST/STM32_WPAN/ble/core/auto/ble_events.c **** /* ACI_GATT_WRITE_PERMIT_REQ_EVENT callback function */
1236:Middlewares/ST/STM32_WPAN/ble/core/auto/ble_events.c **** __WEAK void aci_gatt_write_permit_req_event( uint16_t Connection_Handle,
1237:Middlewares/ST/STM32_WPAN/ble/core/auto/ble_events.c ****                                              uint16_t Attribute_Handle,
1238:Middlewares/ST/STM32_WPAN/ble/core/auto/ble_events.c ****                                              uint8_t Data_Length,
1239:Middlewares/ST/STM32_WPAN/ble/core/auto/ble_events.c ****                                              const uint8_t* Data )
1240:Middlewares/ST/STM32_WPAN/ble/core/auto/ble_events.c **** {
 3586              		.loc 1 1240 1 is_stmt 1 view -0
 3587              		.cfi_startproc
 3588              		@ args = 0, pretend = 0, frame = 0
 3589              		@ frame_needed = 0, uses_anonymous_args = 0
 3590              		@ link register save eliminated.
1241:Middlewares/ST/STM32_WPAN/ble/core/auto/ble_events.c **** }
 3591              		.loc 1 1241 1 view .LVU541
 3592 0000 7047     		bx	lr
 3593              		.cfi_endproc
 3594              	.LFE124:
 3596              		.section	.text.aci_gatt_write_permit_req_event_process,"ax",%progbits
 3597              		.align	1
 3598              		.syntax unified
ARM GAS  C:\Users\bku598\AppData\Local\Temp\cc3wINKy.s 			page 82


 3599              		.thumb
 3600              		.thumb_func
 3602              	aci_gatt_write_permit_req_event_process:
 3603              	.LVL306:
 3604              	.LFB125:
1242:Middlewares/ST/STM32_WPAN/ble/core/auto/ble_events.c **** 
1243:Middlewares/ST/STM32_WPAN/ble/core/auto/ble_events.c **** /* ACI_GATT_WRITE_PERMIT_REQ_EVENT process function */
1244:Middlewares/ST/STM32_WPAN/ble/core/auto/ble_events.c **** static void aci_gatt_write_permit_req_event_process( const uint8_t* in )
1245:Middlewares/ST/STM32_WPAN/ble/core/auto/ble_events.c **** {
 3605              		.loc 1 1245 1 view -0
 3606              		.cfi_startproc
 3607              		@ args = 0, pretend = 0, frame = 0
 3608              		@ frame_needed = 0, uses_anonymous_args = 0
 3609              		.loc 1 1245 1 is_stmt 0 view .LVU543
 3610 0000 08B5     		push	{r3, lr}
 3611              	.LCFI90:
 3612              		.cfi_def_cfa_offset 8
 3613              		.cfi_offset 3, -8
 3614              		.cfi_offset 14, -4
1246:Middlewares/ST/STM32_WPAN/ble/core/auto/ble_events.c ****   aci_gatt_write_permit_req_event_rp0 *rp0 = (void*)in;
 3615              		.loc 1 1246 3 is_stmt 1 view .LVU544
 3616              	.LVL307:
1247:Middlewares/ST/STM32_WPAN/ble/core/auto/ble_events.c ****   aci_gatt_write_permit_req_event( rp0->Connection_Handle,
 3617              		.loc 1 1247 3 view .LVU545
 3618 0002 431D     		adds	r3, r0, #5
 3619 0004 0279     		ldrb	r2, [r0, #4]	@ zero_extendqisi2
 3620 0006 4188     		ldrh	r1, [r0, #2]	@ unaligned
 3621 0008 0088     		ldrh	r0, [r0]	@ unaligned
 3622              	.LVL308:
 3623              		.loc 1 1247 3 is_stmt 0 view .LVU546
 3624 000a FFF7FEFF 		bl	aci_gatt_write_permit_req_event
 3625              	.LVL309:
1248:Middlewares/ST/STM32_WPAN/ble/core/auto/ble_events.c ****                                    rp0->Attribute_Handle,
1249:Middlewares/ST/STM32_WPAN/ble/core/auto/ble_events.c ****                                    rp0->Data_Length,
1250:Middlewares/ST/STM32_WPAN/ble/core/auto/ble_events.c ****                                    rp0->Data );
1251:Middlewares/ST/STM32_WPAN/ble/core/auto/ble_events.c **** }
 3626              		.loc 1 1251 1 view .LVU547
 3627 000e 08BD     		pop	{r3, pc}
 3628              		.cfi_endproc
 3629              	.LFE125:
 3631              		.section	.text.aci_gatt_read_permit_req_event,"ax",%progbits
 3632              		.align	1
 3633              		.weak	aci_gatt_read_permit_req_event
 3634              		.syntax unified
 3635              		.thumb
 3636              		.thumb_func
 3638              	aci_gatt_read_permit_req_event:
 3639              	.LVL310:
 3640              	.LFB126:
1252:Middlewares/ST/STM32_WPAN/ble/core/auto/ble_events.c **** 
1253:Middlewares/ST/STM32_WPAN/ble/core/auto/ble_events.c **** /* ACI_GATT_READ_PERMIT_REQ_EVENT callback function */
1254:Middlewares/ST/STM32_WPAN/ble/core/auto/ble_events.c **** __WEAK void aci_gatt_read_permit_req_event( uint16_t Connection_Handle,
1255:Middlewares/ST/STM32_WPAN/ble/core/auto/ble_events.c ****                                             uint16_t Attribute_Handle,
1256:Middlewares/ST/STM32_WPAN/ble/core/auto/ble_events.c ****                                             uint16_t Offset )
1257:Middlewares/ST/STM32_WPAN/ble/core/auto/ble_events.c **** {
 3641              		.loc 1 1257 1 is_stmt 1 view -0
 3642              		.cfi_startproc
ARM GAS  C:\Users\bku598\AppData\Local\Temp\cc3wINKy.s 			page 83


 3643              		@ args = 0, pretend = 0, frame = 0
 3644              		@ frame_needed = 0, uses_anonymous_args = 0
 3645              		@ link register save eliminated.
1258:Middlewares/ST/STM32_WPAN/ble/core/auto/ble_events.c **** }
 3646              		.loc 1 1258 1 view .LVU549
 3647 0000 7047     		bx	lr
 3648              		.cfi_endproc
 3649              	.LFE126:
 3651              		.section	.text.aci_gatt_read_permit_req_event_process,"ax",%progbits
 3652              		.align	1
 3653              		.syntax unified
 3654              		.thumb
 3655              		.thumb_func
 3657              	aci_gatt_read_permit_req_event_process:
 3658              	.LVL311:
 3659              	.LFB127:
1259:Middlewares/ST/STM32_WPAN/ble/core/auto/ble_events.c **** 
1260:Middlewares/ST/STM32_WPAN/ble/core/auto/ble_events.c **** /* ACI_GATT_READ_PERMIT_REQ_EVENT process function */
1261:Middlewares/ST/STM32_WPAN/ble/core/auto/ble_events.c **** static void aci_gatt_read_permit_req_event_process( const uint8_t* in )
1262:Middlewares/ST/STM32_WPAN/ble/core/auto/ble_events.c **** {
 3660              		.loc 1 1262 1 view -0
 3661              		.cfi_startproc
 3662              		@ args = 0, pretend = 0, frame = 0
 3663              		@ frame_needed = 0, uses_anonymous_args = 0
 3664              		.loc 1 1262 1 is_stmt 0 view .LVU551
 3665 0000 08B5     		push	{r3, lr}
 3666              	.LCFI91:
 3667              		.cfi_def_cfa_offset 8
 3668              		.cfi_offset 3, -8
 3669              		.cfi_offset 14, -4
1263:Middlewares/ST/STM32_WPAN/ble/core/auto/ble_events.c ****   aci_gatt_read_permit_req_event_rp0 *rp0 = (void*)in;
 3670              		.loc 1 1263 3 is_stmt 1 view .LVU552
 3671              	.LVL312:
1264:Middlewares/ST/STM32_WPAN/ble/core/auto/ble_events.c ****   aci_gatt_read_permit_req_event( rp0->Connection_Handle,
 3672              		.loc 1 1264 3 view .LVU553
 3673 0002 8288     		ldrh	r2, [r0, #4]	@ unaligned
 3674 0004 4188     		ldrh	r1, [r0, #2]	@ unaligned
 3675 0006 0088     		ldrh	r0, [r0]	@ unaligned
 3676              	.LVL313:
 3677              		.loc 1 1264 3 is_stmt 0 view .LVU554
 3678 0008 FFF7FEFF 		bl	aci_gatt_read_permit_req_event
 3679              	.LVL314:
1265:Middlewares/ST/STM32_WPAN/ble/core/auto/ble_events.c ****                                   rp0->Attribute_Handle,
1266:Middlewares/ST/STM32_WPAN/ble/core/auto/ble_events.c ****                                   rp0->Offset );
1267:Middlewares/ST/STM32_WPAN/ble/core/auto/ble_events.c **** }
 3680              		.loc 1 1267 1 view .LVU555
 3681 000c 08BD     		pop	{r3, pc}
 3682              		.cfi_endproc
 3683              	.LFE127:
 3685              		.section	.text.aci_gatt_read_multi_permit_req_event,"ax",%progbits
 3686              		.align	1
 3687              		.weak	aci_gatt_read_multi_permit_req_event
 3688              		.syntax unified
 3689              		.thumb
 3690              		.thumb_func
 3692              	aci_gatt_read_multi_permit_req_event:
 3693              	.LVL315:
ARM GAS  C:\Users\bku598\AppData\Local\Temp\cc3wINKy.s 			page 84


 3694              	.LFB128:
1268:Middlewares/ST/STM32_WPAN/ble/core/auto/ble_events.c **** 
1269:Middlewares/ST/STM32_WPAN/ble/core/auto/ble_events.c **** /* ACI_GATT_READ_MULTI_PERMIT_REQ_EVENT callback function */
1270:Middlewares/ST/STM32_WPAN/ble/core/auto/ble_events.c **** __WEAK void aci_gatt_read_multi_permit_req_event( uint16_t Connection_Handle,
1271:Middlewares/ST/STM32_WPAN/ble/core/auto/ble_events.c ****                                                   uint8_t Number_of_Handles,
1272:Middlewares/ST/STM32_WPAN/ble/core/auto/ble_events.c ****                                                   const Handle_Item_t* Handle_Item )
1273:Middlewares/ST/STM32_WPAN/ble/core/auto/ble_events.c **** {
 3695              		.loc 1 1273 1 is_stmt 1 view -0
 3696              		.cfi_startproc
 3697              		@ args = 0, pretend = 0, frame = 0
 3698              		@ frame_needed = 0, uses_anonymous_args = 0
 3699              		@ link register save eliminated.
1274:Middlewares/ST/STM32_WPAN/ble/core/auto/ble_events.c **** }
 3700              		.loc 1 1274 1 view .LVU557
 3701 0000 7047     		bx	lr
 3702              		.cfi_endproc
 3703              	.LFE128:
 3705              		.section	.text.aci_gatt_read_multi_permit_req_event_process,"ax",%progbits
 3706              		.align	1
 3707              		.syntax unified
 3708              		.thumb
 3709              		.thumb_func
 3711              	aci_gatt_read_multi_permit_req_event_process:
 3712              	.LVL316:
 3713              	.LFB129:
1275:Middlewares/ST/STM32_WPAN/ble/core/auto/ble_events.c **** 
1276:Middlewares/ST/STM32_WPAN/ble/core/auto/ble_events.c **** /* ACI_GATT_READ_MULTI_PERMIT_REQ_EVENT process function */
1277:Middlewares/ST/STM32_WPAN/ble/core/auto/ble_events.c **** static void aci_gatt_read_multi_permit_req_event_process( const uint8_t* in )
1278:Middlewares/ST/STM32_WPAN/ble/core/auto/ble_events.c **** {
 3714              		.loc 1 1278 1 view -0
 3715              		.cfi_startproc
 3716              		@ args = 0, pretend = 0, frame = 0
 3717              		@ frame_needed = 0, uses_anonymous_args = 0
 3718              		.loc 1 1278 1 is_stmt 0 view .LVU559
 3719 0000 08B5     		push	{r3, lr}
 3720              	.LCFI92:
 3721              		.cfi_def_cfa_offset 8
 3722              		.cfi_offset 3, -8
 3723              		.cfi_offset 14, -4
1279:Middlewares/ST/STM32_WPAN/ble/core/auto/ble_events.c ****   aci_gatt_read_multi_permit_req_event_rp0 *rp0 = (void*)in;
 3724              		.loc 1 1279 3 is_stmt 1 view .LVU560
 3725              	.LVL317:
1280:Middlewares/ST/STM32_WPAN/ble/core/auto/ble_events.c ****   aci_gatt_read_multi_permit_req_event( rp0->Connection_Handle,
 3726              		.loc 1 1280 3 view .LVU561
 3727 0002 C21C     		adds	r2, r0, #3
 3728 0004 8178     		ldrb	r1, [r0, #2]	@ zero_extendqisi2
 3729 0006 0088     		ldrh	r0, [r0]	@ unaligned
 3730              	.LVL318:
 3731              		.loc 1 1280 3 is_stmt 0 view .LVU562
 3732 0008 FFF7FEFF 		bl	aci_gatt_read_multi_permit_req_event
 3733              	.LVL319:
1281:Middlewares/ST/STM32_WPAN/ble/core/auto/ble_events.c ****                                         rp0->Number_of_Handles,
1282:Middlewares/ST/STM32_WPAN/ble/core/auto/ble_events.c ****                                         rp0->Handle_Item );
1283:Middlewares/ST/STM32_WPAN/ble/core/auto/ble_events.c **** }
 3734              		.loc 1 1283 1 view .LVU563
 3735 000c 08BD     		pop	{r3, pc}
 3736              		.cfi_endproc
ARM GAS  C:\Users\bku598\AppData\Local\Temp\cc3wINKy.s 			page 85


 3737              	.LFE129:
 3739              		.section	.text.aci_gatt_tx_pool_available_event,"ax",%progbits
 3740              		.align	1
 3741              		.weak	aci_gatt_tx_pool_available_event
 3742              		.syntax unified
 3743              		.thumb
 3744              		.thumb_func
 3746              	aci_gatt_tx_pool_available_event:
 3747              	.LVL320:
 3748              	.LFB130:
1284:Middlewares/ST/STM32_WPAN/ble/core/auto/ble_events.c **** 
1285:Middlewares/ST/STM32_WPAN/ble/core/auto/ble_events.c **** /* ACI_GATT_TX_POOL_AVAILABLE_EVENT callback function */
1286:Middlewares/ST/STM32_WPAN/ble/core/auto/ble_events.c **** __WEAK void aci_gatt_tx_pool_available_event( uint16_t Connection_Handle,
1287:Middlewares/ST/STM32_WPAN/ble/core/auto/ble_events.c ****                                               uint16_t Available_Buffers )
1288:Middlewares/ST/STM32_WPAN/ble/core/auto/ble_events.c **** {
 3749              		.loc 1 1288 1 is_stmt 1 view -0
 3750              		.cfi_startproc
 3751              		@ args = 0, pretend = 0, frame = 0
 3752              		@ frame_needed = 0, uses_anonymous_args = 0
 3753              		@ link register save eliminated.
1289:Middlewares/ST/STM32_WPAN/ble/core/auto/ble_events.c **** }
 3754              		.loc 1 1289 1 view .LVU565
 3755 0000 7047     		bx	lr
 3756              		.cfi_endproc
 3757              	.LFE130:
 3759              		.section	.text.aci_gatt_tx_pool_available_event_process,"ax",%progbits
 3760              		.align	1
 3761              		.syntax unified
 3762              		.thumb
 3763              		.thumb_func
 3765              	aci_gatt_tx_pool_available_event_process:
 3766              	.LVL321:
 3767              	.LFB131:
1290:Middlewares/ST/STM32_WPAN/ble/core/auto/ble_events.c **** 
1291:Middlewares/ST/STM32_WPAN/ble/core/auto/ble_events.c **** /* ACI_GATT_TX_POOL_AVAILABLE_EVENT process function */
1292:Middlewares/ST/STM32_WPAN/ble/core/auto/ble_events.c **** static void aci_gatt_tx_pool_available_event_process( const uint8_t* in )
1293:Middlewares/ST/STM32_WPAN/ble/core/auto/ble_events.c **** {
 3768              		.loc 1 1293 1 view -0
 3769              		.cfi_startproc
 3770              		@ args = 0, pretend = 0, frame = 0
 3771              		@ frame_needed = 0, uses_anonymous_args = 0
 3772              		.loc 1 1293 1 is_stmt 0 view .LVU567
 3773 0000 08B5     		push	{r3, lr}
 3774              	.LCFI93:
 3775              		.cfi_def_cfa_offset 8
 3776              		.cfi_offset 3, -8
 3777              		.cfi_offset 14, -4
1294:Middlewares/ST/STM32_WPAN/ble/core/auto/ble_events.c ****   aci_gatt_tx_pool_available_event_rp0 *rp0 = (void*)in;
 3778              		.loc 1 1294 3 is_stmt 1 view .LVU568
 3779              	.LVL322:
1295:Middlewares/ST/STM32_WPAN/ble/core/auto/ble_events.c ****   aci_gatt_tx_pool_available_event( rp0->Connection_Handle,
 3780              		.loc 1 1295 3 view .LVU569
 3781 0002 4188     		ldrh	r1, [r0, #2]	@ unaligned
 3782 0004 0088     		ldrh	r0, [r0]	@ unaligned
 3783              	.LVL323:
 3784              		.loc 1 1295 3 is_stmt 0 view .LVU570
 3785 0006 FFF7FEFF 		bl	aci_gatt_tx_pool_available_event
ARM GAS  C:\Users\bku598\AppData\Local\Temp\cc3wINKy.s 			page 86


 3786              	.LVL324:
1296:Middlewares/ST/STM32_WPAN/ble/core/auto/ble_events.c ****                                     rp0->Available_Buffers );
1297:Middlewares/ST/STM32_WPAN/ble/core/auto/ble_events.c **** }
 3787              		.loc 1 1297 1 view .LVU571
 3788 000a 08BD     		pop	{r3, pc}
 3789              		.cfi_endproc
 3790              	.LFE131:
 3792              		.section	.text.aci_gatt_server_confirmation_event,"ax",%progbits
 3793              		.align	1
 3794              		.weak	aci_gatt_server_confirmation_event
 3795              		.syntax unified
 3796              		.thumb
 3797              		.thumb_func
 3799              	aci_gatt_server_confirmation_event:
 3800              	.LVL325:
 3801              	.LFB132:
1298:Middlewares/ST/STM32_WPAN/ble/core/auto/ble_events.c **** 
1299:Middlewares/ST/STM32_WPAN/ble/core/auto/ble_events.c **** /* ACI_GATT_SERVER_CONFIRMATION_EVENT callback function */
1300:Middlewares/ST/STM32_WPAN/ble/core/auto/ble_events.c **** __WEAK void aci_gatt_server_confirmation_event( uint16_t Connection_Handle )
1301:Middlewares/ST/STM32_WPAN/ble/core/auto/ble_events.c **** {
 3802              		.loc 1 1301 1 is_stmt 1 view -0
 3803              		.cfi_startproc
 3804              		@ args = 0, pretend = 0, frame = 0
 3805              		@ frame_needed = 0, uses_anonymous_args = 0
 3806              		@ link register save eliminated.
1302:Middlewares/ST/STM32_WPAN/ble/core/auto/ble_events.c **** }
 3807              		.loc 1 1302 1 view .LVU573
 3808 0000 7047     		bx	lr
 3809              		.cfi_endproc
 3810              	.LFE132:
 3812              		.section	.text.aci_gatt_server_confirmation_event_process,"ax",%progbits
 3813              		.align	1
 3814              		.syntax unified
 3815              		.thumb
 3816              		.thumb_func
 3818              	aci_gatt_server_confirmation_event_process:
 3819              	.LVL326:
 3820              	.LFB133:
1303:Middlewares/ST/STM32_WPAN/ble/core/auto/ble_events.c **** 
1304:Middlewares/ST/STM32_WPAN/ble/core/auto/ble_events.c **** /* ACI_GATT_SERVER_CONFIRMATION_EVENT process function */
1305:Middlewares/ST/STM32_WPAN/ble/core/auto/ble_events.c **** static void aci_gatt_server_confirmation_event_process( const uint8_t* in )
1306:Middlewares/ST/STM32_WPAN/ble/core/auto/ble_events.c **** {
 3821              		.loc 1 1306 1 view -0
 3822              		.cfi_startproc
 3823              		@ args = 0, pretend = 0, frame = 0
 3824              		@ frame_needed = 0, uses_anonymous_args = 0
 3825              		.loc 1 1306 1 is_stmt 0 view .LVU575
 3826 0000 08B5     		push	{r3, lr}
 3827              	.LCFI94:
 3828              		.cfi_def_cfa_offset 8
 3829              		.cfi_offset 3, -8
 3830              		.cfi_offset 14, -4
1307:Middlewares/ST/STM32_WPAN/ble/core/auto/ble_events.c ****   aci_gatt_server_confirmation_event_rp0 *rp0 = (void*)in;
 3831              		.loc 1 1307 3 is_stmt 1 view .LVU576
 3832              	.LVL327:
1308:Middlewares/ST/STM32_WPAN/ble/core/auto/ble_events.c ****   aci_gatt_server_confirmation_event( rp0->Connection_Handle );
 3833              		.loc 1 1308 3 view .LVU577
ARM GAS  C:\Users\bku598\AppData\Local\Temp\cc3wINKy.s 			page 87


 3834 0002 0088     		ldrh	r0, [r0]	@ unaligned
 3835              	.LVL328:
 3836              		.loc 1 1308 3 is_stmt 0 view .LVU578
 3837 0004 FFF7FEFF 		bl	aci_gatt_server_confirmation_event
 3838              	.LVL329:
1309:Middlewares/ST/STM32_WPAN/ble/core/auto/ble_events.c **** }
 3839              		.loc 1 1309 1 view .LVU579
 3840 0008 08BD     		pop	{r3, pc}
 3841              		.cfi_endproc
 3842              	.LFE133:
 3844              		.section	.text.aci_gatt_prepare_write_permit_req_event,"ax",%progbits
 3845              		.align	1
 3846              		.weak	aci_gatt_prepare_write_permit_req_event
 3847              		.syntax unified
 3848              		.thumb
 3849              		.thumb_func
 3851              	aci_gatt_prepare_write_permit_req_event:
 3852              	.LVL330:
 3853              	.LFB134:
1310:Middlewares/ST/STM32_WPAN/ble/core/auto/ble_events.c **** 
1311:Middlewares/ST/STM32_WPAN/ble/core/auto/ble_events.c **** /* ACI_GATT_PREPARE_WRITE_PERMIT_REQ_EVENT callback function */
1312:Middlewares/ST/STM32_WPAN/ble/core/auto/ble_events.c **** __WEAK void aci_gatt_prepare_write_permit_req_event( uint16_t Connection_Handle,
1313:Middlewares/ST/STM32_WPAN/ble/core/auto/ble_events.c ****                                                      uint16_t Attribute_Handle,
1314:Middlewares/ST/STM32_WPAN/ble/core/auto/ble_events.c ****                                                      uint16_t Offset,
1315:Middlewares/ST/STM32_WPAN/ble/core/auto/ble_events.c ****                                                      uint8_t Data_Length,
1316:Middlewares/ST/STM32_WPAN/ble/core/auto/ble_events.c ****                                                      const uint8_t* Data )
1317:Middlewares/ST/STM32_WPAN/ble/core/auto/ble_events.c **** {
 3854              		.loc 1 1317 1 is_stmt 1 view -0
 3855              		.cfi_startproc
 3856              		@ args = 4, pretend = 0, frame = 0
 3857              		@ frame_needed = 0, uses_anonymous_args = 0
 3858              		@ link register save eliminated.
1318:Middlewares/ST/STM32_WPAN/ble/core/auto/ble_events.c **** }
 3859              		.loc 1 1318 1 view .LVU581
 3860 0000 7047     		bx	lr
 3861              		.cfi_endproc
 3862              	.LFE134:
 3864              		.section	.text.aci_gatt_prepare_write_permit_req_event_process,"ax",%progbits
 3865              		.align	1
 3866              		.syntax unified
 3867              		.thumb
 3868              		.thumb_func
 3870              	aci_gatt_prepare_write_permit_req_event_process:
 3871              	.LVL331:
 3872              	.LFB135:
1319:Middlewares/ST/STM32_WPAN/ble/core/auto/ble_events.c **** 
1320:Middlewares/ST/STM32_WPAN/ble/core/auto/ble_events.c **** /* ACI_GATT_PREPARE_WRITE_PERMIT_REQ_EVENT process function */
1321:Middlewares/ST/STM32_WPAN/ble/core/auto/ble_events.c **** static void aci_gatt_prepare_write_permit_req_event_process( const uint8_t* in )
1322:Middlewares/ST/STM32_WPAN/ble/core/auto/ble_events.c **** {
 3873              		.loc 1 1322 1 view -0
 3874              		.cfi_startproc
 3875              		@ args = 0, pretend = 0, frame = 0
 3876              		@ frame_needed = 0, uses_anonymous_args = 0
 3877              		.loc 1 1322 1 is_stmt 0 view .LVU583
 3878 0000 00B5     		push	{lr}
 3879              	.LCFI95:
 3880              		.cfi_def_cfa_offset 4
ARM GAS  C:\Users\bku598\AppData\Local\Temp\cc3wINKy.s 			page 88


 3881              		.cfi_offset 14, -4
 3882 0002 83B0     		sub	sp, sp, #12
 3883              	.LCFI96:
 3884              		.cfi_def_cfa_offset 16
1323:Middlewares/ST/STM32_WPAN/ble/core/auto/ble_events.c ****   aci_gatt_prepare_write_permit_req_event_rp0 *rp0 = (void*)in;
 3885              		.loc 1 1323 3 is_stmt 1 view .LVU584
 3886              	.LVL332:
1324:Middlewares/ST/STM32_WPAN/ble/core/auto/ble_events.c ****   aci_gatt_prepare_write_permit_req_event( rp0->Connection_Handle,
 3887              		.loc 1 1324 3 view .LVU585
1325:Middlewares/ST/STM32_WPAN/ble/core/auto/ble_events.c ****                                            rp0->Attribute_Handle,
1326:Middlewares/ST/STM32_WPAN/ble/core/auto/ble_events.c ****                                            rp0->Offset,
1327:Middlewares/ST/STM32_WPAN/ble/core/auto/ble_events.c ****                                            rp0->Data_Length,
1328:Middlewares/ST/STM32_WPAN/ble/core/auto/ble_events.c ****                                            rp0->Data );
 3888              		.loc 1 1328 47 is_stmt 0 view .LVU586
 3889 0004 C31D     		adds	r3, r0, #7
1324:Middlewares/ST/STM32_WPAN/ble/core/auto/ble_events.c ****   aci_gatt_prepare_write_permit_req_event( rp0->Connection_Handle,
 3890              		.loc 1 1324 3 view .LVU587
 3891 0006 0093     		str	r3, [sp]
 3892 0008 8379     		ldrb	r3, [r0, #6]	@ zero_extendqisi2
 3893 000a 8288     		ldrh	r2, [r0, #4]	@ unaligned
 3894 000c 4188     		ldrh	r1, [r0, #2]	@ unaligned
 3895 000e 0088     		ldrh	r0, [r0]	@ unaligned
 3896              	.LVL333:
1324:Middlewares/ST/STM32_WPAN/ble/core/auto/ble_events.c ****   aci_gatt_prepare_write_permit_req_event( rp0->Connection_Handle,
 3897              		.loc 1 1324 3 view .LVU588
 3898 0010 FFF7FEFF 		bl	aci_gatt_prepare_write_permit_req_event
 3899              	.LVL334:
1329:Middlewares/ST/STM32_WPAN/ble/core/auto/ble_events.c **** }
 3900              		.loc 1 1329 1 view .LVU589
 3901 0014 03B0     		add	sp, sp, #12
 3902              	.LCFI97:
 3903              		.cfi_def_cfa_offset 4
 3904              		@ sp needed
 3905 0016 5DF804FB 		ldr	pc, [sp], #4
 3906              		.cfi_endproc
 3907              	.LFE135:
 3909              		.section	.text.aci_gatt_eatt_bearer_event,"ax",%progbits
 3910              		.align	1
 3911              		.weak	aci_gatt_eatt_bearer_event
 3912              		.syntax unified
 3913              		.thumb
 3914              		.thumb_func
 3916              	aci_gatt_eatt_bearer_event:
 3917              	.LVL335:
 3918              	.LFB136:
1330:Middlewares/ST/STM32_WPAN/ble/core/auto/ble_events.c **** 
1331:Middlewares/ST/STM32_WPAN/ble/core/auto/ble_events.c **** /* ACI_GATT_EATT_BEARER_EVENT callback function */
1332:Middlewares/ST/STM32_WPAN/ble/core/auto/ble_events.c **** __WEAK void aci_gatt_eatt_bearer_event( uint16_t Connection_Handle,
1333:Middlewares/ST/STM32_WPAN/ble/core/auto/ble_events.c ****                                         uint8_t Channel_Index,
1334:Middlewares/ST/STM32_WPAN/ble/core/auto/ble_events.c ****                                         uint8_t EAB_State,
1335:Middlewares/ST/STM32_WPAN/ble/core/auto/ble_events.c ****                                         uint16_t MTU )
1336:Middlewares/ST/STM32_WPAN/ble/core/auto/ble_events.c **** {
 3919              		.loc 1 1336 1 is_stmt 1 view -0
 3920              		.cfi_startproc
 3921              		@ args = 0, pretend = 0, frame = 0
 3922              		@ frame_needed = 0, uses_anonymous_args = 0
 3923              		@ link register save eliminated.
ARM GAS  C:\Users\bku598\AppData\Local\Temp\cc3wINKy.s 			page 89


1337:Middlewares/ST/STM32_WPAN/ble/core/auto/ble_events.c **** }
 3924              		.loc 1 1337 1 view .LVU591
 3925 0000 7047     		bx	lr
 3926              		.cfi_endproc
 3927              	.LFE136:
 3929              		.section	.text.aci_gatt_eatt_bearer_event_process,"ax",%progbits
 3930              		.align	1
 3931              		.syntax unified
 3932              		.thumb
 3933              		.thumb_func
 3935              	aci_gatt_eatt_bearer_event_process:
 3936              	.LVL336:
 3937              	.LFB137:
1338:Middlewares/ST/STM32_WPAN/ble/core/auto/ble_events.c **** 
1339:Middlewares/ST/STM32_WPAN/ble/core/auto/ble_events.c **** /* ACI_GATT_EATT_BEARER_EVENT process function */
1340:Middlewares/ST/STM32_WPAN/ble/core/auto/ble_events.c **** static void aci_gatt_eatt_bearer_event_process( const uint8_t* in )
1341:Middlewares/ST/STM32_WPAN/ble/core/auto/ble_events.c **** {
 3938              		.loc 1 1341 1 view -0
 3939              		.cfi_startproc
 3940              		@ args = 0, pretend = 0, frame = 0
 3941              		@ frame_needed = 0, uses_anonymous_args = 0
 3942              		.loc 1 1341 1 is_stmt 0 view .LVU593
 3943 0000 08B5     		push	{r3, lr}
 3944              	.LCFI98:
 3945              		.cfi_def_cfa_offset 8
 3946              		.cfi_offset 3, -8
 3947              		.cfi_offset 14, -4
1342:Middlewares/ST/STM32_WPAN/ble/core/auto/ble_events.c ****   aci_gatt_eatt_bearer_event_rp0 *rp0 = (void*)in;
 3948              		.loc 1 1342 3 is_stmt 1 view .LVU594
 3949              	.LVL337:
1343:Middlewares/ST/STM32_WPAN/ble/core/auto/ble_events.c ****   aci_gatt_eatt_bearer_event( rp0->Connection_Handle,
 3950              		.loc 1 1343 3 view .LVU595
 3951 0002 8388     		ldrh	r3, [r0, #4]	@ unaligned
 3952 0004 C278     		ldrb	r2, [r0, #3]	@ zero_extendqisi2
 3953 0006 8178     		ldrb	r1, [r0, #2]	@ zero_extendqisi2
 3954 0008 0088     		ldrh	r0, [r0]	@ unaligned
 3955              	.LVL338:
 3956              		.loc 1 1343 3 is_stmt 0 view .LVU596
 3957 000a FFF7FEFF 		bl	aci_gatt_eatt_bearer_event
 3958              	.LVL339:
1344:Middlewares/ST/STM32_WPAN/ble/core/auto/ble_events.c ****                               rp0->Channel_Index,
1345:Middlewares/ST/STM32_WPAN/ble/core/auto/ble_events.c ****                               rp0->EAB_State,
1346:Middlewares/ST/STM32_WPAN/ble/core/auto/ble_events.c ****                               rp0->MTU );
1347:Middlewares/ST/STM32_WPAN/ble/core/auto/ble_events.c **** }
 3959              		.loc 1 1347 1 view .LVU597
 3960 000e 08BD     		pop	{r3, pc}
 3961              		.cfi_endproc
 3962              	.LFE137:
 3964              		.section	.text.aci_gatt_mult_notification_event,"ax",%progbits
 3965              		.align	1
 3966              		.weak	aci_gatt_mult_notification_event
 3967              		.syntax unified
 3968              		.thumb
 3969              		.thumb_func
 3971              	aci_gatt_mult_notification_event:
 3972              	.LVL340:
 3973              	.LFB138:
ARM GAS  C:\Users\bku598\AppData\Local\Temp\cc3wINKy.s 			page 90


1348:Middlewares/ST/STM32_WPAN/ble/core/auto/ble_events.c **** 
1349:Middlewares/ST/STM32_WPAN/ble/core/auto/ble_events.c **** /* ACI_GATT_MULT_NOTIFICATION_EVENT callback function */
1350:Middlewares/ST/STM32_WPAN/ble/core/auto/ble_events.c **** __WEAK void aci_gatt_mult_notification_event( uint16_t Connection_Handle,
1351:Middlewares/ST/STM32_WPAN/ble/core/auto/ble_events.c ****                                               uint16_t Offset,
1352:Middlewares/ST/STM32_WPAN/ble/core/auto/ble_events.c ****                                               uint16_t Data_Length,
1353:Middlewares/ST/STM32_WPAN/ble/core/auto/ble_events.c ****                                               const uint8_t* Data )
1354:Middlewares/ST/STM32_WPAN/ble/core/auto/ble_events.c **** {
 3974              		.loc 1 1354 1 is_stmt 1 view -0
 3975              		.cfi_startproc
 3976              		@ args = 0, pretend = 0, frame = 0
 3977              		@ frame_needed = 0, uses_anonymous_args = 0
 3978              		@ link register save eliminated.
1355:Middlewares/ST/STM32_WPAN/ble/core/auto/ble_events.c **** }
 3979              		.loc 1 1355 1 view .LVU599
 3980 0000 7047     		bx	lr
 3981              		.cfi_endproc
 3982              	.LFE138:
 3984              		.section	.text.aci_gatt_mult_notification_event_process,"ax",%progbits
 3985              		.align	1
 3986              		.syntax unified
 3987              		.thumb
 3988              		.thumb_func
 3990              	aci_gatt_mult_notification_event_process:
 3991              	.LVL341:
 3992              	.LFB139:
1356:Middlewares/ST/STM32_WPAN/ble/core/auto/ble_events.c **** 
1357:Middlewares/ST/STM32_WPAN/ble/core/auto/ble_events.c **** /* ACI_GATT_MULT_NOTIFICATION_EVENT process function */
1358:Middlewares/ST/STM32_WPAN/ble/core/auto/ble_events.c **** static void aci_gatt_mult_notification_event_process( const uint8_t* in )
1359:Middlewares/ST/STM32_WPAN/ble/core/auto/ble_events.c **** {
 3993              		.loc 1 1359 1 view -0
 3994              		.cfi_startproc
 3995              		@ args = 0, pretend = 0, frame = 0
 3996              		@ frame_needed = 0, uses_anonymous_args = 0
 3997              		.loc 1 1359 1 is_stmt 0 view .LVU601
 3998 0000 08B5     		push	{r3, lr}
 3999              	.LCFI99:
 4000              		.cfi_def_cfa_offset 8
 4001              		.cfi_offset 3, -8
 4002              		.cfi_offset 14, -4
1360:Middlewares/ST/STM32_WPAN/ble/core/auto/ble_events.c ****   aci_gatt_mult_notification_event_rp0 *rp0 = (void*)in;
 4003              		.loc 1 1360 3 is_stmt 1 view .LVU602
 4004              	.LVL342:
1361:Middlewares/ST/STM32_WPAN/ble/core/auto/ble_events.c ****   aci_gatt_mult_notification_event( rp0->Connection_Handle,
 4005              		.loc 1 1361 3 view .LVU603
 4006 0002 831D     		adds	r3, r0, #6
 4007 0004 8288     		ldrh	r2, [r0, #4]	@ unaligned
 4008 0006 4188     		ldrh	r1, [r0, #2]	@ unaligned
 4009 0008 0088     		ldrh	r0, [r0]	@ unaligned
 4010              	.LVL343:
 4011              		.loc 1 1361 3 is_stmt 0 view .LVU604
 4012 000a FFF7FEFF 		bl	aci_gatt_mult_notification_event
 4013              	.LVL344:
1362:Middlewares/ST/STM32_WPAN/ble/core/auto/ble_events.c ****                                     rp0->Offset,
1363:Middlewares/ST/STM32_WPAN/ble/core/auto/ble_events.c ****                                     rp0->Data_Length,
1364:Middlewares/ST/STM32_WPAN/ble/core/auto/ble_events.c ****                                     rp0->Data );
1365:Middlewares/ST/STM32_WPAN/ble/core/auto/ble_events.c **** }
 4014              		.loc 1 1365 1 view .LVU605
ARM GAS  C:\Users\bku598\AppData\Local\Temp\cc3wINKy.s 			page 91


 4015 000e 08BD     		pop	{r3, pc}
 4016              		.cfi_endproc
 4017              	.LFE139:
 4019              		.section	.text.aci_gatt_notification_complete_event,"ax",%progbits
 4020              		.align	1
 4021              		.weak	aci_gatt_notification_complete_event
 4022              		.syntax unified
 4023              		.thumb
 4024              		.thumb_func
 4026              	aci_gatt_notification_complete_event:
 4027              	.LVL345:
 4028              	.LFB140:
1366:Middlewares/ST/STM32_WPAN/ble/core/auto/ble_events.c **** 
1367:Middlewares/ST/STM32_WPAN/ble/core/auto/ble_events.c **** /* ACI_GATT_NOTIFICATION_COMPLETE_EVENT callback function */
1368:Middlewares/ST/STM32_WPAN/ble/core/auto/ble_events.c **** __WEAK void aci_gatt_notification_complete_event( uint16_t Attr_Handle )
1369:Middlewares/ST/STM32_WPAN/ble/core/auto/ble_events.c **** {
 4029              		.loc 1 1369 1 is_stmt 1 view -0
 4030              		.cfi_startproc
 4031              		@ args = 0, pretend = 0, frame = 0
 4032              		@ frame_needed = 0, uses_anonymous_args = 0
 4033              		@ link register save eliminated.
1370:Middlewares/ST/STM32_WPAN/ble/core/auto/ble_events.c **** }
 4034              		.loc 1 1370 1 view .LVU607
 4035 0000 7047     		bx	lr
 4036              		.cfi_endproc
 4037              	.LFE140:
 4039              		.section	.text.aci_gatt_notification_complete_event_process,"ax",%progbits
 4040              		.align	1
 4041              		.syntax unified
 4042              		.thumb
 4043              		.thumb_func
 4045              	aci_gatt_notification_complete_event_process:
 4046              	.LVL346:
 4047              	.LFB141:
1371:Middlewares/ST/STM32_WPAN/ble/core/auto/ble_events.c **** 
1372:Middlewares/ST/STM32_WPAN/ble/core/auto/ble_events.c **** /* ACI_GATT_NOTIFICATION_COMPLETE_EVENT process function */
1373:Middlewares/ST/STM32_WPAN/ble/core/auto/ble_events.c **** static void aci_gatt_notification_complete_event_process( const uint8_t* in )
1374:Middlewares/ST/STM32_WPAN/ble/core/auto/ble_events.c **** {
 4048              		.loc 1 1374 1 view -0
 4049              		.cfi_startproc
 4050              		@ args = 0, pretend = 0, frame = 0
 4051              		@ frame_needed = 0, uses_anonymous_args = 0
 4052              		.loc 1 1374 1 is_stmt 0 view .LVU609
 4053 0000 08B5     		push	{r3, lr}
 4054              	.LCFI100:
 4055              		.cfi_def_cfa_offset 8
 4056              		.cfi_offset 3, -8
 4057              		.cfi_offset 14, -4
1375:Middlewares/ST/STM32_WPAN/ble/core/auto/ble_events.c ****   aci_gatt_notification_complete_event_rp0 *rp0 = (void*)in;
 4058              		.loc 1 1375 3 is_stmt 1 view .LVU610
 4059              	.LVL347:
1376:Middlewares/ST/STM32_WPAN/ble/core/auto/ble_events.c ****   aci_gatt_notification_complete_event( rp0->Attr_Handle );
 4060              		.loc 1 1376 3 view .LVU611
 4061 0002 0088     		ldrh	r0, [r0]	@ unaligned
 4062              	.LVL348:
 4063              		.loc 1 1376 3 is_stmt 0 view .LVU612
 4064 0004 FFF7FEFF 		bl	aci_gatt_notification_complete_event
ARM GAS  C:\Users\bku598\AppData\Local\Temp\cc3wINKy.s 			page 92


 4065              	.LVL349:
1377:Middlewares/ST/STM32_WPAN/ble/core/auto/ble_events.c **** }
 4066              		.loc 1 1377 1 view .LVU613
 4067 0008 08BD     		pop	{r3, pc}
 4068              		.cfi_endproc
 4069              	.LFE141:
 4071              		.section	.text.aci_gatt_read_ext_event,"ax",%progbits
 4072              		.align	1
 4073              		.weak	aci_gatt_read_ext_event
 4074              		.syntax unified
 4075              		.thumb
 4076              		.thumb_func
 4078              	aci_gatt_read_ext_event:
 4079              	.LVL350:
 4080              	.LFB142:
1378:Middlewares/ST/STM32_WPAN/ble/core/auto/ble_events.c **** 
1379:Middlewares/ST/STM32_WPAN/ble/core/auto/ble_events.c **** /* ACI_GATT_READ_EXT_EVENT callback function */
1380:Middlewares/ST/STM32_WPAN/ble/core/auto/ble_events.c **** __WEAK void aci_gatt_read_ext_event( uint16_t Connection_Handle,
1381:Middlewares/ST/STM32_WPAN/ble/core/auto/ble_events.c ****                                      uint16_t Offset,
1382:Middlewares/ST/STM32_WPAN/ble/core/auto/ble_events.c ****                                      uint16_t Event_Data_Length,
1383:Middlewares/ST/STM32_WPAN/ble/core/auto/ble_events.c ****                                      const uint8_t* Attribute_Value )
1384:Middlewares/ST/STM32_WPAN/ble/core/auto/ble_events.c **** {
 4081              		.loc 1 1384 1 is_stmt 1 view -0
 4082              		.cfi_startproc
 4083              		@ args = 0, pretend = 0, frame = 0
 4084              		@ frame_needed = 0, uses_anonymous_args = 0
 4085              		@ link register save eliminated.
1385:Middlewares/ST/STM32_WPAN/ble/core/auto/ble_events.c **** }
 4086              		.loc 1 1385 1 view .LVU615
 4087 0000 7047     		bx	lr
 4088              		.cfi_endproc
 4089              	.LFE142:
 4091              		.section	.text.aci_gatt_read_ext_event_process,"ax",%progbits
 4092              		.align	1
 4093              		.syntax unified
 4094              		.thumb
 4095              		.thumb_func
 4097              	aci_gatt_read_ext_event_process:
 4098              	.LVL351:
 4099              	.LFB143:
1386:Middlewares/ST/STM32_WPAN/ble/core/auto/ble_events.c **** 
1387:Middlewares/ST/STM32_WPAN/ble/core/auto/ble_events.c **** /* ACI_GATT_READ_EXT_EVENT process function */
1388:Middlewares/ST/STM32_WPAN/ble/core/auto/ble_events.c **** static void aci_gatt_read_ext_event_process( const uint8_t* in )
1389:Middlewares/ST/STM32_WPAN/ble/core/auto/ble_events.c **** {
 4100              		.loc 1 1389 1 view -0
 4101              		.cfi_startproc
 4102              		@ args = 0, pretend = 0, frame = 0
 4103              		@ frame_needed = 0, uses_anonymous_args = 0
 4104              		.loc 1 1389 1 is_stmt 0 view .LVU617
 4105 0000 08B5     		push	{r3, lr}
 4106              	.LCFI101:
 4107              		.cfi_def_cfa_offset 8
 4108              		.cfi_offset 3, -8
 4109              		.cfi_offset 14, -4
1390:Middlewares/ST/STM32_WPAN/ble/core/auto/ble_events.c ****   aci_gatt_read_ext_event_rp0 *rp0 = (void*)in;
 4110              		.loc 1 1390 3 is_stmt 1 view .LVU618
 4111              	.LVL352:
ARM GAS  C:\Users\bku598\AppData\Local\Temp\cc3wINKy.s 			page 93


1391:Middlewares/ST/STM32_WPAN/ble/core/auto/ble_events.c ****   aci_gatt_read_ext_event( rp0->Connection_Handle,
 4112              		.loc 1 1391 3 view .LVU619
 4113 0002 831D     		adds	r3, r0, #6
 4114 0004 8288     		ldrh	r2, [r0, #4]	@ unaligned
 4115 0006 4188     		ldrh	r1, [r0, #2]	@ unaligned
 4116 0008 0088     		ldrh	r0, [r0]	@ unaligned
 4117              	.LVL353:
 4118              		.loc 1 1391 3 is_stmt 0 view .LVU620
 4119 000a FFF7FEFF 		bl	aci_gatt_read_ext_event
 4120              	.LVL354:
1392:Middlewares/ST/STM32_WPAN/ble/core/auto/ble_events.c ****                            rp0->Offset,
1393:Middlewares/ST/STM32_WPAN/ble/core/auto/ble_events.c ****                            rp0->Event_Data_Length,
1394:Middlewares/ST/STM32_WPAN/ble/core/auto/ble_events.c ****                            rp0->Attribute_Value );
1395:Middlewares/ST/STM32_WPAN/ble/core/auto/ble_events.c **** }
 4121              		.loc 1 1395 1 view .LVU621
 4122 000e 08BD     		pop	{r3, pc}
 4123              		.cfi_endproc
 4124              	.LFE143:
 4126              		.section	.text.aci_gatt_indication_ext_event,"ax",%progbits
 4127              		.align	1
 4128              		.weak	aci_gatt_indication_ext_event
 4129              		.syntax unified
 4130              		.thumb
 4131              		.thumb_func
 4133              	aci_gatt_indication_ext_event:
 4134              	.LVL355:
 4135              	.LFB144:
1396:Middlewares/ST/STM32_WPAN/ble/core/auto/ble_events.c **** 
1397:Middlewares/ST/STM32_WPAN/ble/core/auto/ble_events.c **** /* ACI_GATT_INDICATION_EXT_EVENT callback function */
1398:Middlewares/ST/STM32_WPAN/ble/core/auto/ble_events.c **** __WEAK void aci_gatt_indication_ext_event( uint16_t Connection_Handle,
1399:Middlewares/ST/STM32_WPAN/ble/core/auto/ble_events.c ****                                            uint16_t Attribute_Handle,
1400:Middlewares/ST/STM32_WPAN/ble/core/auto/ble_events.c ****                                            uint16_t Offset,
1401:Middlewares/ST/STM32_WPAN/ble/core/auto/ble_events.c ****                                            uint16_t Attribute_Value_Length,
1402:Middlewares/ST/STM32_WPAN/ble/core/auto/ble_events.c ****                                            const uint8_t* Attribute_Value )
1403:Middlewares/ST/STM32_WPAN/ble/core/auto/ble_events.c **** {
 4136              		.loc 1 1403 1 is_stmt 1 view -0
 4137              		.cfi_startproc
 4138              		@ args = 4, pretend = 0, frame = 0
 4139              		@ frame_needed = 0, uses_anonymous_args = 0
 4140              		@ link register save eliminated.
1404:Middlewares/ST/STM32_WPAN/ble/core/auto/ble_events.c **** }
 4141              		.loc 1 1404 1 view .LVU623
 4142 0000 7047     		bx	lr
 4143              		.cfi_endproc
 4144              	.LFE144:
 4146              		.section	.text.aci_gatt_indication_ext_event_process,"ax",%progbits
 4147              		.align	1
 4148              		.syntax unified
 4149              		.thumb
 4150              		.thumb_func
 4152              	aci_gatt_indication_ext_event_process:
 4153              	.LVL356:
 4154              	.LFB145:
1405:Middlewares/ST/STM32_WPAN/ble/core/auto/ble_events.c **** 
1406:Middlewares/ST/STM32_WPAN/ble/core/auto/ble_events.c **** /* ACI_GATT_INDICATION_EXT_EVENT process function */
1407:Middlewares/ST/STM32_WPAN/ble/core/auto/ble_events.c **** static void aci_gatt_indication_ext_event_process( const uint8_t* in )
1408:Middlewares/ST/STM32_WPAN/ble/core/auto/ble_events.c **** {
ARM GAS  C:\Users\bku598\AppData\Local\Temp\cc3wINKy.s 			page 94


 4155              		.loc 1 1408 1 view -0
 4156              		.cfi_startproc
 4157              		@ args = 0, pretend = 0, frame = 0
 4158              		@ frame_needed = 0, uses_anonymous_args = 0
 4159              		.loc 1 1408 1 is_stmt 0 view .LVU625
 4160 0000 00B5     		push	{lr}
 4161              	.LCFI102:
 4162              		.cfi_def_cfa_offset 4
 4163              		.cfi_offset 14, -4
 4164 0002 83B0     		sub	sp, sp, #12
 4165              	.LCFI103:
 4166              		.cfi_def_cfa_offset 16
1409:Middlewares/ST/STM32_WPAN/ble/core/auto/ble_events.c ****   aci_gatt_indication_ext_event_rp0 *rp0 = (void*)in;
 4167              		.loc 1 1409 3 is_stmt 1 view .LVU626
 4168              	.LVL357:
1410:Middlewares/ST/STM32_WPAN/ble/core/auto/ble_events.c ****   aci_gatt_indication_ext_event( rp0->Connection_Handle,
 4169              		.loc 1 1410 3 view .LVU627
1411:Middlewares/ST/STM32_WPAN/ble/core/auto/ble_events.c ****                                  rp0->Attribute_Handle,
1412:Middlewares/ST/STM32_WPAN/ble/core/auto/ble_events.c ****                                  rp0->Offset,
1413:Middlewares/ST/STM32_WPAN/ble/core/auto/ble_events.c ****                                  rp0->Attribute_Value_Length,
1414:Middlewares/ST/STM32_WPAN/ble/core/auto/ble_events.c ****                                  rp0->Attribute_Value );
 4170              		.loc 1 1414 37 is_stmt 0 view .LVU628
 4171 0004 00F10803 		add	r3, r0, #8
1410:Middlewares/ST/STM32_WPAN/ble/core/auto/ble_events.c ****   aci_gatt_indication_ext_event( rp0->Connection_Handle,
 4172              		.loc 1 1410 3 view .LVU629
 4173 0008 0093     		str	r3, [sp]
 4174 000a C388     		ldrh	r3, [r0, #6]	@ unaligned
 4175 000c 8288     		ldrh	r2, [r0, #4]	@ unaligned
 4176 000e 4188     		ldrh	r1, [r0, #2]	@ unaligned
 4177 0010 0088     		ldrh	r0, [r0]	@ unaligned
 4178              	.LVL358:
1410:Middlewares/ST/STM32_WPAN/ble/core/auto/ble_events.c ****   aci_gatt_indication_ext_event( rp0->Connection_Handle,
 4179              		.loc 1 1410 3 view .LVU630
 4180 0012 FFF7FEFF 		bl	aci_gatt_indication_ext_event
 4181              	.LVL359:
1415:Middlewares/ST/STM32_WPAN/ble/core/auto/ble_events.c **** }
 4182              		.loc 1 1415 1 view .LVU631
 4183 0016 03B0     		add	sp, sp, #12
 4184              	.LCFI104:
 4185              		.cfi_def_cfa_offset 4
 4186              		@ sp needed
 4187 0018 5DF804FB 		ldr	pc, [sp], #4
 4188              		.cfi_endproc
 4189              	.LFE145:
 4191              		.section	.text.aci_gatt_notification_ext_event,"ax",%progbits
 4192              		.align	1
 4193              		.weak	aci_gatt_notification_ext_event
 4194              		.syntax unified
 4195              		.thumb
 4196              		.thumb_func
 4198              	aci_gatt_notification_ext_event:
 4199              	.LVL360:
 4200              	.LFB146:
1416:Middlewares/ST/STM32_WPAN/ble/core/auto/ble_events.c **** 
1417:Middlewares/ST/STM32_WPAN/ble/core/auto/ble_events.c **** /* ACI_GATT_NOTIFICATION_EXT_EVENT callback function */
1418:Middlewares/ST/STM32_WPAN/ble/core/auto/ble_events.c **** __WEAK void aci_gatt_notification_ext_event( uint16_t Connection_Handle,
1419:Middlewares/ST/STM32_WPAN/ble/core/auto/ble_events.c ****                                              uint16_t Attribute_Handle,
ARM GAS  C:\Users\bku598\AppData\Local\Temp\cc3wINKy.s 			page 95


1420:Middlewares/ST/STM32_WPAN/ble/core/auto/ble_events.c ****                                              uint16_t Offset,
1421:Middlewares/ST/STM32_WPAN/ble/core/auto/ble_events.c ****                                              uint16_t Attribute_Value_Length,
1422:Middlewares/ST/STM32_WPAN/ble/core/auto/ble_events.c ****                                              const uint8_t* Attribute_Value )
1423:Middlewares/ST/STM32_WPAN/ble/core/auto/ble_events.c **** {
 4201              		.loc 1 1423 1 is_stmt 1 view -0
 4202              		.cfi_startproc
 4203              		@ args = 4, pretend = 0, frame = 0
 4204              		@ frame_needed = 0, uses_anonymous_args = 0
 4205              		@ link register save eliminated.
1424:Middlewares/ST/STM32_WPAN/ble/core/auto/ble_events.c **** }
 4206              		.loc 1 1424 1 view .LVU633
 4207 0000 7047     		bx	lr
 4208              		.cfi_endproc
 4209              	.LFE146:
 4211              		.section	.text.aci_gatt_notification_ext_event_process,"ax",%progbits
 4212              		.align	1
 4213              		.syntax unified
 4214              		.thumb
 4215              		.thumb_func
 4217              	aci_gatt_notification_ext_event_process:
 4218              	.LVL361:
 4219              	.LFB147:
1425:Middlewares/ST/STM32_WPAN/ble/core/auto/ble_events.c **** 
1426:Middlewares/ST/STM32_WPAN/ble/core/auto/ble_events.c **** /* ACI_GATT_NOTIFICATION_EXT_EVENT process function */
1427:Middlewares/ST/STM32_WPAN/ble/core/auto/ble_events.c **** static void aci_gatt_notification_ext_event_process( const uint8_t* in )
1428:Middlewares/ST/STM32_WPAN/ble/core/auto/ble_events.c **** {
 4220              		.loc 1 1428 1 view -0
 4221              		.cfi_startproc
 4222              		@ args = 0, pretend = 0, frame = 0
 4223              		@ frame_needed = 0, uses_anonymous_args = 0
 4224              		.loc 1 1428 1 is_stmt 0 view .LVU635
 4225 0000 00B5     		push	{lr}
 4226              	.LCFI105:
 4227              		.cfi_def_cfa_offset 4
 4228              		.cfi_offset 14, -4
 4229 0002 83B0     		sub	sp, sp, #12
 4230              	.LCFI106:
 4231              		.cfi_def_cfa_offset 16
1429:Middlewares/ST/STM32_WPAN/ble/core/auto/ble_events.c ****   aci_gatt_notification_ext_event_rp0 *rp0 = (void*)in;
 4232              		.loc 1 1429 3 is_stmt 1 view .LVU636
 4233              	.LVL362:
1430:Middlewares/ST/STM32_WPAN/ble/core/auto/ble_events.c ****   aci_gatt_notification_ext_event( rp0->Connection_Handle,
 4234              		.loc 1 1430 3 view .LVU637
1431:Middlewares/ST/STM32_WPAN/ble/core/auto/ble_events.c ****                                    rp0->Attribute_Handle,
1432:Middlewares/ST/STM32_WPAN/ble/core/auto/ble_events.c ****                                    rp0->Offset,
1433:Middlewares/ST/STM32_WPAN/ble/core/auto/ble_events.c ****                                    rp0->Attribute_Value_Length,
1434:Middlewares/ST/STM32_WPAN/ble/core/auto/ble_events.c ****                                    rp0->Attribute_Value );
 4235              		.loc 1 1434 39 is_stmt 0 view .LVU638
 4236 0004 00F10803 		add	r3, r0, #8
1430:Middlewares/ST/STM32_WPAN/ble/core/auto/ble_events.c ****   aci_gatt_notification_ext_event( rp0->Connection_Handle,
 4237              		.loc 1 1430 3 view .LVU639
 4238 0008 0093     		str	r3, [sp]
 4239 000a C388     		ldrh	r3, [r0, #6]	@ unaligned
 4240 000c 8288     		ldrh	r2, [r0, #4]	@ unaligned
 4241 000e 4188     		ldrh	r1, [r0, #2]	@ unaligned
 4242 0010 0088     		ldrh	r0, [r0]	@ unaligned
 4243              	.LVL363:
ARM GAS  C:\Users\bku598\AppData\Local\Temp\cc3wINKy.s 			page 96


1430:Middlewares/ST/STM32_WPAN/ble/core/auto/ble_events.c ****   aci_gatt_notification_ext_event( rp0->Connection_Handle,
 4244              		.loc 1 1430 3 view .LVU640
 4245 0012 FFF7FEFF 		bl	aci_gatt_notification_ext_event
 4246              	.LVL364:
1435:Middlewares/ST/STM32_WPAN/ble/core/auto/ble_events.c **** }
 4247              		.loc 1 1435 1 view .LVU641
 4248 0016 03B0     		add	sp, sp, #12
 4249              	.LCFI107:
 4250              		.cfi_def_cfa_offset 4
 4251              		@ sp needed
 4252 0018 5DF804FB 		ldr	pc, [sp], #4
 4253              		.cfi_endproc
 4254              	.LFE147:
 4256              		.section	.text.aci_hal_end_of_radio_activity_event,"ax",%progbits
 4257              		.align	1
 4258              		.weak	aci_hal_end_of_radio_activity_event
 4259              		.syntax unified
 4260              		.thumb
 4261              		.thumb_func
 4263              	aci_hal_end_of_radio_activity_event:
 4264              	.LVL365:
 4265              	.LFB148:
1436:Middlewares/ST/STM32_WPAN/ble/core/auto/ble_events.c **** 
1437:Middlewares/ST/STM32_WPAN/ble/core/auto/ble_events.c **** /* ACI_HAL_END_OF_RADIO_ACTIVITY_EVENT callback function */
1438:Middlewares/ST/STM32_WPAN/ble/core/auto/ble_events.c **** __WEAK void aci_hal_end_of_radio_activity_event( uint8_t Last_State,
1439:Middlewares/ST/STM32_WPAN/ble/core/auto/ble_events.c ****                                                  uint8_t Next_State,
1440:Middlewares/ST/STM32_WPAN/ble/core/auto/ble_events.c ****                                                  uint32_t Next_State_SysTime,
1441:Middlewares/ST/STM32_WPAN/ble/core/auto/ble_events.c ****                                                  uint8_t Last_State_Slot,
1442:Middlewares/ST/STM32_WPAN/ble/core/auto/ble_events.c ****                                                  uint8_t Next_State_Slot )
1443:Middlewares/ST/STM32_WPAN/ble/core/auto/ble_events.c **** {
 4266              		.loc 1 1443 1 is_stmt 1 view -0
 4267              		.cfi_startproc
 4268              		@ args = 4, pretend = 0, frame = 0
 4269              		@ frame_needed = 0, uses_anonymous_args = 0
 4270              		@ link register save eliminated.
1444:Middlewares/ST/STM32_WPAN/ble/core/auto/ble_events.c **** }
 4271              		.loc 1 1444 1 view .LVU643
 4272 0000 7047     		bx	lr
 4273              		.cfi_endproc
 4274              	.LFE148:
 4276              		.section	.text.aci_hal_end_of_radio_activity_event_process,"ax",%progbits
 4277              		.align	1
 4278              		.syntax unified
 4279              		.thumb
 4280              		.thumb_func
 4282              	aci_hal_end_of_radio_activity_event_process:
 4283              	.LVL366:
 4284              	.LFB149:
1445:Middlewares/ST/STM32_WPAN/ble/core/auto/ble_events.c **** 
1446:Middlewares/ST/STM32_WPAN/ble/core/auto/ble_events.c **** /* ACI_HAL_END_OF_RADIO_ACTIVITY_EVENT process function */
1447:Middlewares/ST/STM32_WPAN/ble/core/auto/ble_events.c **** static void aci_hal_end_of_radio_activity_event_process( const uint8_t* in )
1448:Middlewares/ST/STM32_WPAN/ble/core/auto/ble_events.c **** {
 4285              		.loc 1 1448 1 view -0
 4286              		.cfi_startproc
 4287              		@ args = 0, pretend = 0, frame = 0
 4288              		@ frame_needed = 0, uses_anonymous_args = 0
 4289              		.loc 1 1448 1 is_stmt 0 view .LVU645
ARM GAS  C:\Users\bku598\AppData\Local\Temp\cc3wINKy.s 			page 97


 4290 0000 00B5     		push	{lr}
 4291              	.LCFI108:
 4292              		.cfi_def_cfa_offset 4
 4293              		.cfi_offset 14, -4
 4294 0002 83B0     		sub	sp, sp, #12
 4295              	.LCFI109:
 4296              		.cfi_def_cfa_offset 16
1449:Middlewares/ST/STM32_WPAN/ble/core/auto/ble_events.c ****   aci_hal_end_of_radio_activity_event_rp0 *rp0 = (void*)in;
 4297              		.loc 1 1449 3 is_stmt 1 view .LVU646
 4298              	.LVL367:
1450:Middlewares/ST/STM32_WPAN/ble/core/auto/ble_events.c ****   aci_hal_end_of_radio_activity_event( rp0->Last_State,
 4299              		.loc 1 1450 3 view .LVU647
 4300 0004 C379     		ldrb	r3, [r0, #7]	@ zero_extendqisi2
 4301 0006 0093     		str	r3, [sp]
 4302 0008 8379     		ldrb	r3, [r0, #6]	@ zero_extendqisi2
 4303 000a D0F80220 		ldr	r2, [r0, #2]	@ unaligned
 4304 000e 4178     		ldrb	r1, [r0, #1]	@ zero_extendqisi2
 4305 0010 0078     		ldrb	r0, [r0]	@ zero_extendqisi2
 4306              	.LVL368:
 4307              		.loc 1 1450 3 is_stmt 0 view .LVU648
 4308 0012 FFF7FEFF 		bl	aci_hal_end_of_radio_activity_event
 4309              	.LVL369:
1451:Middlewares/ST/STM32_WPAN/ble/core/auto/ble_events.c ****                                        rp0->Next_State,
1452:Middlewares/ST/STM32_WPAN/ble/core/auto/ble_events.c ****                                        rp0->Next_State_SysTime,
1453:Middlewares/ST/STM32_WPAN/ble/core/auto/ble_events.c ****                                        rp0->Last_State_Slot,
1454:Middlewares/ST/STM32_WPAN/ble/core/auto/ble_events.c ****                                        rp0->Next_State_Slot );
1455:Middlewares/ST/STM32_WPAN/ble/core/auto/ble_events.c **** }
 4310              		.loc 1 1455 1 view .LVU649
 4311 0016 03B0     		add	sp, sp, #12
 4312              	.LCFI110:
 4313              		.cfi_def_cfa_offset 4
 4314              		@ sp needed
 4315 0018 5DF804FB 		ldr	pc, [sp], #4
 4316              		.cfi_endproc
 4317              	.LFE149:
 4319              		.section	.text.aci_hal_scan_req_report_event,"ax",%progbits
 4320              		.align	1
 4321              		.weak	aci_hal_scan_req_report_event
 4322              		.syntax unified
 4323              		.thumb
 4324              		.thumb_func
 4326              	aci_hal_scan_req_report_event:
 4327              	.LVL370:
 4328              	.LFB150:
1456:Middlewares/ST/STM32_WPAN/ble/core/auto/ble_events.c **** 
1457:Middlewares/ST/STM32_WPAN/ble/core/auto/ble_events.c **** /* ACI_HAL_SCAN_REQ_REPORT_EVENT callback function */
1458:Middlewares/ST/STM32_WPAN/ble/core/auto/ble_events.c **** __WEAK void aci_hal_scan_req_report_event( uint8_t RSSI,
1459:Middlewares/ST/STM32_WPAN/ble/core/auto/ble_events.c ****                                            uint8_t Peer_Address_Type,
1460:Middlewares/ST/STM32_WPAN/ble/core/auto/ble_events.c ****                                            const uint8_t* Peer_Address )
1461:Middlewares/ST/STM32_WPAN/ble/core/auto/ble_events.c **** {
 4329              		.loc 1 1461 1 is_stmt 1 view -0
 4330              		.cfi_startproc
 4331              		@ args = 0, pretend = 0, frame = 0
 4332              		@ frame_needed = 0, uses_anonymous_args = 0
 4333              		@ link register save eliminated.
1462:Middlewares/ST/STM32_WPAN/ble/core/auto/ble_events.c **** }
 4334              		.loc 1 1462 1 view .LVU651
ARM GAS  C:\Users\bku598\AppData\Local\Temp\cc3wINKy.s 			page 98


 4335 0000 7047     		bx	lr
 4336              		.cfi_endproc
 4337              	.LFE150:
 4339              		.section	.text.aci_hal_scan_req_report_event_process,"ax",%progbits
 4340              		.align	1
 4341              		.syntax unified
 4342              		.thumb
 4343              		.thumb_func
 4345              	aci_hal_scan_req_report_event_process:
 4346              	.LVL371:
 4347              	.LFB151:
1463:Middlewares/ST/STM32_WPAN/ble/core/auto/ble_events.c **** 
1464:Middlewares/ST/STM32_WPAN/ble/core/auto/ble_events.c **** /* ACI_HAL_SCAN_REQ_REPORT_EVENT process function */
1465:Middlewares/ST/STM32_WPAN/ble/core/auto/ble_events.c **** static void aci_hal_scan_req_report_event_process( const uint8_t* in )
1466:Middlewares/ST/STM32_WPAN/ble/core/auto/ble_events.c **** {
 4348              		.loc 1 1466 1 view -0
 4349              		.cfi_startproc
 4350              		@ args = 0, pretend = 0, frame = 0
 4351              		@ frame_needed = 0, uses_anonymous_args = 0
 4352              		.loc 1 1466 1 is_stmt 0 view .LVU653
 4353 0000 08B5     		push	{r3, lr}
 4354              	.LCFI111:
 4355              		.cfi_def_cfa_offset 8
 4356              		.cfi_offset 3, -8
 4357              		.cfi_offset 14, -4
1467:Middlewares/ST/STM32_WPAN/ble/core/auto/ble_events.c ****   aci_hal_scan_req_report_event_rp0 *rp0 = (void*)in;
 4358              		.loc 1 1467 3 is_stmt 1 view .LVU654
 4359              	.LVL372:
1468:Middlewares/ST/STM32_WPAN/ble/core/auto/ble_events.c ****   aci_hal_scan_req_report_event( rp0->RSSI,
 4360              		.loc 1 1468 3 view .LVU655
 4361 0002 821C     		adds	r2, r0, #2
 4362 0004 4178     		ldrb	r1, [r0, #1]	@ zero_extendqisi2
 4363 0006 0078     		ldrb	r0, [r0]	@ zero_extendqisi2
 4364              	.LVL373:
 4365              		.loc 1 1468 3 is_stmt 0 view .LVU656
 4366 0008 FFF7FEFF 		bl	aci_hal_scan_req_report_event
 4367              	.LVL374:
1469:Middlewares/ST/STM32_WPAN/ble/core/auto/ble_events.c ****                                  rp0->Peer_Address_Type,
1470:Middlewares/ST/STM32_WPAN/ble/core/auto/ble_events.c ****                                  rp0->Peer_Address );
1471:Middlewares/ST/STM32_WPAN/ble/core/auto/ble_events.c **** }
 4368              		.loc 1 1471 1 view .LVU657
 4369 000c 08BD     		pop	{r3, pc}
 4370              		.cfi_endproc
 4371              	.LFE151:
 4373              		.global	hci_vs_event_table
 4374              		.section	.rodata.hci_vs_event_table,"a"
 4375              		.align	2
 4378              	hci_vs_event_table:
 4379 0000 0600     		.short	6
 4380 0002 0000     		.space	2
 4381 0004 00000000 		.word	aci_warning_event_process
 4382 0008 0004     		.short	1024
 4383 000a 0000     		.space	2
 4384 000c 00000000 		.word	aci_gap_limited_discoverable_event_process
 4385 0010 0104     		.short	1025
 4386 0012 0000     		.space	2
 4387 0014 00000000 		.word	aci_gap_pairing_complete_event_process
ARM GAS  C:\Users\bku598\AppData\Local\Temp\cc3wINKy.s 			page 99


 4388 0018 0204     		.short	1026
 4389 001a 0000     		.space	2
 4390 001c 00000000 		.word	aci_gap_pass_key_req_event_process
 4391 0020 0304     		.short	1027
 4392 0022 0000     		.space	2
 4393 0024 00000000 		.word	aci_gap_authorization_req_event_process
 4394 0028 0504     		.short	1029
 4395 002a 0000     		.space	2
 4396 002c 00000000 		.word	aci_gap_bond_lost_event_process
 4397 0030 0704     		.short	1031
 4398 0032 0000     		.space	2
 4399 0034 00000000 		.word	aci_gap_proc_complete_event_process
 4400 0038 0804     		.short	1032
 4401 003a 0000     		.space	2
 4402 003c 00000000 		.word	aci_gap_addr_not_resolved_event_process
 4403 0040 0904     		.short	1033
 4404 0042 0000     		.space	2
 4405 0044 00000000 		.word	aci_gap_numeric_comparison_value_event_process
 4406 0048 0A04     		.short	1034
 4407 004a 0000     		.space	2
 4408 004c 00000000 		.word	aci_gap_keypress_notification_event_process
 4409 0050 0B04     		.short	1035
 4410 0052 0000     		.space	2
 4411 0054 00000000 		.word	aci_gap_pairing_request_event_process
 4412 0058 0008     		.short	2048
 4413 005a 0000     		.space	2
 4414 005c 00000000 		.word	aci_l2cap_connection_update_resp_event_process
 4415 0060 0108     		.short	2049
 4416 0062 0000     		.space	2
 4417 0064 00000000 		.word	aci_l2cap_proc_timeout_event_process
 4418 0068 0208     		.short	2050
 4419 006a 0000     		.space	2
 4420 006c 00000000 		.word	aci_l2cap_connection_update_req_event_process
 4421 0070 0A08     		.short	2058
 4422 0072 0000     		.space	2
 4423 0074 00000000 		.word	aci_l2cap_command_reject_event_process
 4424 0078 1008     		.short	2064
 4425 007a 0000     		.space	2
 4426 007c 00000000 		.word	aci_l2cap_coc_connect_event_process
 4427 0080 1108     		.short	2065
 4428 0082 0000     		.space	2
 4429 0084 00000000 		.word	aci_l2cap_coc_connect_confirm_event_process
 4430 0088 1208     		.short	2066
 4431 008a 0000     		.space	2
 4432 008c 00000000 		.word	aci_l2cap_coc_reconf_event_process
 4433 0090 1308     		.short	2067
 4434 0092 0000     		.space	2
 4435 0094 00000000 		.word	aci_l2cap_coc_reconf_confirm_event_process
 4436 0098 1408     		.short	2068
 4437 009a 0000     		.space	2
 4438 009c 00000000 		.word	aci_l2cap_coc_disconnect_event_process
 4439 00a0 1508     		.short	2069
 4440 00a2 0000     		.space	2
 4441 00a4 00000000 		.word	aci_l2cap_coc_flow_control_event_process
 4442 00a8 1608     		.short	2070
 4443 00aa 0000     		.space	2
 4444 00ac 00000000 		.word	aci_l2cap_coc_rx_data_event_process
ARM GAS  C:\Users\bku598\AppData\Local\Temp\cc3wINKy.s 			page 100


 4445 00b0 1708     		.short	2071
 4446 00b2 0000     		.space	2
 4447 00b4 00000000 		.word	aci_l2cap_coc_tx_pool_available_event_process
 4448 00b8 010C     		.short	3073
 4449 00ba 0000     		.space	2
 4450 00bc 00000000 		.word	aci_gatt_attribute_modified_event_process
 4451 00c0 020C     		.short	3074
 4452 00c2 0000     		.space	2
 4453 00c4 00000000 		.word	aci_gatt_proc_timeout_event_process
 4454 00c8 030C     		.short	3075
 4455 00ca 0000     		.space	2
 4456 00cc 00000000 		.word	aci_att_exchange_mtu_resp_event_process
 4457 00d0 040C     		.short	3076
 4458 00d2 0000     		.space	2
 4459 00d4 00000000 		.word	aci_att_find_info_resp_event_process
 4460 00d8 050C     		.short	3077
 4461 00da 0000     		.space	2
 4462 00dc 00000000 		.word	aci_att_find_by_type_value_resp_event_process
 4463 00e0 060C     		.short	3078
 4464 00e2 0000     		.space	2
 4465 00e4 00000000 		.word	aci_att_read_by_type_resp_event_process
 4466 00e8 070C     		.short	3079
 4467 00ea 0000     		.space	2
 4468 00ec 00000000 		.word	aci_att_read_resp_event_process
 4469 00f0 080C     		.short	3080
 4470 00f2 0000     		.space	2
 4471 00f4 00000000 		.word	aci_att_read_blob_resp_event_process
 4472 00f8 090C     		.short	3081
 4473 00fa 0000     		.space	2
 4474 00fc 00000000 		.word	aci_att_read_multiple_resp_event_process
 4475 0100 0A0C     		.short	3082
 4476 0102 0000     		.space	2
 4477 0104 00000000 		.word	aci_att_read_by_group_type_resp_event_process
 4478 0108 0C0C     		.short	3084
 4479 010a 0000     		.space	2
 4480 010c 00000000 		.word	aci_att_prepare_write_resp_event_process
 4481 0110 0D0C     		.short	3085
 4482 0112 0000     		.space	2
 4483 0114 00000000 		.word	aci_att_exec_write_resp_event_process
 4484 0118 0E0C     		.short	3086
 4485 011a 0000     		.space	2
 4486 011c 00000000 		.word	aci_gatt_indication_event_process
 4487 0120 0F0C     		.short	3087
 4488 0122 0000     		.space	2
 4489 0124 00000000 		.word	aci_gatt_notification_event_process
 4490 0128 100C     		.short	3088
 4491 012a 0000     		.space	2
 4492 012c 00000000 		.word	aci_gatt_proc_complete_event_process
 4493 0130 110C     		.short	3089
 4494 0132 0000     		.space	2
 4495 0134 00000000 		.word	aci_gatt_error_resp_event_process
 4496 0138 120C     		.short	3090
 4497 013a 0000     		.space	2
 4498 013c 00000000 		.word	aci_gatt_disc_read_char_by_uuid_resp_event_process
 4499 0140 130C     		.short	3091
 4500 0142 0000     		.space	2
 4501 0144 00000000 		.word	aci_gatt_write_permit_req_event_process
ARM GAS  C:\Users\bku598\AppData\Local\Temp\cc3wINKy.s 			page 101


 4502 0148 140C     		.short	3092
 4503 014a 0000     		.space	2
 4504 014c 00000000 		.word	aci_gatt_read_permit_req_event_process
 4505 0150 150C     		.short	3093
 4506 0152 0000     		.space	2
 4507 0154 00000000 		.word	aci_gatt_read_multi_permit_req_event_process
 4508 0158 160C     		.short	3094
 4509 015a 0000     		.space	2
 4510 015c 00000000 		.word	aci_gatt_tx_pool_available_event_process
 4511 0160 170C     		.short	3095
 4512 0162 0000     		.space	2
 4513 0164 00000000 		.word	aci_gatt_server_confirmation_event_process
 4514 0168 180C     		.short	3096
 4515 016a 0000     		.space	2
 4516 016c 00000000 		.word	aci_gatt_prepare_write_permit_req_event_process
 4517 0170 190C     		.short	3097
 4518 0172 0000     		.space	2
 4519 0174 00000000 		.word	aci_gatt_eatt_bearer_event_process
 4520 0178 1A0C     		.short	3098
 4521 017a 0000     		.space	2
 4522 017c 00000000 		.word	aci_gatt_mult_notification_event_process
 4523 0180 1B0C     		.short	3099
 4524 0182 0000     		.space	2
 4525 0184 00000000 		.word	aci_gatt_notification_complete_event_process
 4526 0188 1D0C     		.short	3101
 4527 018a 0000     		.space	2
 4528 018c 00000000 		.word	aci_gatt_read_ext_event_process
 4529 0190 1E0C     		.short	3102
 4530 0192 0000     		.space	2
 4531 0194 00000000 		.word	aci_gatt_indication_ext_event_process
 4532 0198 1F0C     		.short	3103
 4533 019a 0000     		.space	2
 4534 019c 00000000 		.word	aci_gatt_notification_ext_event_process
 4535 01a0 0418     		.short	6148
 4536 01a2 0000     		.space	2
 4537 01a4 00000000 		.word	aci_hal_end_of_radio_activity_event_process
 4538 01a8 0518     		.short	6149
 4539 01aa 0000     		.space	2
 4540 01ac 00000000 		.word	aci_hal_scan_req_report_event_process
 4541              		.global	hci_le_event_table
 4542              		.section	.rodata.hci_le_event_table,"a"
 4543              		.align	2
 4546              	hci_le_event_table:
 4547 0000 0100     		.short	1
 4548 0002 0000     		.space	2
 4549 0004 00000000 		.word	hci_le_connection_complete_event_process
 4550 0008 0200     		.short	2
 4551 000a 0000     		.space	2
 4552 000c 00000000 		.word	hci_le_advertising_report_event_process
 4553 0010 0300     		.short	3
 4554 0012 0000     		.space	2
 4555 0014 00000000 		.word	hci_le_connection_update_complete_event_process
 4556 0018 0400     		.short	4
 4557 001a 0000     		.space	2
 4558 001c 00000000 		.word	hci_le_read_remote_features_page_0_complete_event_process
 4559 0020 0500     		.short	5
 4560 0022 0000     		.space	2
ARM GAS  C:\Users\bku598\AppData\Local\Temp\cc3wINKy.s 			page 102


 4561 0024 00000000 		.word	hci_le_long_term_key_request_event_process
 4562 0028 0700     		.short	7
 4563 002a 0000     		.space	2
 4564 002c 00000000 		.word	hci_le_data_length_change_event_process
 4565 0030 0800     		.short	8
 4566 0032 0000     		.space	2
 4567 0034 00000000 		.word	hci_le_read_local_p256_public_key_complete_event_process
 4568 0038 0900     		.short	9
 4569 003a 0000     		.space	2
 4570 003c 00000000 		.word	hci_le_generate_dhkey_complete_event_process
 4571 0040 0A00     		.short	10
 4572 0042 0000     		.space	2
 4573 0044 00000000 		.word	hci_le_enhanced_connection_complete_event_process
 4574 0048 0B00     		.short	11
 4575 004a 0000     		.space	2
 4576 004c 00000000 		.word	hci_le_directed_advertising_report_event_process
 4577 0050 0C00     		.short	12
 4578 0052 0000     		.space	2
 4579 0054 00000000 		.word	hci_le_phy_update_complete_event_process
 4580 0058 0D00     		.short	13
 4581 005a 0000     		.space	2
 4582 005c 00000000 		.word	hci_le_extended_advertising_report_event_process
 4583 0060 1100     		.short	17
 4584 0062 0000     		.space	2
 4585 0064 00000000 		.word	hci_le_scan_timeout_event_process
 4586 0068 1200     		.short	18
 4587 006a 0000     		.space	2
 4588 006c 00000000 		.word	hci_le_advertising_set_terminated_event_process
 4589 0070 1300     		.short	19
 4590 0072 0000     		.space	2
 4591 0074 00000000 		.word	hci_le_scan_request_received_event_process
 4592 0078 1400     		.short	20
 4593 007a 0000     		.space	2
 4594 007c 00000000 		.word	hci_le_channel_selection_algorithm_event_process
 4595              		.global	hci_event_table
 4596              		.section	.rodata.hci_event_table,"a"
 4597              		.align	2
 4600              	hci_event_table:
 4601 0000 0500     		.short	5
 4602 0002 0000     		.space	2
 4603 0004 00000000 		.word	hci_disconnection_complete_event_process
 4604 0008 0800     		.short	8
 4605 000a 0000     		.space	2
 4606 000c 00000000 		.word	hci_encryption_change_event_process
 4607 0010 0C00     		.short	12
 4608 0012 0000     		.space	2
 4609 0014 00000000 		.word	hci_read_remote_version_information_complete_event_process
 4610 0018 1000     		.short	16
 4611 001a 0000     		.space	2
 4612 001c 00000000 		.word	hci_hardware_error_event_process
 4613 0020 1300     		.short	19
 4614 0022 0000     		.space	2
 4615 0024 00000000 		.word	hci_number_of_completed_packets_event_process
 4616 0028 3000     		.short	48
 4617 002a 0000     		.space	2
 4618 002c 00000000 		.word	hci_encryption_key_refresh_complete_event_process
 4619              		.text
ARM GAS  C:\Users\bku598\AppData\Local\Temp\cc3wINKy.s 			page 103


 4620              	.Letext0:
 4621              		.file 2 "C:\\dev\\tools\\gcc-arm-none-eabi-13.3\\bin\\../lib/gcc/arm-none-eabi/13.3.1/../../../../
 4622              		.file 3 "C:\\dev\\tools\\gcc-arm-none-eabi-13.3\\bin\\../lib/gcc/arm-none-eabi/13.3.1/../../../../
 4623              		.file 4 "Middlewares/ST/STM32_WPAN/ble/core/auto/ble_types.h"
 4624              		.file 5 "Middlewares/ST/STM32_WPAN/ble/core/auto/ble_events.h"
 4625              		.file 6 "Middlewares/ST/STM32_WPAN/ble/core/template/osal.h"
ARM GAS  C:\Users\bku598\AppData\Local\Temp\cc3wINKy.s 			page 104


DEFINED SYMBOLS
                            *ABS*:00000000 ble_events.c
C:\Users\bku598\AppData\Local\Temp\cc3wINKy.s:21     .text.hci_disconnection_complete_event:00000000 $t
C:\Users\bku598\AppData\Local\Temp\cc3wINKy.s:27     .text.hci_disconnection_complete_event:00000000 hci_disconnection_complete_event
C:\Users\bku598\AppData\Local\Temp\cc3wINKy.s:41     .text.hci_disconnection_complete_event_process:00000000 $t
C:\Users\bku598\AppData\Local\Temp\cc3wINKy.s:46     .text.hci_disconnection_complete_event_process:00000000 hci_disconnection_complete_event_process
C:\Users\bku598\AppData\Local\Temp\cc3wINKy.s:75     .text.hci_encryption_change_event:00000000 $t
C:\Users\bku598\AppData\Local\Temp\cc3wINKy.s:81     .text.hci_encryption_change_event:00000000 hci_encryption_change_event
C:\Users\bku598\AppData\Local\Temp\cc3wINKy.s:95     .text.hci_encryption_change_event_process:00000000 $t
C:\Users\bku598\AppData\Local\Temp\cc3wINKy.s:100    .text.hci_encryption_change_event_process:00000000 hci_encryption_change_event_process
C:\Users\bku598\AppData\Local\Temp\cc3wINKy.s:129    .text.hci_read_remote_version_information_complete_event:00000000 $t
C:\Users\bku598\AppData\Local\Temp\cc3wINKy.s:135    .text.hci_read_remote_version_information_complete_event:00000000 hci_read_remote_version_information_complete_event
C:\Users\bku598\AppData\Local\Temp\cc3wINKy.s:149    .text.hci_read_remote_version_information_complete_event_process:00000000 $t
C:\Users\bku598\AppData\Local\Temp\cc3wINKy.s:154    .text.hci_read_remote_version_information_complete_event_process:00000000 hci_read_remote_version_information_complete_event_process
C:\Users\bku598\AppData\Local\Temp\cc3wINKy.s:192    .text.hci_hardware_error_event:00000000 $t
C:\Users\bku598\AppData\Local\Temp\cc3wINKy.s:198    .text.hci_hardware_error_event:00000000 hci_hardware_error_event
C:\Users\bku598\AppData\Local\Temp\cc3wINKy.s:212    .text.hci_hardware_error_event_process:00000000 $t
C:\Users\bku598\AppData\Local\Temp\cc3wINKy.s:217    .text.hci_hardware_error_event_process:00000000 hci_hardware_error_event_process
C:\Users\bku598\AppData\Local\Temp\cc3wINKy.s:244    .text.hci_number_of_completed_packets_event:00000000 $t
C:\Users\bku598\AppData\Local\Temp\cc3wINKy.s:250    .text.hci_number_of_completed_packets_event:00000000 hci_number_of_completed_packets_event
C:\Users\bku598\AppData\Local\Temp\cc3wINKy.s:264    .text.hci_number_of_completed_packets_event_process:00000000 $t
C:\Users\bku598\AppData\Local\Temp\cc3wINKy.s:269    .text.hci_number_of_completed_packets_event_process:00000000 hci_number_of_completed_packets_event_process
C:\Users\bku598\AppData\Local\Temp\cc3wINKy.s:299    .text.hci_encryption_key_refresh_complete_event:00000000 $t
C:\Users\bku598\AppData\Local\Temp\cc3wINKy.s:305    .text.hci_encryption_key_refresh_complete_event:00000000 hci_encryption_key_refresh_complete_event
C:\Users\bku598\AppData\Local\Temp\cc3wINKy.s:319    .text.hci_encryption_key_refresh_complete_event_process:00000000 $t
C:\Users\bku598\AppData\Local\Temp\cc3wINKy.s:324    .text.hci_encryption_key_refresh_complete_event_process:00000000 hci_encryption_key_refresh_complete_event_process
C:\Users\bku598\AppData\Local\Temp\cc3wINKy.s:352    .text.hci_le_connection_complete_event:00000000 $t
C:\Users\bku598\AppData\Local\Temp\cc3wINKy.s:358    .text.hci_le_connection_complete_event:00000000 hci_le_connection_complete_event
C:\Users\bku598\AppData\Local\Temp\cc3wINKy.s:372    .text.hci_le_connection_complete_event_process:00000000 $t
C:\Users\bku598\AppData\Local\Temp\cc3wINKy.s:377    .text.hci_le_connection_complete_event_process:00000000 hci_le_connection_complete_event_process
C:\Users\bku598\AppData\Local\Temp\cc3wINKy.s:425    .text.hci_le_advertising_report_event:00000000 $t
C:\Users\bku598\AppData\Local\Temp\cc3wINKy.s:431    .text.hci_le_advertising_report_event:00000000 hci_le_advertising_report_event
C:\Users\bku598\AppData\Local\Temp\cc3wINKy.s:445    .text.hci_le_advertising_report_event_process:00000000 $t
C:\Users\bku598\AppData\Local\Temp\cc3wINKy.s:450    .text.hci_le_advertising_report_event_process:00000000 hci_le_advertising_report_event_process
C:\Users\bku598\AppData\Local\Temp\cc3wINKy.s:537    .text.hci_le_connection_update_complete_event:00000000 $t
C:\Users\bku598\AppData\Local\Temp\cc3wINKy.s:543    .text.hci_le_connection_update_complete_event:00000000 hci_le_connection_update_complete_event
C:\Users\bku598\AppData\Local\Temp\cc3wINKy.s:557    .text.hci_le_connection_update_complete_event_process:00000000 $t
C:\Users\bku598\AppData\Local\Temp\cc3wINKy.s:562    .text.hci_le_connection_update_complete_event_process:00000000 hci_le_connection_update_complete_event_process
C:\Users\bku598\AppData\Local\Temp\cc3wINKy.s:600    .text.hci_le_read_remote_features_page_0_complete_event:00000000 $t
C:\Users\bku598\AppData\Local\Temp\cc3wINKy.s:606    .text.hci_le_read_remote_features_page_0_complete_event:00000000 hci_le_read_remote_features_page_0_complete_event
C:\Users\bku598\AppData\Local\Temp\cc3wINKy.s:620    .text.hci_le_read_remote_features_page_0_complete_event_process:00000000 $t
C:\Users\bku598\AppData\Local\Temp\cc3wINKy.s:625    .text.hci_le_read_remote_features_page_0_complete_event_process:00000000 hci_le_read_remote_features_page_0_complete_event_process
C:\Users\bku598\AppData\Local\Temp\cc3wINKy.s:654    .text.hci_le_long_term_key_request_event:00000000 $t
C:\Users\bku598\AppData\Local\Temp\cc3wINKy.s:660    .text.hci_le_long_term_key_request_event:00000000 hci_le_long_term_key_request_event
C:\Users\bku598\AppData\Local\Temp\cc3wINKy.s:674    .text.hci_le_long_term_key_request_event_process:00000000 $t
C:\Users\bku598\AppData\Local\Temp\cc3wINKy.s:679    .text.hci_le_long_term_key_request_event_process:00000000 hci_le_long_term_key_request_event_process
C:\Users\bku598\AppData\Local\Temp\cc3wINKy.s:708    .text.hci_le_data_length_change_event:00000000 $t
C:\Users\bku598\AppData\Local\Temp\cc3wINKy.s:714    .text.hci_le_data_length_change_event:00000000 hci_le_data_length_change_event
C:\Users\bku598\AppData\Local\Temp\cc3wINKy.s:728    .text.hci_le_data_length_change_event_process:00000000 $t
C:\Users\bku598\AppData\Local\Temp\cc3wINKy.s:733    .text.hci_le_data_length_change_event_process:00000000 hci_le_data_length_change_event_process
C:\Users\bku598\AppData\Local\Temp\cc3wINKy.s:771    .text.hci_le_read_local_p256_public_key_complete_event:00000000 $t
C:\Users\bku598\AppData\Local\Temp\cc3wINKy.s:777    .text.hci_le_read_local_p256_public_key_complete_event:00000000 hci_le_read_local_p256_public_key_complete_event
C:\Users\bku598\AppData\Local\Temp\cc3wINKy.s:791    .text.hci_le_read_local_p256_public_key_complete_event_process:00000000 $t
C:\Users\bku598\AppData\Local\Temp\cc3wINKy.s:796    .text.hci_le_read_local_p256_public_key_complete_event_process:00000000 hci_le_read_local_p256_public_key_complete_event_process
C:\Users\bku598\AppData\Local\Temp\cc3wINKy.s:826    .text.hci_le_generate_dhkey_complete_event:00000000 $t
C:\Users\bku598\AppData\Local\Temp\cc3wINKy.s:832    .text.hci_le_generate_dhkey_complete_event:00000000 hci_le_generate_dhkey_complete_event
C:\Users\bku598\AppData\Local\Temp\cc3wINKy.s:846    .text.hci_le_generate_dhkey_complete_event_process:00000000 $t
ARM GAS  C:\Users\bku598\AppData\Local\Temp\cc3wINKy.s 			page 105


C:\Users\bku598\AppData\Local\Temp\cc3wINKy.s:851    .text.hci_le_generate_dhkey_complete_event_process:00000000 hci_le_generate_dhkey_complete_event_process
C:\Users\bku598\AppData\Local\Temp\cc3wINKy.s:881    .text.hci_le_enhanced_connection_complete_event:00000000 $t
C:\Users\bku598\AppData\Local\Temp\cc3wINKy.s:887    .text.hci_le_enhanced_connection_complete_event:00000000 hci_le_enhanced_connection_complete_event
C:\Users\bku598\AppData\Local\Temp\cc3wINKy.s:901    .text.hci_le_enhanced_connection_complete_event_process:00000000 $t
C:\Users\bku598\AppData\Local\Temp\cc3wINKy.s:906    .text.hci_le_enhanced_connection_complete_event_process:00000000 hci_le_enhanced_connection_complete_event_process
C:\Users\bku598\AppData\Local\Temp\cc3wINKy.s:961    .text.hci_le_directed_advertising_report_event:00000000 $t
C:\Users\bku598\AppData\Local\Temp\cc3wINKy.s:967    .text.hci_le_directed_advertising_report_event:00000000 hci_le_directed_advertising_report_event
C:\Users\bku598\AppData\Local\Temp\cc3wINKy.s:981    .text.hci_le_directed_advertising_report_event_process:00000000 $t
C:\Users\bku598\AppData\Local\Temp\cc3wINKy.s:986    .text.hci_le_directed_advertising_report_event_process:00000000 hci_le_directed_advertising_report_event_process
C:\Users\bku598\AppData\Local\Temp\cc3wINKy.s:1016   .text.hci_le_phy_update_complete_event:00000000 $t
C:\Users\bku598\AppData\Local\Temp\cc3wINKy.s:1022   .text.hci_le_phy_update_complete_event:00000000 hci_le_phy_update_complete_event
C:\Users\bku598\AppData\Local\Temp\cc3wINKy.s:1036   .text.hci_le_phy_update_complete_event_process:00000000 $t
C:\Users\bku598\AppData\Local\Temp\cc3wINKy.s:1041   .text.hci_le_phy_update_complete_event_process:00000000 hci_le_phy_update_complete_event_process
C:\Users\bku598\AppData\Local\Temp\cc3wINKy.s:1071   .text.hci_le_extended_advertising_report_event:00000000 $t
C:\Users\bku598\AppData\Local\Temp\cc3wINKy.s:1077   .text.hci_le_extended_advertising_report_event:00000000 hci_le_extended_advertising_report_event
C:\Users\bku598\AppData\Local\Temp\cc3wINKy.s:1091   .text.hci_le_extended_advertising_report_event_process:00000000 $t
C:\Users\bku598\AppData\Local\Temp\cc3wINKy.s:1096   .text.hci_le_extended_advertising_report_event_process:00000000 hci_le_extended_advertising_report_event_process
C:\Users\bku598\AppData\Local\Temp\cc3wINKy.s:1155   .text.hci_le_scan_timeout_event:00000000 $t
C:\Users\bku598\AppData\Local\Temp\cc3wINKy.s:1161   .text.hci_le_scan_timeout_event:00000000 hci_le_scan_timeout_event
C:\Users\bku598\AppData\Local\Temp\cc3wINKy.s:1174   .text.hci_le_scan_timeout_event_process:00000000 $t
C:\Users\bku598\AppData\Local\Temp\cc3wINKy.s:1179   .text.hci_le_scan_timeout_event_process:00000000 hci_le_scan_timeout_event_process
C:\Users\bku598\AppData\Local\Temp\cc3wINKy.s:1201   .text.hci_le_advertising_set_terminated_event:00000000 $t
C:\Users\bku598\AppData\Local\Temp\cc3wINKy.s:1207   .text.hci_le_advertising_set_terminated_event:00000000 hci_le_advertising_set_terminated_event
C:\Users\bku598\AppData\Local\Temp\cc3wINKy.s:1221   .text.hci_le_advertising_set_terminated_event_process:00000000 $t
C:\Users\bku598\AppData\Local\Temp\cc3wINKy.s:1226   .text.hci_le_advertising_set_terminated_event_process:00000000 hci_le_advertising_set_terminated_event_process
C:\Users\bku598\AppData\Local\Temp\cc3wINKy.s:1256   .text.hci_le_scan_request_received_event:00000000 $t
C:\Users\bku598\AppData\Local\Temp\cc3wINKy.s:1262   .text.hci_le_scan_request_received_event:00000000 hci_le_scan_request_received_event
C:\Users\bku598\AppData\Local\Temp\cc3wINKy.s:1276   .text.hci_le_scan_request_received_event_process:00000000 $t
C:\Users\bku598\AppData\Local\Temp\cc3wINKy.s:1281   .text.hci_le_scan_request_received_event_process:00000000 hci_le_scan_request_received_event_process
C:\Users\bku598\AppData\Local\Temp\cc3wINKy.s:1310   .text.hci_le_channel_selection_algorithm_event:00000000 $t
C:\Users\bku598\AppData\Local\Temp\cc3wINKy.s:1316   .text.hci_le_channel_selection_algorithm_event:00000000 hci_le_channel_selection_algorithm_event
C:\Users\bku598\AppData\Local\Temp\cc3wINKy.s:1330   .text.hci_le_channel_selection_algorithm_event_process:00000000 $t
C:\Users\bku598\AppData\Local\Temp\cc3wINKy.s:1335   .text.hci_le_channel_selection_algorithm_event_process:00000000 hci_le_channel_selection_algorithm_event_process
C:\Users\bku598\AppData\Local\Temp\cc3wINKy.s:1363   .text.aci_warning_event:00000000 $t
C:\Users\bku598\AppData\Local\Temp\cc3wINKy.s:1369   .text.aci_warning_event:00000000 aci_warning_event
C:\Users\bku598\AppData\Local\Temp\cc3wINKy.s:1383   .text.aci_warning_event_process:00000000 $t
C:\Users\bku598\AppData\Local\Temp\cc3wINKy.s:1388   .text.aci_warning_event_process:00000000 aci_warning_event_process
C:\Users\bku598\AppData\Local\Temp\cc3wINKy.s:1417   .text.aci_gap_limited_discoverable_event:00000000 $t
C:\Users\bku598\AppData\Local\Temp\cc3wINKy.s:1423   .text.aci_gap_limited_discoverable_event:00000000 aci_gap_limited_discoverable_event
C:\Users\bku598\AppData\Local\Temp\cc3wINKy.s:1436   .text.aci_gap_limited_discoverable_event_process:00000000 $t
C:\Users\bku598\AppData\Local\Temp\cc3wINKy.s:1441   .text.aci_gap_limited_discoverable_event_process:00000000 aci_gap_limited_discoverable_event_process
C:\Users\bku598\AppData\Local\Temp\cc3wINKy.s:1463   .text.aci_gap_pairing_complete_event:00000000 $t
C:\Users\bku598\AppData\Local\Temp\cc3wINKy.s:1469   .text.aci_gap_pairing_complete_event:00000000 aci_gap_pairing_complete_event
C:\Users\bku598\AppData\Local\Temp\cc3wINKy.s:1483   .text.aci_gap_pairing_complete_event_process:00000000 $t
C:\Users\bku598\AppData\Local\Temp\cc3wINKy.s:1488   .text.aci_gap_pairing_complete_event_process:00000000 aci_gap_pairing_complete_event_process
C:\Users\bku598\AppData\Local\Temp\cc3wINKy.s:1517   .text.aci_gap_pass_key_req_event:00000000 $t
C:\Users\bku598\AppData\Local\Temp\cc3wINKy.s:1523   .text.aci_gap_pass_key_req_event:00000000 aci_gap_pass_key_req_event
C:\Users\bku598\AppData\Local\Temp\cc3wINKy.s:1537   .text.aci_gap_pass_key_req_event_process:00000000 $t
C:\Users\bku598\AppData\Local\Temp\cc3wINKy.s:1542   .text.aci_gap_pass_key_req_event_process:00000000 aci_gap_pass_key_req_event_process
C:\Users\bku598\AppData\Local\Temp\cc3wINKy.s:1569   .text.aci_gap_authorization_req_event:00000000 $t
C:\Users\bku598\AppData\Local\Temp\cc3wINKy.s:1575   .text.aci_gap_authorization_req_event:00000000 aci_gap_authorization_req_event
C:\Users\bku598\AppData\Local\Temp\cc3wINKy.s:1589   .text.aci_gap_authorization_req_event_process:00000000 $t
C:\Users\bku598\AppData\Local\Temp\cc3wINKy.s:1594   .text.aci_gap_authorization_req_event_process:00000000 aci_gap_authorization_req_event_process
C:\Users\bku598\AppData\Local\Temp\cc3wINKy.s:1621   .text.aci_gap_bond_lost_event:00000000 $t
C:\Users\bku598\AppData\Local\Temp\cc3wINKy.s:1627   .text.aci_gap_bond_lost_event:00000000 aci_gap_bond_lost_event
C:\Users\bku598\AppData\Local\Temp\cc3wINKy.s:1641   .text.aci_gap_bond_lost_event_process:00000000 $t
C:\Users\bku598\AppData\Local\Temp\cc3wINKy.s:1646   .text.aci_gap_bond_lost_event_process:00000000 aci_gap_bond_lost_event_process
ARM GAS  C:\Users\bku598\AppData\Local\Temp\cc3wINKy.s 			page 106


C:\Users\bku598\AppData\Local\Temp\cc3wINKy.s:1673   .text.aci_gap_proc_complete_event:00000000 $t
C:\Users\bku598\AppData\Local\Temp\cc3wINKy.s:1679   .text.aci_gap_proc_complete_event:00000000 aci_gap_proc_complete_event
C:\Users\bku598\AppData\Local\Temp\cc3wINKy.s:1693   .text.aci_gap_proc_complete_event_process:00000000 $t
C:\Users\bku598\AppData\Local\Temp\cc3wINKy.s:1698   .text.aci_gap_proc_complete_event_process:00000000 aci_gap_proc_complete_event_process
C:\Users\bku598\AppData\Local\Temp\cc3wINKy.s:1728   .text.aci_gap_addr_not_resolved_event:00000000 $t
C:\Users\bku598\AppData\Local\Temp\cc3wINKy.s:1734   .text.aci_gap_addr_not_resolved_event:00000000 aci_gap_addr_not_resolved_event
C:\Users\bku598\AppData\Local\Temp\cc3wINKy.s:1748   .text.aci_gap_addr_not_resolved_event_process:00000000 $t
C:\Users\bku598\AppData\Local\Temp\cc3wINKy.s:1753   .text.aci_gap_addr_not_resolved_event_process:00000000 aci_gap_addr_not_resolved_event_process
C:\Users\bku598\AppData\Local\Temp\cc3wINKy.s:1780   .text.aci_gap_numeric_comparison_value_event:00000000 $t
C:\Users\bku598\AppData\Local\Temp\cc3wINKy.s:1786   .text.aci_gap_numeric_comparison_value_event:00000000 aci_gap_numeric_comparison_value_event
C:\Users\bku598\AppData\Local\Temp\cc3wINKy.s:1800   .text.aci_gap_numeric_comparison_value_event_process:00000000 $t
C:\Users\bku598\AppData\Local\Temp\cc3wINKy.s:1805   .text.aci_gap_numeric_comparison_value_event_process:00000000 aci_gap_numeric_comparison_value_event_process
C:\Users\bku598\AppData\Local\Temp\cc3wINKy.s:1833   .text.aci_gap_keypress_notification_event:00000000 $t
C:\Users\bku598\AppData\Local\Temp\cc3wINKy.s:1839   .text.aci_gap_keypress_notification_event:00000000 aci_gap_keypress_notification_event
C:\Users\bku598\AppData\Local\Temp\cc3wINKy.s:1853   .text.aci_gap_keypress_notification_event_process:00000000 $t
C:\Users\bku598\AppData\Local\Temp\cc3wINKy.s:1858   .text.aci_gap_keypress_notification_event_process:00000000 aci_gap_keypress_notification_event_process
C:\Users\bku598\AppData\Local\Temp\cc3wINKy.s:1886   .text.aci_gap_pairing_request_event:00000000 $t
C:\Users\bku598\AppData\Local\Temp\cc3wINKy.s:1892   .text.aci_gap_pairing_request_event:00000000 aci_gap_pairing_request_event
C:\Users\bku598\AppData\Local\Temp\cc3wINKy.s:1906   .text.aci_gap_pairing_request_event_process:00000000 $t
C:\Users\bku598\AppData\Local\Temp\cc3wINKy.s:1911   .text.aci_gap_pairing_request_event_process:00000000 aci_gap_pairing_request_event_process
C:\Users\bku598\AppData\Local\Temp\cc3wINKy.s:1940   .text.aci_l2cap_connection_update_resp_event:00000000 $t
C:\Users\bku598\AppData\Local\Temp\cc3wINKy.s:1946   .text.aci_l2cap_connection_update_resp_event:00000000 aci_l2cap_connection_update_resp_event
C:\Users\bku598\AppData\Local\Temp\cc3wINKy.s:1960   .text.aci_l2cap_connection_update_resp_event_process:00000000 $t
C:\Users\bku598\AppData\Local\Temp\cc3wINKy.s:1965   .text.aci_l2cap_connection_update_resp_event_process:00000000 aci_l2cap_connection_update_resp_event_process
C:\Users\bku598\AppData\Local\Temp\cc3wINKy.s:1993   .text.aci_l2cap_proc_timeout_event:00000000 $t
C:\Users\bku598\AppData\Local\Temp\cc3wINKy.s:1999   .text.aci_l2cap_proc_timeout_event:00000000 aci_l2cap_proc_timeout_event
C:\Users\bku598\AppData\Local\Temp\cc3wINKy.s:2013   .text.aci_l2cap_proc_timeout_event_process:00000000 $t
C:\Users\bku598\AppData\Local\Temp\cc3wINKy.s:2018   .text.aci_l2cap_proc_timeout_event_process:00000000 aci_l2cap_proc_timeout_event_process
C:\Users\bku598\AppData\Local\Temp\cc3wINKy.s:2047   .text.aci_l2cap_connection_update_req_event:00000000 $t
C:\Users\bku598\AppData\Local\Temp\cc3wINKy.s:2053   .text.aci_l2cap_connection_update_req_event:00000000 aci_l2cap_connection_update_req_event
C:\Users\bku598\AppData\Local\Temp\cc3wINKy.s:2067   .text.aci_l2cap_connection_update_req_event_process:00000000 $t
C:\Users\bku598\AppData\Local\Temp\cc3wINKy.s:2072   .text.aci_l2cap_connection_update_req_event_process:00000000 aci_l2cap_connection_update_req_event_process
C:\Users\bku598\AppData\Local\Temp\cc3wINKy.s:2114   .text.aci_l2cap_command_reject_event:00000000 $t
C:\Users\bku598\AppData\Local\Temp\cc3wINKy.s:2120   .text.aci_l2cap_command_reject_event:00000000 aci_l2cap_command_reject_event
C:\Users\bku598\AppData\Local\Temp\cc3wINKy.s:2134   .text.aci_l2cap_command_reject_event_process:00000000 $t
C:\Users\bku598\AppData\Local\Temp\cc3wINKy.s:2139   .text.aci_l2cap_command_reject_event_process:00000000 aci_l2cap_command_reject_event_process
C:\Users\bku598\AppData\Local\Temp\cc3wINKy.s:2179   .text.aci_l2cap_coc_connect_event:00000000 $t
C:\Users\bku598\AppData\Local\Temp\cc3wINKy.s:2185   .text.aci_l2cap_coc_connect_event:00000000 aci_l2cap_coc_connect_event
C:\Users\bku598\AppData\Local\Temp\cc3wINKy.s:2199   .text.aci_l2cap_coc_connect_event_process:00000000 $t
C:\Users\bku598\AppData\Local\Temp\cc3wINKy.s:2204   .text.aci_l2cap_coc_connect_event_process:00000000 aci_l2cap_coc_connect_event_process
C:\Users\bku598\AppData\Local\Temp\cc3wINKy.s:2244   .text.aci_l2cap_coc_connect_confirm_event:00000000 $t
C:\Users\bku598\AppData\Local\Temp\cc3wINKy.s:2250   .text.aci_l2cap_coc_connect_confirm_event:00000000 aci_l2cap_coc_connect_confirm_event
C:\Users\bku598\AppData\Local\Temp\cc3wINKy.s:2264   .text.aci_l2cap_coc_connect_confirm_event_process:00000000 $t
C:\Users\bku598\AppData\Local\Temp\cc3wINKy.s:2269   .text.aci_l2cap_coc_connect_confirm_event_process:00000000 aci_l2cap_coc_connect_confirm_event_process
C:\Users\bku598\AppData\Local\Temp\cc3wINKy.s:2313   .text.aci_l2cap_coc_reconf_event:00000000 $t
C:\Users\bku598\AppData\Local\Temp\cc3wINKy.s:2319   .text.aci_l2cap_coc_reconf_event:00000000 aci_l2cap_coc_reconf_event
C:\Users\bku598\AppData\Local\Temp\cc3wINKy.s:2333   .text.aci_l2cap_coc_reconf_event_process:00000000 $t
C:\Users\bku598\AppData\Local\Temp\cc3wINKy.s:2338   .text.aci_l2cap_coc_reconf_event_process:00000000 aci_l2cap_coc_reconf_event_process
C:\Users\bku598\AppData\Local\Temp\cc3wINKy.s:2378   .text.aci_l2cap_coc_reconf_confirm_event:00000000 $t
C:\Users\bku598\AppData\Local\Temp\cc3wINKy.s:2384   .text.aci_l2cap_coc_reconf_confirm_event:00000000 aci_l2cap_coc_reconf_confirm_event
C:\Users\bku598\AppData\Local\Temp\cc3wINKy.s:2398   .text.aci_l2cap_coc_reconf_confirm_event_process:00000000 $t
C:\Users\bku598\AppData\Local\Temp\cc3wINKy.s:2403   .text.aci_l2cap_coc_reconf_confirm_event_process:00000000 aci_l2cap_coc_reconf_confirm_event_process
C:\Users\bku598\AppData\Local\Temp\cc3wINKy.s:2431   .text.aci_l2cap_coc_disconnect_event:00000000 $t
C:\Users\bku598\AppData\Local\Temp\cc3wINKy.s:2437   .text.aci_l2cap_coc_disconnect_event:00000000 aci_l2cap_coc_disconnect_event
C:\Users\bku598\AppData\Local\Temp\cc3wINKy.s:2451   .text.aci_l2cap_coc_disconnect_event_process:00000000 $t
C:\Users\bku598\AppData\Local\Temp\cc3wINKy.s:2456   .text.aci_l2cap_coc_disconnect_event_process:00000000 aci_l2cap_coc_disconnect_event_process
C:\Users\bku598\AppData\Local\Temp\cc3wINKy.s:2483   .text.aci_l2cap_coc_flow_control_event:00000000 $t
ARM GAS  C:\Users\bku598\AppData\Local\Temp\cc3wINKy.s 			page 107


C:\Users\bku598\AppData\Local\Temp\cc3wINKy.s:2489   .text.aci_l2cap_coc_flow_control_event:00000000 aci_l2cap_coc_flow_control_event
C:\Users\bku598\AppData\Local\Temp\cc3wINKy.s:2503   .text.aci_l2cap_coc_flow_control_event_process:00000000 $t
C:\Users\bku598\AppData\Local\Temp\cc3wINKy.s:2508   .text.aci_l2cap_coc_flow_control_event_process:00000000 aci_l2cap_coc_flow_control_event_process
C:\Users\bku598\AppData\Local\Temp\cc3wINKy.s:2536   .text.aci_l2cap_coc_rx_data_event:00000000 $t
C:\Users\bku598\AppData\Local\Temp\cc3wINKy.s:2542   .text.aci_l2cap_coc_rx_data_event:00000000 aci_l2cap_coc_rx_data_event
C:\Users\bku598\AppData\Local\Temp\cc3wINKy.s:2556   .text.aci_l2cap_coc_rx_data_event_process:00000000 $t
C:\Users\bku598\AppData\Local\Temp\cc3wINKy.s:2561   .text.aci_l2cap_coc_rx_data_event_process:00000000 aci_l2cap_coc_rx_data_event_process
C:\Users\bku598\AppData\Local\Temp\cc3wINKy.s:2590   .text.aci_l2cap_coc_tx_pool_available_event:00000000 $t
C:\Users\bku598\AppData\Local\Temp\cc3wINKy.s:2596   .text.aci_l2cap_coc_tx_pool_available_event:00000000 aci_l2cap_coc_tx_pool_available_event
C:\Users\bku598\AppData\Local\Temp\cc3wINKy.s:2609   .text.aci_l2cap_coc_tx_pool_available_event_process:00000000 $t
C:\Users\bku598\AppData\Local\Temp\cc3wINKy.s:2614   .text.aci_l2cap_coc_tx_pool_available_event_process:00000000 aci_l2cap_coc_tx_pool_available_event_process
C:\Users\bku598\AppData\Local\Temp\cc3wINKy.s:2636   .text.aci_gatt_attribute_modified_event:00000000 $t
C:\Users\bku598\AppData\Local\Temp\cc3wINKy.s:2642   .text.aci_gatt_attribute_modified_event:00000000 aci_gatt_attribute_modified_event
C:\Users\bku598\AppData\Local\Temp\cc3wINKy.s:2656   .text.aci_gatt_attribute_modified_event_process:00000000 $t
C:\Users\bku598\AppData\Local\Temp\cc3wINKy.s:2661   .text.aci_gatt_attribute_modified_event_process:00000000 aci_gatt_attribute_modified_event_process
C:\Users\bku598\AppData\Local\Temp\cc3wINKy.s:2701   .text.aci_gatt_proc_timeout_event:00000000 $t
C:\Users\bku598\AppData\Local\Temp\cc3wINKy.s:2707   .text.aci_gatt_proc_timeout_event:00000000 aci_gatt_proc_timeout_event
C:\Users\bku598\AppData\Local\Temp\cc3wINKy.s:2721   .text.aci_gatt_proc_timeout_event_process:00000000 $t
C:\Users\bku598\AppData\Local\Temp\cc3wINKy.s:2726   .text.aci_gatt_proc_timeout_event_process:00000000 aci_gatt_proc_timeout_event_process
C:\Users\bku598\AppData\Local\Temp\cc3wINKy.s:2753   .text.aci_att_exchange_mtu_resp_event:00000000 $t
C:\Users\bku598\AppData\Local\Temp\cc3wINKy.s:2759   .text.aci_att_exchange_mtu_resp_event:00000000 aci_att_exchange_mtu_resp_event
C:\Users\bku598\AppData\Local\Temp\cc3wINKy.s:2773   .text.aci_att_exchange_mtu_resp_event_process:00000000 $t
C:\Users\bku598\AppData\Local\Temp\cc3wINKy.s:2778   .text.aci_att_exchange_mtu_resp_event_process:00000000 aci_att_exchange_mtu_resp_event_process
C:\Users\bku598\AppData\Local\Temp\cc3wINKy.s:2806   .text.aci_att_find_info_resp_event:00000000 $t
C:\Users\bku598\AppData\Local\Temp\cc3wINKy.s:2812   .text.aci_att_find_info_resp_event:00000000 aci_att_find_info_resp_event
C:\Users\bku598\AppData\Local\Temp\cc3wINKy.s:2826   .text.aci_att_find_info_resp_event_process:00000000 $t
C:\Users\bku598\AppData\Local\Temp\cc3wINKy.s:2831   .text.aci_att_find_info_resp_event_process:00000000 aci_att_find_info_resp_event_process
C:\Users\bku598\AppData\Local\Temp\cc3wINKy.s:2861   .text.aci_att_find_by_type_value_resp_event:00000000 $t
C:\Users\bku598\AppData\Local\Temp\cc3wINKy.s:2867   .text.aci_att_find_by_type_value_resp_event:00000000 aci_att_find_by_type_value_resp_event
C:\Users\bku598\AppData\Local\Temp\cc3wINKy.s:2881   .text.aci_att_find_by_type_value_resp_event_process:00000000 $t
C:\Users\bku598\AppData\Local\Temp\cc3wINKy.s:2886   .text.aci_att_find_by_type_value_resp_event_process:00000000 aci_att_find_by_type_value_resp_event_process
C:\Users\bku598\AppData\Local\Temp\cc3wINKy.s:2915   .text.aci_att_read_by_type_resp_event:00000000 $t
C:\Users\bku598\AppData\Local\Temp\cc3wINKy.s:2921   .text.aci_att_read_by_type_resp_event:00000000 aci_att_read_by_type_resp_event
C:\Users\bku598\AppData\Local\Temp\cc3wINKy.s:2935   .text.aci_att_read_by_type_resp_event_process:00000000 $t
C:\Users\bku598\AppData\Local\Temp\cc3wINKy.s:2940   .text.aci_att_read_by_type_resp_event_process:00000000 aci_att_read_by_type_resp_event_process
C:\Users\bku598\AppData\Local\Temp\cc3wINKy.s:2970   .text.aci_att_read_resp_event:00000000 $t
C:\Users\bku598\AppData\Local\Temp\cc3wINKy.s:2976   .text.aci_att_read_resp_event:00000000 aci_att_read_resp_event
C:\Users\bku598\AppData\Local\Temp\cc3wINKy.s:2990   .text.aci_att_read_resp_event_process:00000000 $t
C:\Users\bku598\AppData\Local\Temp\cc3wINKy.s:2995   .text.aci_att_read_resp_event_process:00000000 aci_att_read_resp_event_process
C:\Users\bku598\AppData\Local\Temp\cc3wINKy.s:3024   .text.aci_att_read_blob_resp_event:00000000 $t
C:\Users\bku598\AppData\Local\Temp\cc3wINKy.s:3030   .text.aci_att_read_blob_resp_event:00000000 aci_att_read_blob_resp_event
C:\Users\bku598\AppData\Local\Temp\cc3wINKy.s:3044   .text.aci_att_read_blob_resp_event_process:00000000 $t
C:\Users\bku598\AppData\Local\Temp\cc3wINKy.s:3049   .text.aci_att_read_blob_resp_event_process:00000000 aci_att_read_blob_resp_event_process
C:\Users\bku598\AppData\Local\Temp\cc3wINKy.s:3078   .text.aci_att_read_multiple_resp_event:00000000 $t
C:\Users\bku598\AppData\Local\Temp\cc3wINKy.s:3084   .text.aci_att_read_multiple_resp_event:00000000 aci_att_read_multiple_resp_event
C:\Users\bku598\AppData\Local\Temp\cc3wINKy.s:3098   .text.aci_att_read_multiple_resp_event_process:00000000 $t
C:\Users\bku598\AppData\Local\Temp\cc3wINKy.s:3103   .text.aci_att_read_multiple_resp_event_process:00000000 aci_att_read_multiple_resp_event_process
C:\Users\bku598\AppData\Local\Temp\cc3wINKy.s:3132   .text.aci_att_read_by_group_type_resp_event:00000000 $t
C:\Users\bku598\AppData\Local\Temp\cc3wINKy.s:3138   .text.aci_att_read_by_group_type_resp_event:00000000 aci_att_read_by_group_type_resp_event
C:\Users\bku598\AppData\Local\Temp\cc3wINKy.s:3152   .text.aci_att_read_by_group_type_resp_event_process:00000000 $t
C:\Users\bku598\AppData\Local\Temp\cc3wINKy.s:3157   .text.aci_att_read_by_group_type_resp_event_process:00000000 aci_att_read_by_group_type_resp_event_process
C:\Users\bku598\AppData\Local\Temp\cc3wINKy.s:3187   .text.aci_att_prepare_write_resp_event:00000000 $t
C:\Users\bku598\AppData\Local\Temp\cc3wINKy.s:3193   .text.aci_att_prepare_write_resp_event:00000000 aci_att_prepare_write_resp_event
C:\Users\bku598\AppData\Local\Temp\cc3wINKy.s:3207   .text.aci_att_prepare_write_resp_event_process:00000000 $t
C:\Users\bku598\AppData\Local\Temp\cc3wINKy.s:3212   .text.aci_att_prepare_write_resp_event_process:00000000 aci_att_prepare_write_resp_event_process
C:\Users\bku598\AppData\Local\Temp\cc3wINKy.s:3252   .text.aci_att_exec_write_resp_event:00000000 $t
C:\Users\bku598\AppData\Local\Temp\cc3wINKy.s:3258   .text.aci_att_exec_write_resp_event:00000000 aci_att_exec_write_resp_event
ARM GAS  C:\Users\bku598\AppData\Local\Temp\cc3wINKy.s 			page 108


C:\Users\bku598\AppData\Local\Temp\cc3wINKy.s:3272   .text.aci_att_exec_write_resp_event_process:00000000 $t
C:\Users\bku598\AppData\Local\Temp\cc3wINKy.s:3277   .text.aci_att_exec_write_resp_event_process:00000000 aci_att_exec_write_resp_event_process
C:\Users\bku598\AppData\Local\Temp\cc3wINKy.s:3304   .text.aci_gatt_indication_event:00000000 $t
C:\Users\bku598\AppData\Local\Temp\cc3wINKy.s:3310   .text.aci_gatt_indication_event:00000000 aci_gatt_indication_event
C:\Users\bku598\AppData\Local\Temp\cc3wINKy.s:3324   .text.aci_gatt_indication_event_process:00000000 $t
C:\Users\bku598\AppData\Local\Temp\cc3wINKy.s:3329   .text.aci_gatt_indication_event_process:00000000 aci_gatt_indication_event_process
C:\Users\bku598\AppData\Local\Temp\cc3wINKy.s:3359   .text.aci_gatt_notification_event:00000000 $t
C:\Users\bku598\AppData\Local\Temp\cc3wINKy.s:3365   .text.aci_gatt_notification_event:00000000 aci_gatt_notification_event
C:\Users\bku598\AppData\Local\Temp\cc3wINKy.s:3379   .text.aci_gatt_notification_event_process:00000000 $t
C:\Users\bku598\AppData\Local\Temp\cc3wINKy.s:3384   .text.aci_gatt_notification_event_process:00000000 aci_gatt_notification_event_process
C:\Users\bku598\AppData\Local\Temp\cc3wINKy.s:3414   .text.aci_gatt_proc_complete_event:00000000 $t
C:\Users\bku598\AppData\Local\Temp\cc3wINKy.s:3420   .text.aci_gatt_proc_complete_event:00000000 aci_gatt_proc_complete_event
C:\Users\bku598\AppData\Local\Temp\cc3wINKy.s:3434   .text.aci_gatt_proc_complete_event_process:00000000 $t
C:\Users\bku598\AppData\Local\Temp\cc3wINKy.s:3439   .text.aci_gatt_proc_complete_event_process:00000000 aci_gatt_proc_complete_event_process
C:\Users\bku598\AppData\Local\Temp\cc3wINKy.s:3467   .text.aci_gatt_error_resp_event:00000000 $t
C:\Users\bku598\AppData\Local\Temp\cc3wINKy.s:3473   .text.aci_gatt_error_resp_event:00000000 aci_gatt_error_resp_event
C:\Users\bku598\AppData\Local\Temp\cc3wINKy.s:3487   .text.aci_gatt_error_resp_event_process:00000000 $t
C:\Users\bku598\AppData\Local\Temp\cc3wINKy.s:3492   .text.aci_gatt_error_resp_event_process:00000000 aci_gatt_error_resp_event_process
C:\Users\bku598\AppData\Local\Temp\cc3wINKy.s:3522   .text.aci_gatt_disc_read_char_by_uuid_resp_event:00000000 $t
C:\Users\bku598\AppData\Local\Temp\cc3wINKy.s:3528   .text.aci_gatt_disc_read_char_by_uuid_resp_event:00000000 aci_gatt_disc_read_char_by_uuid_resp_event
C:\Users\bku598\AppData\Local\Temp\cc3wINKy.s:3542   .text.aci_gatt_disc_read_char_by_uuid_resp_event_process:00000000 $t
C:\Users\bku598\AppData\Local\Temp\cc3wINKy.s:3547   .text.aci_gatt_disc_read_char_by_uuid_resp_event_process:00000000 aci_gatt_disc_read_char_by_uuid_resp_event_process
C:\Users\bku598\AppData\Local\Temp\cc3wINKy.s:3577   .text.aci_gatt_write_permit_req_event:00000000 $t
C:\Users\bku598\AppData\Local\Temp\cc3wINKy.s:3583   .text.aci_gatt_write_permit_req_event:00000000 aci_gatt_write_permit_req_event
C:\Users\bku598\AppData\Local\Temp\cc3wINKy.s:3597   .text.aci_gatt_write_permit_req_event_process:00000000 $t
C:\Users\bku598\AppData\Local\Temp\cc3wINKy.s:3602   .text.aci_gatt_write_permit_req_event_process:00000000 aci_gatt_write_permit_req_event_process
C:\Users\bku598\AppData\Local\Temp\cc3wINKy.s:3632   .text.aci_gatt_read_permit_req_event:00000000 $t
C:\Users\bku598\AppData\Local\Temp\cc3wINKy.s:3638   .text.aci_gatt_read_permit_req_event:00000000 aci_gatt_read_permit_req_event
C:\Users\bku598\AppData\Local\Temp\cc3wINKy.s:3652   .text.aci_gatt_read_permit_req_event_process:00000000 $t
C:\Users\bku598\AppData\Local\Temp\cc3wINKy.s:3657   .text.aci_gatt_read_permit_req_event_process:00000000 aci_gatt_read_permit_req_event_process
C:\Users\bku598\AppData\Local\Temp\cc3wINKy.s:3686   .text.aci_gatt_read_multi_permit_req_event:00000000 $t
C:\Users\bku598\AppData\Local\Temp\cc3wINKy.s:3692   .text.aci_gatt_read_multi_permit_req_event:00000000 aci_gatt_read_multi_permit_req_event
C:\Users\bku598\AppData\Local\Temp\cc3wINKy.s:3706   .text.aci_gatt_read_multi_permit_req_event_process:00000000 $t
C:\Users\bku598\AppData\Local\Temp\cc3wINKy.s:3711   .text.aci_gatt_read_multi_permit_req_event_process:00000000 aci_gatt_read_multi_permit_req_event_process
C:\Users\bku598\AppData\Local\Temp\cc3wINKy.s:3740   .text.aci_gatt_tx_pool_available_event:00000000 $t
C:\Users\bku598\AppData\Local\Temp\cc3wINKy.s:3746   .text.aci_gatt_tx_pool_available_event:00000000 aci_gatt_tx_pool_available_event
C:\Users\bku598\AppData\Local\Temp\cc3wINKy.s:3760   .text.aci_gatt_tx_pool_available_event_process:00000000 $t
C:\Users\bku598\AppData\Local\Temp\cc3wINKy.s:3765   .text.aci_gatt_tx_pool_available_event_process:00000000 aci_gatt_tx_pool_available_event_process
C:\Users\bku598\AppData\Local\Temp\cc3wINKy.s:3793   .text.aci_gatt_server_confirmation_event:00000000 $t
C:\Users\bku598\AppData\Local\Temp\cc3wINKy.s:3799   .text.aci_gatt_server_confirmation_event:00000000 aci_gatt_server_confirmation_event
C:\Users\bku598\AppData\Local\Temp\cc3wINKy.s:3813   .text.aci_gatt_server_confirmation_event_process:00000000 $t
C:\Users\bku598\AppData\Local\Temp\cc3wINKy.s:3818   .text.aci_gatt_server_confirmation_event_process:00000000 aci_gatt_server_confirmation_event_process
C:\Users\bku598\AppData\Local\Temp\cc3wINKy.s:3845   .text.aci_gatt_prepare_write_permit_req_event:00000000 $t
C:\Users\bku598\AppData\Local\Temp\cc3wINKy.s:3851   .text.aci_gatt_prepare_write_permit_req_event:00000000 aci_gatt_prepare_write_permit_req_event
C:\Users\bku598\AppData\Local\Temp\cc3wINKy.s:3865   .text.aci_gatt_prepare_write_permit_req_event_process:00000000 $t
C:\Users\bku598\AppData\Local\Temp\cc3wINKy.s:3870   .text.aci_gatt_prepare_write_permit_req_event_process:00000000 aci_gatt_prepare_write_permit_req_event_process
C:\Users\bku598\AppData\Local\Temp\cc3wINKy.s:3910   .text.aci_gatt_eatt_bearer_event:00000000 $t
C:\Users\bku598\AppData\Local\Temp\cc3wINKy.s:3916   .text.aci_gatt_eatt_bearer_event:00000000 aci_gatt_eatt_bearer_event
C:\Users\bku598\AppData\Local\Temp\cc3wINKy.s:3930   .text.aci_gatt_eatt_bearer_event_process:00000000 $t
C:\Users\bku598\AppData\Local\Temp\cc3wINKy.s:3935   .text.aci_gatt_eatt_bearer_event_process:00000000 aci_gatt_eatt_bearer_event_process
C:\Users\bku598\AppData\Local\Temp\cc3wINKy.s:3965   .text.aci_gatt_mult_notification_event:00000000 $t
C:\Users\bku598\AppData\Local\Temp\cc3wINKy.s:3971   .text.aci_gatt_mult_notification_event:00000000 aci_gatt_mult_notification_event
C:\Users\bku598\AppData\Local\Temp\cc3wINKy.s:3985   .text.aci_gatt_mult_notification_event_process:00000000 $t
C:\Users\bku598\AppData\Local\Temp\cc3wINKy.s:3990   .text.aci_gatt_mult_notification_event_process:00000000 aci_gatt_mult_notification_event_process
C:\Users\bku598\AppData\Local\Temp\cc3wINKy.s:4020   .text.aci_gatt_notification_complete_event:00000000 $t
C:\Users\bku598\AppData\Local\Temp\cc3wINKy.s:4026   .text.aci_gatt_notification_complete_event:00000000 aci_gatt_notification_complete_event
C:\Users\bku598\AppData\Local\Temp\cc3wINKy.s:4040   .text.aci_gatt_notification_complete_event_process:00000000 $t
ARM GAS  C:\Users\bku598\AppData\Local\Temp\cc3wINKy.s 			page 109


C:\Users\bku598\AppData\Local\Temp\cc3wINKy.s:4045   .text.aci_gatt_notification_complete_event_process:00000000 aci_gatt_notification_complete_event_process
C:\Users\bku598\AppData\Local\Temp\cc3wINKy.s:4072   .text.aci_gatt_read_ext_event:00000000 $t
C:\Users\bku598\AppData\Local\Temp\cc3wINKy.s:4078   .text.aci_gatt_read_ext_event:00000000 aci_gatt_read_ext_event
C:\Users\bku598\AppData\Local\Temp\cc3wINKy.s:4092   .text.aci_gatt_read_ext_event_process:00000000 $t
C:\Users\bku598\AppData\Local\Temp\cc3wINKy.s:4097   .text.aci_gatt_read_ext_event_process:00000000 aci_gatt_read_ext_event_process
C:\Users\bku598\AppData\Local\Temp\cc3wINKy.s:4127   .text.aci_gatt_indication_ext_event:00000000 $t
C:\Users\bku598\AppData\Local\Temp\cc3wINKy.s:4133   .text.aci_gatt_indication_ext_event:00000000 aci_gatt_indication_ext_event
C:\Users\bku598\AppData\Local\Temp\cc3wINKy.s:4147   .text.aci_gatt_indication_ext_event_process:00000000 $t
C:\Users\bku598\AppData\Local\Temp\cc3wINKy.s:4152   .text.aci_gatt_indication_ext_event_process:00000000 aci_gatt_indication_ext_event_process
C:\Users\bku598\AppData\Local\Temp\cc3wINKy.s:4192   .text.aci_gatt_notification_ext_event:00000000 $t
C:\Users\bku598\AppData\Local\Temp\cc3wINKy.s:4198   .text.aci_gatt_notification_ext_event:00000000 aci_gatt_notification_ext_event
C:\Users\bku598\AppData\Local\Temp\cc3wINKy.s:4212   .text.aci_gatt_notification_ext_event_process:00000000 $t
C:\Users\bku598\AppData\Local\Temp\cc3wINKy.s:4217   .text.aci_gatt_notification_ext_event_process:00000000 aci_gatt_notification_ext_event_process
C:\Users\bku598\AppData\Local\Temp\cc3wINKy.s:4257   .text.aci_hal_end_of_radio_activity_event:00000000 $t
C:\Users\bku598\AppData\Local\Temp\cc3wINKy.s:4263   .text.aci_hal_end_of_radio_activity_event:00000000 aci_hal_end_of_radio_activity_event
C:\Users\bku598\AppData\Local\Temp\cc3wINKy.s:4277   .text.aci_hal_end_of_radio_activity_event_process:00000000 $t
C:\Users\bku598\AppData\Local\Temp\cc3wINKy.s:4282   .text.aci_hal_end_of_radio_activity_event_process:00000000 aci_hal_end_of_radio_activity_event_process
C:\Users\bku598\AppData\Local\Temp\cc3wINKy.s:4320   .text.aci_hal_scan_req_report_event:00000000 $t
C:\Users\bku598\AppData\Local\Temp\cc3wINKy.s:4326   .text.aci_hal_scan_req_report_event:00000000 aci_hal_scan_req_report_event
C:\Users\bku598\AppData\Local\Temp\cc3wINKy.s:4340   .text.aci_hal_scan_req_report_event_process:00000000 $t
C:\Users\bku598\AppData\Local\Temp\cc3wINKy.s:4345   .text.aci_hal_scan_req_report_event_process:00000000 aci_hal_scan_req_report_event_process
C:\Users\bku598\AppData\Local\Temp\cc3wINKy.s:4378   .rodata.hci_vs_event_table:00000000 hci_vs_event_table
C:\Users\bku598\AppData\Local\Temp\cc3wINKy.s:4375   .rodata.hci_vs_event_table:00000000 $d
C:\Users\bku598\AppData\Local\Temp\cc3wINKy.s:4546   .rodata.hci_le_event_table:00000000 hci_le_event_table
C:\Users\bku598\AppData\Local\Temp\cc3wINKy.s:4543   .rodata.hci_le_event_table:00000000 $d
C:\Users\bku598\AppData\Local\Temp\cc3wINKy.s:4600   .rodata.hci_event_table:00000000 hci_event_table
C:\Users\bku598\AppData\Local\Temp\cc3wINKy.s:4597   .rodata.hci_event_table:00000000 $d

UNDEFINED SYMBOLS
Osal_MemCpy
