ARM GAS  C:\Users\bku598\AppData\Local\Temp\ccOYHSTp.s 			page 1


   1              		.cpu cortex-m4
   2              		.arch armv7e-m
   3              		.fpu fpv4-sp-d16
   4              		.eabi_attribute 27, 1
   5              		.eabi_attribute 28, 1
   6              		.eabi_attribute 20, 1
   7              		.eabi_attribute 21, 1
   8              		.eabi_attribute 23, 3
   9              		.eabi_attribute 24, 1
  10              		.eabi_attribute 25, 1
  11              		.eabi_attribute 26, 1
  12              		.eabi_attribute 30, 1
  13              		.eabi_attribute 34, 1
  14              		.eabi_attribute 18, 4
  15              		.file	"custom_app.c"
  16              		.text
  17              	.Ltext0:
  18              		.cfi_sections	.debug_frame
  19              		.file 1 "STM32_WPAN/App/custom_app.c"
  20              		.section	.text.Custom_STN_NotificationEnabled,"ax",%progbits
  21              		.align	1
  22              		.global	Custom_STN_NotificationEnabled
  23              		.syntax unified
  24              		.thumb
  25              		.thumb_func
  27              	Custom_STN_NotificationEnabled:
  28              	.LFB1269:
   1:STM32_WPAN/App/custom_app.c **** /* USER CODE BEGIN Header */
   2:STM32_WPAN/App/custom_app.c **** /**
   3:STM32_WPAN/App/custom_app.c ****   ******************************************************************************
   4:STM32_WPAN/App/custom_app.c ****   * @file    App/custom_app.c
   5:STM32_WPAN/App/custom_app.c ****   * @author  MCD Application Team
   6:STM32_WPAN/App/custom_app.c ****   * @brief   Custom Example Application (Server)
   7:STM32_WPAN/App/custom_app.c ****   ******************************************************************************
   8:STM32_WPAN/App/custom_app.c ****   * @attention
   9:STM32_WPAN/App/custom_app.c ****   *
  10:STM32_WPAN/App/custom_app.c ****   * Copyright (c) 2026 STMicroelectronics.
  11:STM32_WPAN/App/custom_app.c ****   * All rights reserved.
  12:STM32_WPAN/App/custom_app.c ****   *
  13:STM32_WPAN/App/custom_app.c ****   * This software is licensed under terms that can be found in the LICENSE file
  14:STM32_WPAN/App/custom_app.c ****   * in the root directory of this software component.
  15:STM32_WPAN/App/custom_app.c ****   * If no LICENSE file comes with this software, it is provided AS-IS.
  16:STM32_WPAN/App/custom_app.c ****   *
  17:STM32_WPAN/App/custom_app.c ****   ******************************************************************************
  18:STM32_WPAN/App/custom_app.c ****   */
  19:STM32_WPAN/App/custom_app.c **** /* USER CODE END Header */
  20:STM32_WPAN/App/custom_app.c **** 
  21:STM32_WPAN/App/custom_app.c **** /* Includes ------------------------------------------------------------------*/
  22:STM32_WPAN/App/custom_app.c **** #include "main.h"
  23:STM32_WPAN/App/custom_app.c **** #include "app_common.h"
  24:STM32_WPAN/App/custom_app.c **** #include "dbg_trace.h"
  25:STM32_WPAN/App/custom_app.c **** #include "ble.h"
  26:STM32_WPAN/App/custom_app.c **** #include "custom_app.h"
  27:STM32_WPAN/App/custom_app.c **** #include "custom_stm.h"
  28:STM32_WPAN/App/custom_app.c **** #include "stm32_seq.h"
  29:STM32_WPAN/App/custom_app.c **** 
  30:STM32_WPAN/App/custom_app.c **** /* Private includes ----------------------------------------------------------*/
ARM GAS  C:\Users\bku598\AppData\Local\Temp\ccOYHSTp.s 			page 2


  31:STM32_WPAN/App/custom_app.c **** /* USER CODE BEGIN Includes */
  32:STM32_WPAN/App/custom_app.c **** 
  33:STM32_WPAN/App/custom_app.c **** /* USER CODE END Includes */
  34:STM32_WPAN/App/custom_app.c **** 
  35:STM32_WPAN/App/custom_app.c **** /* Private typedef -----------------------------------------------------------*/
  36:STM32_WPAN/App/custom_app.c **** typedef struct
  37:STM32_WPAN/App/custom_app.c **** {
  38:STM32_WPAN/App/custom_app.c ****   /* dataSend */
  39:STM32_WPAN/App/custom_app.c ****   uint8_t               Dp_Notification_Status;
  40:STM32_WPAN/App/custom_app.c ****   /* USER CODE BEGIN CUSTOM_APP_Context_t */
  41:STM32_WPAN/App/custom_app.c **** 
  42:STM32_WPAN/App/custom_app.c ****   /* USER CODE END CUSTOM_APP_Context_t */
  43:STM32_WPAN/App/custom_app.c **** 
  44:STM32_WPAN/App/custom_app.c ****   uint16_t              ConnectionHandle;
  45:STM32_WPAN/App/custom_app.c **** } Custom_App_Context_t;
  46:STM32_WPAN/App/custom_app.c **** 
  47:STM32_WPAN/App/custom_app.c **** /* USER CODE BEGIN PTD */
  48:STM32_WPAN/App/custom_app.c **** 
  49:STM32_WPAN/App/custom_app.c **** /* USER CODE END PTD */
  50:STM32_WPAN/App/custom_app.c **** 
  51:STM32_WPAN/App/custom_app.c **** /* Private defines ------------------------------------------------------------*/
  52:STM32_WPAN/App/custom_app.c **** /* USER CODE BEGIN PD */
  53:STM32_WPAN/App/custom_app.c **** 
  54:STM32_WPAN/App/custom_app.c **** /* USER CODE END PD */
  55:STM32_WPAN/App/custom_app.c **** 
  56:STM32_WPAN/App/custom_app.c **** /* Private macros -------------------------------------------------------------*/
  57:STM32_WPAN/App/custom_app.c **** /* USER CODE BEGIN PM */
  58:STM32_WPAN/App/custom_app.c **** 
  59:STM32_WPAN/App/custom_app.c **** /* USER CODE END PM */
  60:STM32_WPAN/App/custom_app.c **** 
  61:STM32_WPAN/App/custom_app.c **** /* Private variables ---------------------------------------------------------*/
  62:STM32_WPAN/App/custom_app.c **** /**
  63:STM32_WPAN/App/custom_app.c ****  * START of Section BLE_APP_CONTEXT
  64:STM32_WPAN/App/custom_app.c ****  */
  65:STM32_WPAN/App/custom_app.c **** 
  66:STM32_WPAN/App/custom_app.c **** static Custom_App_Context_t Custom_App_Context;
  67:STM32_WPAN/App/custom_app.c **** 
  68:STM32_WPAN/App/custom_app.c **** /**
  69:STM32_WPAN/App/custom_app.c ****  * END of Section BLE_APP_CONTEXT
  70:STM32_WPAN/App/custom_app.c ****  */
  71:STM32_WPAN/App/custom_app.c **** 
  72:STM32_WPAN/App/custom_app.c **** uint8_t UpdateCharData[512];
  73:STM32_WPAN/App/custom_app.c **** uint8_t NotifyCharData[512];
  74:STM32_WPAN/App/custom_app.c **** uint16_t Connection_Handle;
  75:STM32_WPAN/App/custom_app.c **** /* USER CODE BEGIN PV */
  76:STM32_WPAN/App/custom_app.c **** static uint8_t notifications_enable = 0;
  77:STM32_WPAN/App/custom_app.c **** /* USER CODE END PV */
  78:STM32_WPAN/App/custom_app.c **** 
  79:STM32_WPAN/App/custom_app.c **** /* Private function prototypes -----------------------------------------------*/
  80:STM32_WPAN/App/custom_app.c **** /* dataSend */
  81:STM32_WPAN/App/custom_app.c **** 
  82:STM32_WPAN/App/custom_app.c **** /* USER CODE BEGIN PFP */
  83:STM32_WPAN/App/custom_app.c **** uint8_t Custom_STN_NotificationEnabled(void)
  84:STM32_WPAN/App/custom_app.c **** {
  29              		.loc 1 84 1 view -0
  30              		.cfi_startproc
  31              		@ args = 0, pretend = 0, frame = 0
ARM GAS  C:\Users\bku598\AppData\Local\Temp\ccOYHSTp.s 			page 3


  32              		@ frame_needed = 0, uses_anonymous_args = 0
  33              		@ link register save eliminated.
  85:STM32_WPAN/App/custom_app.c ****   return notifications_enable;
  34              		.loc 1 85 3 view .LVU1
  86:STM32_WPAN/App/custom_app.c **** }
  35              		.loc 1 86 1 is_stmt 0 view .LVU2
  36 0000 014B     		ldr	r3, .L2
  37 0002 1878     		ldrb	r0, [r3]	@ zero_extendqisi2
  38 0004 7047     		bx	lr
  39              	.L3:
  40 0006 00BF     		.align	2
  41              	.L2:
  42 0008 00000000 		.word	notifications_enable
  43              		.cfi_endproc
  44              	.LFE1269:
  46              		.section	.text.Custom_STM_App_Notification,"ax",%progbits
  47              		.align	1
  48              		.global	Custom_STM_App_Notification
  49              		.syntax unified
  50              		.thumb
  51              		.thumb_func
  53              	Custom_STM_App_Notification:
  54              	.LVL0:
  55              	.LFB1270:
  87:STM32_WPAN/App/custom_app.c **** /* USER CODE END PFP */
  88:STM32_WPAN/App/custom_app.c **** 
  89:STM32_WPAN/App/custom_app.c **** /* Functions Definition ------------------------------------------------------*/
  90:STM32_WPAN/App/custom_app.c **** void Custom_STM_App_Notification(Custom_STM_App_Notification_evt_t *pNotification)
  91:STM32_WPAN/App/custom_app.c **** {
  56              		.loc 1 91 1 is_stmt 1 view -0
  57              		.cfi_startproc
  58              		@ args = 0, pretend = 0, frame = 0
  59              		@ frame_needed = 0, uses_anonymous_args = 0
  60              		@ link register save eliminated.
  92:STM32_WPAN/App/custom_app.c ****   /* USER CODE BEGIN CUSTOM_STM_App_Notification_1 */
  93:STM32_WPAN/App/custom_app.c **** 
  94:STM32_WPAN/App/custom_app.c ****   /* USER CODE END CUSTOM_STM_App_Notification_1 */
  95:STM32_WPAN/App/custom_app.c ****   switch (pNotification->Custom_Evt_Opcode)
  61              		.loc 1 95 3 view .LVU4
  62              		.loc 1 95 24 is_stmt 0 view .LVU5
  63 0000 0378     		ldrb	r3, [r0]	@ zero_extendqisi2
  64              		.loc 1 95 3 view .LVU6
  65 0002 13B1     		cbz	r3, .L5
  66 0004 012B     		cmp	r3, #1
  67 0006 04D0     		beq	.L6
  68 0008 7047     		bx	lr
  69              	.L5:
  96:STM32_WPAN/App/custom_app.c ****   {
  97:STM32_WPAN/App/custom_app.c ****     /* USER CODE BEGIN CUSTOM_STM_App_Notification_Custom_Evt_Opcode */
  98:STM32_WPAN/App/custom_app.c **** 
  99:STM32_WPAN/App/custom_app.c ****     /* USER CODE END CUSTOM_STM_App_Notification_Custom_Evt_Opcode */
 100:STM32_WPAN/App/custom_app.c **** 
 101:STM32_WPAN/App/custom_app.c ****     /* dataSend */
 102:STM32_WPAN/App/custom_app.c ****     case CUSTOM_STM_DP_NOTIFY_ENABLED_EVT:
 103:STM32_WPAN/App/custom_app.c ****       /* USER CODE BEGIN CUSTOM_STM_DP_NOTIFY_ENABLED_EVT */
 104:STM32_WPAN/App/custom_app.c ****       notifications_enable = 1;
  70              		.loc 1 104 7 is_stmt 1 view .LVU7
ARM GAS  C:\Users\bku598\AppData\Local\Temp\ccOYHSTp.s 			page 4


  71              		.loc 1 104 28 is_stmt 0 view .LVU8
  72 000a 044B     		ldr	r3, .L8
  73 000c 0122     		movs	r2, #1
  74 000e 1A70     		strb	r2, [r3]
 105:STM32_WPAN/App/custom_app.c ****       /* USER CODE END CUSTOM_STM_DP_NOTIFY_ENABLED_EVT */
 106:STM32_WPAN/App/custom_app.c ****       break;
  75              		.loc 1 106 7 is_stmt 1 view .LVU9
  76 0010 7047     		bx	lr
  77              	.L6:
 107:STM32_WPAN/App/custom_app.c **** 
 108:STM32_WPAN/App/custom_app.c ****     case CUSTOM_STM_DP_NOTIFY_DISABLED_EVT:
 109:STM32_WPAN/App/custom_app.c ****       /* USER CODE BEGIN CUSTOM_STM_DP_NOTIFY_DISABLED_EVT */
 110:STM32_WPAN/App/custom_app.c ****       notifications_enable = 0;
  78              		.loc 1 110 7 view .LVU10
  79              		.loc 1 110 28 is_stmt 0 view .LVU11
  80 0012 024B     		ldr	r3, .L8
  81 0014 0022     		movs	r2, #0
  82 0016 1A70     		strb	r2, [r3]
 111:STM32_WPAN/App/custom_app.c ****       /* USER CODE END CUSTOM_STM_DP_NOTIFY_DISABLED_EVT */
 112:STM32_WPAN/App/custom_app.c ****       break;
  83              		.loc 1 112 7 is_stmt 1 view .LVU12
 113:STM32_WPAN/App/custom_app.c **** 
 114:STM32_WPAN/App/custom_app.c ****     case CUSTOM_STM_NOTIFICATION_COMPLETE_EVT:
 115:STM32_WPAN/App/custom_app.c ****       /* USER CODE BEGIN CUSTOM_STM_NOTIFICATION_COMPLETE_EVT */
 116:STM32_WPAN/App/custom_app.c **** 
 117:STM32_WPAN/App/custom_app.c ****       /* USER CODE END CUSTOM_STM_NOTIFICATION_COMPLETE_EVT */
 118:STM32_WPAN/App/custom_app.c ****       break;
 119:STM32_WPAN/App/custom_app.c **** 
 120:STM32_WPAN/App/custom_app.c ****     default:
 121:STM32_WPAN/App/custom_app.c ****       /* USER CODE BEGIN CUSTOM_STM_App_Notification_default */
 122:STM32_WPAN/App/custom_app.c **** 
 123:STM32_WPAN/App/custom_app.c ****       /* USER CODE END CUSTOM_STM_App_Notification_default */
 124:STM32_WPAN/App/custom_app.c ****       break;
 125:STM32_WPAN/App/custom_app.c ****   }
 126:STM32_WPAN/App/custom_app.c ****   /* USER CODE BEGIN CUSTOM_STM_App_Notification_2 */
 127:STM32_WPAN/App/custom_app.c **** 
 128:STM32_WPAN/App/custom_app.c ****   /* USER CODE END CUSTOM_STM_App_Notification_2 */
 129:STM32_WPAN/App/custom_app.c ****   return;
  84              		.loc 1 129 3 view .LVU13
 130:STM32_WPAN/App/custom_app.c **** }
  85              		.loc 1 130 1 is_stmt 0 view .LVU14
  86 0018 7047     		bx	lr
  87              	.L9:
  88 001a 00BF     		.align	2
  89              	.L8:
  90 001c 00000000 		.word	notifications_enable
  91              		.cfi_endproc
  92              	.LFE1270:
  94              		.section	.text.Custom_APP_Notification,"ax",%progbits
  95              		.align	1
  96              		.global	Custom_APP_Notification
  97              		.syntax unified
  98              		.thumb
  99              		.thumb_func
 101              	Custom_APP_Notification:
 102              	.LVL1:
 103              	.LFB1271:
ARM GAS  C:\Users\bku598\AppData\Local\Temp\ccOYHSTp.s 			page 5


 131:STM32_WPAN/App/custom_app.c **** 
 132:STM32_WPAN/App/custom_app.c **** void Custom_APP_Notification(Custom_App_ConnHandle_Not_evt_t *pNotification)
 133:STM32_WPAN/App/custom_app.c **** {
 104              		.loc 1 133 1 is_stmt 1 view -0
 105              		.cfi_startproc
 106              		@ args = 0, pretend = 0, frame = 0
 107              		@ frame_needed = 0, uses_anonymous_args = 0
 108              		@ link register save eliminated.
 134:STM32_WPAN/App/custom_app.c ****   /* USER CODE BEGIN CUSTOM_APP_Notification_1 */
 135:STM32_WPAN/App/custom_app.c **** 
 136:STM32_WPAN/App/custom_app.c ****   /* USER CODE END CUSTOM_APP_Notification_1 */
 137:STM32_WPAN/App/custom_app.c **** 
 138:STM32_WPAN/App/custom_app.c ****   switch (pNotification->Custom_Evt_Opcode)
 109              		.loc 1 138 3 view .LVU16
 139:STM32_WPAN/App/custom_app.c ****   {
 140:STM32_WPAN/App/custom_app.c ****     /* USER CODE BEGIN CUSTOM_APP_Notification_Custom_Evt_Opcode */
 141:STM32_WPAN/App/custom_app.c **** 
 142:STM32_WPAN/App/custom_app.c ****     /* USER CODE END P2PS_CUSTOM_Notification_Custom_Evt_Opcode */
 143:STM32_WPAN/App/custom_app.c ****     case CUSTOM_CONN_HANDLE_EVT :
 144:STM32_WPAN/App/custom_app.c ****       /* USER CODE BEGIN CUSTOM_CONN_HANDLE_EVT */
 145:STM32_WPAN/App/custom_app.c ****       
 146:STM32_WPAN/App/custom_app.c ****       /* USER CODE END CUSTOM_CONN_HANDLE_EVT */
 147:STM32_WPAN/App/custom_app.c ****       break;
 148:STM32_WPAN/App/custom_app.c **** 
 149:STM32_WPAN/App/custom_app.c ****     case CUSTOM_DISCON_HANDLE_EVT :
 150:STM32_WPAN/App/custom_app.c ****       /* USER CODE BEGIN CUSTOM_DISCON_HANDLE_EVT */
 151:STM32_WPAN/App/custom_app.c **** 
 152:STM32_WPAN/App/custom_app.c ****       /* USER CODE END CUSTOM_DISCON_HANDLE_EVT */
 153:STM32_WPAN/App/custom_app.c ****       break;
 154:STM32_WPAN/App/custom_app.c **** 
 155:STM32_WPAN/App/custom_app.c ****     default:
 156:STM32_WPAN/App/custom_app.c ****       /* USER CODE BEGIN CUSTOM_APP_Notification_default */
 157:STM32_WPAN/App/custom_app.c **** 
 158:STM32_WPAN/App/custom_app.c ****       /* USER CODE END CUSTOM_APP_Notification_default */
 159:STM32_WPAN/App/custom_app.c ****       break;
 110              		.loc 1 159 7 view .LVU17
 160:STM32_WPAN/App/custom_app.c ****   }
 161:STM32_WPAN/App/custom_app.c **** 
 162:STM32_WPAN/App/custom_app.c ****   /* USER CODE BEGIN CUSTOM_APP_Notification_2 */
 163:STM32_WPAN/App/custom_app.c **** 
 164:STM32_WPAN/App/custom_app.c ****   /* USER CODE END CUSTOM_APP_Notification_2 */
 165:STM32_WPAN/App/custom_app.c **** 
 166:STM32_WPAN/App/custom_app.c ****   return;
 111              		.loc 1 166 3 view .LVU18
 167:STM32_WPAN/App/custom_app.c **** }
 112              		.loc 1 167 1 is_stmt 0 view .LVU19
 113 0000 7047     		bx	lr
 114              		.cfi_endproc
 115              	.LFE1271:
 117              		.section	.text.Custom_APP_Init,"ax",%progbits
 118              		.align	1
 119              		.global	Custom_APP_Init
 120              		.syntax unified
 121              		.thumb
 122              		.thumb_func
 124              	Custom_APP_Init:
 125              	.LFB1272:
ARM GAS  C:\Users\bku598\AppData\Local\Temp\ccOYHSTp.s 			page 6


 168:STM32_WPAN/App/custom_app.c **** 
 169:STM32_WPAN/App/custom_app.c **** void Custom_APP_Init(void)
 170:STM32_WPAN/App/custom_app.c **** {
 126              		.loc 1 170 1 is_stmt 1 view -0
 127              		.cfi_startproc
 128              		@ args = 0, pretend = 0, frame = 0
 129              		@ frame_needed = 0, uses_anonymous_args = 0
 130              		@ link register save eliminated.
 171:STM32_WPAN/App/custom_app.c ****   /* USER CODE BEGIN CUSTOM_APP_Init */
 172:STM32_WPAN/App/custom_app.c **** 
 173:STM32_WPAN/App/custom_app.c ****   /* USER CODE END CUSTOM_APP_Init */
 174:STM32_WPAN/App/custom_app.c ****   return;
 131              		.loc 1 174 3 view .LVU21
 175:STM32_WPAN/App/custom_app.c **** }
 132              		.loc 1 175 1 is_stmt 0 view .LVU22
 133 0000 7047     		bx	lr
 134              		.cfi_endproc
 135              	.LFE1272:
 137              		.section	.bss.notifications_enable,"aw",%nobits
 140              	notifications_enable:
 141 0000 00       		.space	1
 142              		.global	Connection_Handle
 143              		.section	.bss.Connection_Handle,"aw",%nobits
 144              		.align	1
 147              	Connection_Handle:
 148 0000 0000     		.space	2
 149              		.global	NotifyCharData
 150              		.section	.bss.NotifyCharData,"aw",%nobits
 151              		.align	2
 154              	NotifyCharData:
 155 0000 00000000 		.space	512
 155      00000000 
 155      00000000 
 155      00000000 
 155      00000000 
 156              		.global	UpdateCharData
 157              		.section	.bss.UpdateCharData,"aw",%nobits
 158              		.align	2
 161              	UpdateCharData:
 162 0000 00000000 		.space	512
 162      00000000 
 162      00000000 
 162      00000000 
 162      00000000 
 163              		.text
 164              	.Letext0:
 165              		.file 2 "C:\\dev\\tools\\gcc-arm-none-eabi-13.3\\bin\\../lib/gcc/arm-none-eabi/13.3.1/../../../../
 166              		.file 3 "C:\\dev\\tools\\gcc-arm-none-eabi-13.3\\bin\\../lib/gcc/arm-none-eabi/13.3.1/../../../../
 167              		.file 4 "STM32_WPAN/App/custom_stm.h"
 168              		.file 5 "STM32_WPAN/App/custom_app.h"
ARM GAS  C:\Users\bku598\AppData\Local\Temp\ccOYHSTp.s 			page 7

