ARM GAS  C:\Users\bku598\AppData\Local\Temp\cc8k81qI.s 			page 1


   1              		.cpu cortex-m4
   2              		.arch armv7e-m
   3              		.fpu fpv4-sp-d16
   4              		.eabi_attribute 27, 1
   5              		.eabi_attribute 28, 1
   6              		.eabi_attribute 20, 1
   7              		.eabi_attribute 21, 1
   8              		.eabi_attribute 23, 3
   9              		.eabi_attribute 24, 1
  10              		.eabi_attribute 25, 1
  11              		.eabi_attribute 26, 1
  12              		.eabi_attribute 30, 1
  13              		.eabi_attribute 34, 1
  14              		.eabi_attribute 18, 4
  15              		.file	"osal.c"
  16              		.text
  17              	.Ltext0:
  18              		.cfi_sections	.debug_frame
  19              		.file 1 "Middlewares/ST/STM32_WPAN/ble/core/template/osal.c"
  20              		.section	.text.Osal_MemCpy,"ax",%progbits
  21              		.align	1
  22              		.global	Osal_MemCpy
  23              		.syntax unified
  24              		.thumb
  25              		.thumb_func
  27              	Osal_MemCpy:
  28              	.LVL0:
  29              	.LFB0:
   1:Middlewares/ST/STM32_WPAN/ble/core/template/osal.c **** /*****************************************************************************
   2:Middlewares/ST/STM32_WPAN/ble/core/template/osal.c ****  * @file    osal.c
   3:Middlewares/ST/STM32_WPAN/ble/core/template/osal.c ****  *
   4:Middlewares/ST/STM32_WPAN/ble/core/template/osal.c ****  * @brief   Implements the interface defined in "osal.h" needed by the stack.
   5:Middlewares/ST/STM32_WPAN/ble/core/template/osal.c ****  *          Actually, only memset, memcpy and memcmp wrappers are implemented.
   6:Middlewares/ST/STM32_WPAN/ble/core/template/osal.c ****  *****************************************************************************
   7:Middlewares/ST/STM32_WPAN/ble/core/template/osal.c ****  * @attention
   8:Middlewares/ST/STM32_WPAN/ble/core/template/osal.c ****  *
   9:Middlewares/ST/STM32_WPAN/ble/core/template/osal.c ****  * Copyright (c) 2018-2025 STMicroelectronics.
  10:Middlewares/ST/STM32_WPAN/ble/core/template/osal.c ****  * All rights reserved.
  11:Middlewares/ST/STM32_WPAN/ble/core/template/osal.c ****  *
  12:Middlewares/ST/STM32_WPAN/ble/core/template/osal.c ****  * This software is licensed under terms that can be found in the LICENSE file
  13:Middlewares/ST/STM32_WPAN/ble/core/template/osal.c ****  * in the root directory of this software component.
  14:Middlewares/ST/STM32_WPAN/ble/core/template/osal.c ****  * If no LICENSE file comes with this software, it is provided AS-IS.
  15:Middlewares/ST/STM32_WPAN/ble/core/template/osal.c ****  *
  16:Middlewares/ST/STM32_WPAN/ble/core/template/osal.c ****  *****************************************************************************
  17:Middlewares/ST/STM32_WPAN/ble/core/template/osal.c ****  */
  18:Middlewares/ST/STM32_WPAN/ble/core/template/osal.c **** 
  19:Middlewares/ST/STM32_WPAN/ble/core/template/osal.c **** #include <string.h>
  20:Middlewares/ST/STM32_WPAN/ble/core/template/osal.c **** #include "osal.h"
  21:Middlewares/ST/STM32_WPAN/ble/core/template/osal.c **** 
  22:Middlewares/ST/STM32_WPAN/ble/core/template/osal.c **** 
  23:Middlewares/ST/STM32_WPAN/ble/core/template/osal.c **** /**
  24:Middlewares/ST/STM32_WPAN/ble/core/template/osal.c ****  * Osal_MemCpy
  25:Middlewares/ST/STM32_WPAN/ble/core/template/osal.c ****  *
  26:Middlewares/ST/STM32_WPAN/ble/core/template/osal.c ****  */
  27:Middlewares/ST/STM32_WPAN/ble/core/template/osal.c **** 
  28:Middlewares/ST/STM32_WPAN/ble/core/template/osal.c **** void* Osal_MemCpy( void *dest, const void *src, unsigned int size )
  29:Middlewares/ST/STM32_WPAN/ble/core/template/osal.c **** {
ARM GAS  C:\Users\bku598\AppData\Local\Temp\cc8k81qI.s 			page 2


  30              		.loc 1 29 1 view -0
  31              		.cfi_startproc
  32              		@ args = 0, pretend = 0, frame = 0
  33              		@ frame_needed = 0, uses_anonymous_args = 0
  34              		.loc 1 29 1 is_stmt 0 view .LVU1
  35 0000 08B5     		push	{r3, lr}
  36              	.LCFI0:
  37              		.cfi_def_cfa_offset 8
  38              		.cfi_offset 3, -8
  39              		.cfi_offset 14, -4
  30:Middlewares/ST/STM32_WPAN/ble/core/template/osal.c ****   return memcpy( dest, src, size );
  40              		.loc 1 30 3 is_stmt 1 view .LVU2
  41              		.loc 1 30 10 is_stmt 0 view .LVU3
  42 0002 FFF7FEFF 		bl	memcpy
  43              	.LVL1:
  31:Middlewares/ST/STM32_WPAN/ble/core/template/osal.c **** }
  44              		.loc 1 31 1 view .LVU4
  45 0006 08BD     		pop	{r3, pc}
  46              		.cfi_endproc
  47              	.LFE0:
  49              		.section	.text.Osal_MemSet,"ax",%progbits
  50              		.align	1
  51              		.global	Osal_MemSet
  52              		.syntax unified
  53              		.thumb
  54              		.thumb_func
  56              	Osal_MemSet:
  57              	.LVL2:
  58              	.LFB1:
  32:Middlewares/ST/STM32_WPAN/ble/core/template/osal.c **** 
  33:Middlewares/ST/STM32_WPAN/ble/core/template/osal.c **** /**
  34:Middlewares/ST/STM32_WPAN/ble/core/template/osal.c ****  * Osal_MemSet
  35:Middlewares/ST/STM32_WPAN/ble/core/template/osal.c ****  *
  36:Middlewares/ST/STM32_WPAN/ble/core/template/osal.c ****  */
  37:Middlewares/ST/STM32_WPAN/ble/core/template/osal.c **** 
  38:Middlewares/ST/STM32_WPAN/ble/core/template/osal.c **** void* Osal_MemSet( void *ptr, int value, unsigned int size )
  39:Middlewares/ST/STM32_WPAN/ble/core/template/osal.c **** {
  59              		.loc 1 39 1 is_stmt 1 view -0
  60              		.cfi_startproc
  61              		@ args = 0, pretend = 0, frame = 0
  62              		@ frame_needed = 0, uses_anonymous_args = 0
  63              		.loc 1 39 1 is_stmt 0 view .LVU6
  64 0000 08B5     		push	{r3, lr}
  65              	.LCFI1:
  66              		.cfi_def_cfa_offset 8
  67              		.cfi_offset 3, -8
  68              		.cfi_offset 14, -4
  40:Middlewares/ST/STM32_WPAN/ble/core/template/osal.c ****   return memset( ptr, value, size );
  69              		.loc 1 40 3 is_stmt 1 view .LVU7
  70              		.loc 1 40 10 is_stmt 0 view .LVU8
  71 0002 FFF7FEFF 		bl	memset
  72              	.LVL3:
  41:Middlewares/ST/STM32_WPAN/ble/core/template/osal.c **** }
  73              		.loc 1 41 1 view .LVU9
  74 0006 08BD     		pop	{r3, pc}
  75              		.cfi_endproc
  76              	.LFE1:
ARM GAS  C:\Users\bku598\AppData\Local\Temp\cc8k81qI.s 			page 3


  78              		.section	.text.Osal_MemCmp,"ax",%progbits
  79              		.align	1
  80              		.global	Osal_MemCmp
  81              		.syntax unified
  82              		.thumb
  83              		.thumb_func
  85              	Osal_MemCmp:
  86              	.LVL4:
  87              	.LFB2:
  42:Middlewares/ST/STM32_WPAN/ble/core/template/osal.c **** 
  43:Middlewares/ST/STM32_WPAN/ble/core/template/osal.c **** /**
  44:Middlewares/ST/STM32_WPAN/ble/core/template/osal.c ****  * Osal_MemCmp
  45:Middlewares/ST/STM32_WPAN/ble/core/template/osal.c ****  *
  46:Middlewares/ST/STM32_WPAN/ble/core/template/osal.c ****  */
  47:Middlewares/ST/STM32_WPAN/ble/core/template/osal.c **** int Osal_MemCmp( const void *s1, const void *s2, unsigned int size )
  48:Middlewares/ST/STM32_WPAN/ble/core/template/osal.c **** {
  88              		.loc 1 48 1 is_stmt 1 view -0
  89              		.cfi_startproc
  90              		@ args = 0, pretend = 0, frame = 0
  91              		@ frame_needed = 0, uses_anonymous_args = 0
  92              		.loc 1 48 1 is_stmt 0 view .LVU11
  93 0000 08B5     		push	{r3, lr}
  94              	.LCFI2:
  95              		.cfi_def_cfa_offset 8
  96              		.cfi_offset 3, -8
  97              		.cfi_offset 14, -4
  49:Middlewares/ST/STM32_WPAN/ble/core/template/osal.c ****   return memcmp( s1, s2, size );
  98              		.loc 1 49 3 is_stmt 1 view .LVU12
  99              		.loc 1 49 10 is_stmt 0 view .LVU13
 100 0002 FFF7FEFF 		bl	memcmp
 101              	.LVL5:
  50:Middlewares/ST/STM32_WPAN/ble/core/template/osal.c **** }
 102              		.loc 1 50 1 view .LVU14
 103 0006 08BD     		pop	{r3, pc}
 104              		.cfi_endproc
 105              	.LFE2:
 107              		.text
 108              	.Letext0:
 109              		.file 2 "C:\\dev\\tools\\gcc-arm-none-eabi-13.3\\bin\\../lib/gcc/arm-none-eabi/13.3.1/../../../../
 110              		.file 3 "C:\\dev\\tools\\gcc-arm-none-eabi-13.3\\bin\\../lib/gcc/arm-none-eabi/13.3.1/include/stdd
 111              		.file 4 "<built-in>"
ARM GAS  C:\Users\bku598\AppData\Local\Temp\cc8k81qI.s 			page 4

