ARM GAS  C:\Users\bku598\AppData\Local\Temp\ccY97MR6.s 			page 1


   1              		.cpu cortex-m4
   2              		.arch armv7e-m
   3              		.fpu fpv4-sp-d16
   4              		.eabi_attribute 27, 1
   5              		.eabi_attribute 28, 1
   6              		.eabi_attribute 20, 1
   7              		.eabi_attribute 21, 1
   8              		.eabi_attribute 23, 3
   9              		.eabi_attribute 24, 1
  10              		.eabi_attribute 25, 1
  11              		.eabi_attribute 26, 1
  12              		.eabi_attribute 30, 1
  13              		.eabi_attribute 34, 1
  14              		.eabi_attribute 18, 4
  15              		.file	"sensordata.c"
  16              		.text
  17              	.Ltext0:
  18              		.cfi_sections	.debug_frame
  19              		.file 1 "Core/Src/sensordata.c"
  20              		.section	.text.packageHeader,"ax",%progbits
  21              		.align	1
  22              		.syntax unified
  23              		.thumb
  24              		.thumb_func
  26              	packageHeader:
  27              	.LFB1264:
   1:Core/Src/sensordata.c **** /**
   2:Core/Src/sensordata.c ****  * @file sensordata.c
   3:Core/Src/sensordata.c ****  * @brief Handles packaging of sensor data and storage in flash memory.
   4:Core/Src/sensordata.c ****  * @author Viktor Alexandersson & Niklas Christensen
   5:Core/Src/sensordata.c ****  * @date 2025-02-27
   6:Core/Src/sensordata.c ****  */
   7:Core/Src/sensordata.c **** 
   8:Core/Src/sensordata.c **** /* Includes -----------------------------------------------*/
   9:Core/Src/sensordata.c **** #include "sensordata.h"
  10:Core/Src/sensordata.c **** 
  11:Core/Src/sensordata.c **** /* Defines -----------------------------------------*/
  12:Core/Src/sensordata.c **** #define BUFFER_SIZE             256
  13:Core/Src/sensordata.c **** #define SECTION_SIZE            4096
  14:Core/Src/sensordata.c **** #define HEADER_SIZE             25
  15:Core/Src/sensordata.c **** #define BMI_SAMPLES_PER_PAGE    19
  16:Core/Src/sensordata.c **** 
  17:Core/Src/sensordata.c **** #define PAGE_PER_SECTION        16
  18:Core/Src/sensordata.c **** 
  19:Core/Src/sensordata.c **** /* Variables -----------------------------------------------*/
  20:Core/Src/sensordata.c **** 
  21:Core/Src/sensordata.c **** static uint8_t ble_sub_page = 0; // 0 = första 128 bytes, 1 = andra 128 bytes
  22:Core/Src/sensordata.c **** 
  23:Core/Src/sensordata.c **** static uint8_t bufferPointer = 0;
  24:Core/Src/sensordata.c **** static uint8_t dataCounter = 0;
  25:Core/Src/sensordata.c **** 
  26:Core/Src/sensordata.c **** static uint8_t pageCounter = 0;
  27:Core/Src/sensordata.c **** static uint16_t sectorCounter = 0;
  28:Core/Src/sensordata.c **** 
  29:Core/Src/sensordata.c **** static bool bufferFull = false; 
  30:Core/Src/sensordata.c **** 
  31:Core/Src/sensordata.c **** static uint8_t headerBuffer[25];
ARM GAS  C:\Users\bku598\AppData\Local\Temp\ccY97MR6.s 			page 2


  32:Core/Src/sensordata.c **** 
  33:Core/Src/sensordata.c **** uint8_t GPSraw_data[15]; 
  34:Core/Src/sensordata.c **** uint8_t BMEraw_data[8]; 
  35:Core/Src/sensordata.c **** uint8_t BMIraw_data[12]; 
  36:Core/Src/sensordata.c **** 
  37:Core/Src/sensordata.c **** static uint16_t bleSector = 0;
  38:Core/Src/sensordata.c **** static uint8_t ble_page = 0;
  39:Core/Src/sensordata.c **** 
  40:Core/Src/sensordata.c **** static uint8_t buffer[BUFFER_SIZE];
  41:Core/Src/sensordata.c **** static uint8_t readbuffer[BUFFER_SIZE];
  42:Core/Src/sensordata.c **** 
  43:Core/Src/sensordata.c **** static uint32_t pageNumber = 0;
  44:Core/Src/sensordata.c **** 
  45:Core/Src/sensordata.c **** /* Private functions -----------------------------------------------*/
  46:Core/Src/sensordata.c **** 
  47:Core/Src/sensordata.c **** static void saveFlashIndex(void)
  48:Core/Src/sensordata.c **** {
  49:Core/Src/sensordata.c ****     FlashIndex_t index;
  50:Core/Src/sensordata.c ****     index.pageNumber = pageNumber;
  51:Core/Src/sensordata.c ****     index.pageCounter = pageCounter;
  52:Core/Src/sensordata.c ****     index.sectorCounter = sectorCounter;
  53:Core/Src/sensordata.c **** 
  54:Core/Src/sensordata.c ****     Flash_SectorErase(INDEX_SECTOR); // Radera innan skrivning
  55:Core/Src/sensordata.c ****     Flash_WritePage(INDEX_ADDRESS, (uint8_t*)&index, sizeof(index));
  56:Core/Src/sensordata.c **** }
  57:Core/Src/sensordata.c **** 
  58:Core/Src/sensordata.c **** static bool loadFlashIndex(void)
  59:Core/Src/sensordata.c **** {
  60:Core/Src/sensordata.c ****     FlashIndex_t index;
  61:Core/Src/sensordata.c ****     Flash_4ByteRead(INDEX_ADDRESS, (uint8_t*)&index, sizeof(index));
  62:Core/Src/sensordata.c **** 
  63:Core/Src/sensordata.c ****     if(index.pageCounter != 0xFF && index.sectorCounter != 0xFFFF)
  64:Core/Src/sensordata.c ****     {
  65:Core/Src/sensordata.c ****         pageNumber = index.pageNumber;
  66:Core/Src/sensordata.c ****         pageCounter = index.pageCounter;
  67:Core/Src/sensordata.c ****         sectorCounter = index.sectorCounter;
  68:Core/Src/sensordata.c ****         return true;
  69:Core/Src/sensordata.c ****     }
  70:Core/Src/sensordata.c ****     return false;
  71:Core/Src/sensordata.c **** }
  72:Core/Src/sensordata.c **** 
  73:Core/Src/sensordata.c **** /**
  74:Core/Src/sensordata.c ****  * @brief  Non-blocking half-page sender BLE
  75:Core/Src/sensordata.c ****  * @return tBleStatus status from the stack
  76:Core/Src/sensordata.c ****  */
  77:Core/Src/sensordata.c **** static tBleStatus sendHalfPage_ble(uint8_t *data, uint16_t length) 
  78:Core/Src/sensordata.c **** { 
  79:Core/Src/sensordata.c **** 
  80:Core/Src/sensordata.c ****     return Custom_STM_App_Update_Char_Variable_Length(CUSTOM_STM_DP, data, length);
  81:Core/Src/sensordata.c **** }
  82:Core/Src/sensordata.c **** /**
  83:Core/Src/sensordata.c ****  * @brief  Structure the header-package.
  84:Core/Src/sensordata.c ****  */
  85:Core/Src/sensordata.c **** static void packageHeader(void)
  86:Core/Src/sensordata.c **** {
  28              		.loc 1 86 1 view -0
  29              		.cfi_startproc
ARM GAS  C:\Users\bku598\AppData\Local\Temp\ccY97MR6.s 			page 3


  30              		@ args = 0, pretend = 0, frame = 0
  31              		@ frame_needed = 0, uses_anonymous_args = 0
  32 0000 10B5     		push	{r4, lr}
  33              	.LCFI0:
  34              		.cfi_def_cfa_offset 8
  35              		.cfi_offset 4, -8
  36              		.cfi_offset 14, -4
  87:Core/Src/sensordata.c ****   BME280_ReadMeasurement_Raw(BMEraw_data);
  37              		.loc 1 87 3 view .LVU1
  38 0002 104C     		ldr	r4, .L3
  39 0004 2046     		mov	r0, r4
  40 0006 FFF7FEFF 		bl	BME280_ReadMeasurement_Raw
  41              	.LVL0:
  88:Core/Src/sensordata.c **** 
  89:Core/Src/sensordata.c ****   headerBuffer[0] = 0xAA;
  42              		.loc 1 89 3 view .LVU2
  43              		.loc 1 89 19 is_stmt 0 view .LVU3
  44 000a 0F4B     		ldr	r3, .L3+4
  45 000c 4FF0AA0E 		mov	lr, #170
  46 0010 9C46     		mov	ip, r3
  47 0012 0CF801EB 		strb	lr, [ip], #1
  90:Core/Src/sensordata.c **** 
  91:Core/Src/sensordata.c ****   memcpy(&headerBuffer[1], BMEraw_data, sizeof(BMEraw_data));
  48              		.loc 1 91 3 is_stmt 1 view .LVU4
  49 0016 2246     		mov	r2, r4
  50 0018 03CA     		ldmia	r2!, {r0, r1}
  51 001a C3F80100 		str	r0, [r3, #1]	@ unaligned
  52 001e CCF80410 		str	r1, [ip, #4]	@ unaligned
  92:Core/Src/sensordata.c **** 
  93:Core/Src/sensordata.c ****   memcpy(&headerBuffer[9], GPSraw_data, sizeof(GPSraw_data));
  53              		.loc 1 93 3 view .LVU5
  54 0022 0A4C     		ldr	r4, .L3+8
  55 0024 07CC     		ldmia	r4!, {r0, r1, r2}
  56 0026 C3F80900 		str	r0, [r3, #9]	@ unaligned
  57 002a C3F80D10 		str	r1, [r3, #13]	@ unaligned
  58 002e C3F81120 		str	r2, [r3, #17]	@ unaligned
  59 0032 2188     		ldrh	r1, [r4]	@ unaligned
  60 0034 A278     		ldrb	r2, [r4, #2]	@ zero_extendqisi2
  61 0036 A3F81510 		strh	r1, [r3, #21]	@ unaligned
  62 003a DA75     		strb	r2, [r3, #23]
  94:Core/Src/sensordata.c **** 
  95:Core/Src/sensordata.c ****   headerBuffer[24] = 0xAA;
  63              		.loc 1 95 3 view .LVU6
  64              		.loc 1 95 20 is_stmt 0 view .LVU7
  65 003c 83F818E0 		strb	lr, [r3, #24]
  96:Core/Src/sensordata.c **** }
  66              		.loc 1 96 1 view .LVU8
  67 0040 10BD     		pop	{r4, pc}
  68              	.L4:
  69 0042 00BF     		.align	2
  70              	.L3:
  71 0044 00000000 		.word	BMEraw_data
  72 0048 00000000 		.word	headerBuffer
  73 004c 00000000 		.word	GPSraw_data
  74              		.cfi_endproc
  75              	.LFE1264:
  77              		.section	.text.newSectionCheck,"ax",%progbits
ARM GAS  C:\Users\bku598\AppData\Local\Temp\ccY97MR6.s 			page 4


  78              		.align	1
  79              		.syntax unified
  80              		.thumb
  81              		.thumb_func
  83              	newSectionCheck:
  84              	.LFB1265:
  97:Core/Src/sensordata.c **** 
  98:Core/Src/sensordata.c **** /**
  99:Core/Src/sensordata.c ****  * @brief  Checks whether its a new section in the memory and prevents overflow
 100:Core/Src/sensordata.c ****  */
 101:Core/Src/sensordata.c **** static void newSectionCheck(void)
 102:Core/Src/sensordata.c **** {
  85              		.loc 1 102 1 is_stmt 1 view -0
  86              		.cfi_startproc
  87              		@ args = 0, pretend = 0, frame = 0
  88              		@ frame_needed = 0, uses_anonymous_args = 0
  89 0000 08B5     		push	{r3, lr}
  90              	.LCFI1:
  91              		.cfi_def_cfa_offset 8
  92              		.cfi_offset 3, -8
  93              		.cfi_offset 14, -4
 103:Core/Src/sensordata.c ****   if(pageCounter >= PAGE_PER_SECTION)
  94              		.loc 1 103 3 view .LVU10
  95              		.loc 1 103 18 is_stmt 0 view .LVU11
  96 0002 0C4B     		ldr	r3, .L9
  97 0004 1B78     		ldrb	r3, [r3]	@ zero_extendqisi2
  98              		.loc 1 103 5 view .LVU12
  99 0006 0F2B     		cmp	r3, #15
 100 0008 12D9     		bls	.L5
 104:Core/Src/sensordata.c ****   {
 105:Core/Src/sensordata.c ****     pageCounter = 0;
 101              		.loc 1 105 5 is_stmt 1 view .LVU13
 102              		.loc 1 105 17 is_stmt 0 view .LVU14
 103 000a 0A4B     		ldr	r3, .L9
 104 000c 0022     		movs	r2, #0
 105 000e 1A70     		strb	r2, [r3]
 106:Core/Src/sensordata.c ****     sectorCounter++;
 106              		.loc 1 106 5 is_stmt 1 view .LVU15
 107              		.loc 1 106 18 is_stmt 0 view .LVU16
 108 0010 094A     		ldr	r2, .L9+4
 109 0012 1388     		ldrh	r3, [r2]
 110 0014 0133     		adds	r3, r3, #1
 111 0016 9BB2     		uxth	r3, r3
 112 0018 1380     		strh	r3, [r2]	@ movhi
 107:Core/Src/sensordata.c ****     
 108:Core/Src/sensordata.c ****     if (sectorCounter >= 15624)
 113              		.loc 1 108 5 is_stmt 1 view .LVU17
 114              		.loc 1 108 8 is_stmt 0 view .LVU18
 115 001a 43F60752 		movw	r2, #15623
 116 001e 9342     		cmp	r3, r2
 117 0020 02D9     		bls	.L7
 109:Core/Src/sensordata.c ****     {
 110:Core/Src/sensordata.c ****       sectorCounter = 0;
 118              		.loc 1 110 7 is_stmt 1 view .LVU19
 119              		.loc 1 110 21 is_stmt 0 view .LVU20
 120 0022 054B     		ldr	r3, .L9+4
 121 0024 0022     		movs	r2, #0
ARM GAS  C:\Users\bku598\AppData\Local\Temp\ccY97MR6.s 			page 5


 122 0026 1A80     		strh	r2, [r3]	@ movhi
 123              	.L7:
 111:Core/Src/sensordata.c ****     }  
 112:Core/Src/sensordata.c **** 
 113:Core/Src/sensordata.c ****     Flash_SectorErase(sectorCounter);
 124              		.loc 1 113 5 is_stmt 1 view .LVU21
 125 0028 034B     		ldr	r3, .L9+4
 126 002a 1888     		ldrh	r0, [r3]
 127 002c FFF7FEFF 		bl	Flash_SectorErase
 128              	.LVL1:
 129              	.L5:
 114:Core/Src/sensordata.c ****   }
 115:Core/Src/sensordata.c **** }
 130              		.loc 1 115 1 is_stmt 0 view .LVU22
 131 0030 08BD     		pop	{r3, pc}
 132              	.L10:
 133 0032 00BF     		.align	2
 134              	.L9:
 135 0034 00000000 		.word	pageCounter
 136 0038 00000000 		.word	sectorCounter
 137              		.cfi_endproc
 138              	.LFE1265:
 140              		.section	.text.saveFlashIndex,"ax",%progbits
 141              		.align	1
 142              		.syntax unified
 143              		.thumb
 144              		.thumb_func
 146              	saveFlashIndex:
 147              	.LFB1261:
  48:Core/Src/sensordata.c ****     FlashIndex_t index;
 148              		.loc 1 48 1 is_stmt 1 view -0
 149              		.cfi_startproc
 150              		@ args = 0, pretend = 0, frame = 16
 151              		@ frame_needed = 0, uses_anonymous_args = 0
 152 0000 00B5     		push	{lr}
 153              	.LCFI2:
 154              		.cfi_def_cfa_offset 4
 155              		.cfi_offset 14, -4
 156 0002 85B0     		sub	sp, sp, #20
 157              	.LCFI3:
 158              		.cfi_def_cfa_offset 24
  49:Core/Src/sensordata.c ****     index.pageNumber = pageNumber;
 159              		.loc 1 49 5 view .LVU24
  50:Core/Src/sensordata.c ****     index.pageCounter = pageCounter;
 160              		.loc 1 50 5 view .LVU25
  50:Core/Src/sensordata.c ****     index.pageCounter = pageCounter;
 161              		.loc 1 50 22 is_stmt 0 view .LVU26
 162 0004 0B4B     		ldr	r3, .L13
 163 0006 1B68     		ldr	r3, [r3]
 164 0008 0193     		str	r3, [sp, #4]
  51:Core/Src/sensordata.c ****     index.sectorCounter = sectorCounter;
 165              		.loc 1 51 5 is_stmt 1 view .LVU27
  51:Core/Src/sensordata.c ****     index.sectorCounter = sectorCounter;
 166              		.loc 1 51 23 is_stmt 0 view .LVU28
 167 000a 0B4B     		ldr	r3, .L13+4
 168 000c 1B78     		ldrb	r3, [r3]	@ zero_extendqisi2
 169 000e 8DF80830 		strb	r3, [sp, #8]
ARM GAS  C:\Users\bku598\AppData\Local\Temp\ccY97MR6.s 			page 6


  52:Core/Src/sensordata.c **** 
 170              		.loc 1 52 5 is_stmt 1 view .LVU29
  52:Core/Src/sensordata.c **** 
 171              		.loc 1 52 25 is_stmt 0 view .LVU30
 172 0012 0A4B     		ldr	r3, .L13+8
 173 0014 1B88     		ldrh	r3, [r3]
 174 0016 ADF80A30 		strh	r3, [sp, #10]	@ movhi
  54:Core/Src/sensordata.c ****     Flash_WritePage(INDEX_ADDRESS, (uint8_t*)&index, sizeof(index));
 175              		.loc 1 54 5 is_stmt 1 view .LVU31
 176 001a 43F60750 		movw	r0, #15623
 177 001e FFF7FEFF 		bl	Flash_SectorErase
 178              	.LVL2:
  55:Core/Src/sensordata.c **** }
 179              		.loc 1 55 5 view .LVU32
 180 0022 0C22     		movs	r2, #12
 181 0024 01A9     		add	r1, sp, #4
 182 0026 0648     		ldr	r0, .L13+12
 183 0028 FFF7FEFF 		bl	Flash_WritePage
 184              	.LVL3:
  56:Core/Src/sensordata.c **** 
 185              		.loc 1 56 1 is_stmt 0 view .LVU33
 186 002c 05B0     		add	sp, sp, #20
 187              	.LCFI4:
 188              		.cfi_def_cfa_offset 4
 189              		@ sp needed
 190 002e 5DF804FB 		ldr	pc, [sp], #4
 191              	.L14:
 192 0032 00BF     		.align	2
 193              	.L13:
 194 0034 00000000 		.word	pageNumber
 195 0038 00000000 		.word	pageCounter
 196 003c 00000000 		.word	sectorCounter
 197 0040 0070D003 		.word	63991808
 198              		.cfi_endproc
 199              	.LFE1261:
 201              		.section	.text.loadFlashIndex,"ax",%progbits
 202              		.align	1
 203              		.syntax unified
 204              		.thumb
 205              		.thumb_func
 207              	loadFlashIndex:
 208              	.LFB1262:
  59:Core/Src/sensordata.c ****     FlashIndex_t index;
 209              		.loc 1 59 1 is_stmt 1 view -0
 210              		.cfi_startproc
 211              		@ args = 0, pretend = 0, frame = 16
 212              		@ frame_needed = 0, uses_anonymous_args = 0
 213 0000 00B5     		push	{lr}
 214              	.LCFI5:
 215              		.cfi_def_cfa_offset 4
 216              		.cfi_offset 14, -4
 217 0002 85B0     		sub	sp, sp, #20
 218              	.LCFI6:
 219              		.cfi_def_cfa_offset 24
  60:Core/Src/sensordata.c ****     Flash_4ByteRead(INDEX_ADDRESS, (uint8_t*)&index, sizeof(index));
 220              		.loc 1 60 5 view .LVU35
  61:Core/Src/sensordata.c **** 
ARM GAS  C:\Users\bku598\AppData\Local\Temp\ccY97MR6.s 			page 7


 221              		.loc 1 61 5 view .LVU36
 222 0004 0C22     		movs	r2, #12
 223 0006 01A9     		add	r1, sp, #4
 224 0008 0D48     		ldr	r0, .L20
 225 000a FFF7FEFF 		bl	Flash_4ByteRead
 226              	.LVL4:
  63:Core/Src/sensordata.c ****     {
 227              		.loc 1 63 5 view .LVU37
  63:Core/Src/sensordata.c ****     {
 228              		.loc 1 63 13 is_stmt 0 view .LVU38
 229 000e 9DF80830 		ldrb	r3, [sp, #8]	@ zero_extendqisi2
  63:Core/Src/sensordata.c ****     {
 230              		.loc 1 63 7 view .LVU39
 231 0012 FF2B     		cmp	r3, #255
 232 0014 0ED0     		beq	.L17
  63:Core/Src/sensordata.c ****     {
 233              		.loc 1 63 42 discriminator 1 view .LVU40
 234 0016 BDF80A20 		ldrh	r2, [sp, #10]
  63:Core/Src/sensordata.c ****     {
 235              		.loc 1 63 34 discriminator 1 view .LVU41
 236 001a 4FF6FF71 		movw	r1, #65535
 237 001e 8A42     		cmp	r2, r1
 238 0020 0CD0     		beq	.L18
  65:Core/Src/sensordata.c ****         pageCounter = index.pageCounter;
 239              		.loc 1 65 9 is_stmt 1 view .LVU42
  65:Core/Src/sensordata.c ****         pageCounter = index.pageCounter;
 240              		.loc 1 65 20 is_stmt 0 view .LVU43
 241 0022 0198     		ldr	r0, [sp, #4]
 242 0024 0749     		ldr	r1, .L20+4
 243 0026 0860     		str	r0, [r1]
  66:Core/Src/sensordata.c ****         sectorCounter = index.sectorCounter;
 244              		.loc 1 66 9 is_stmt 1 view .LVU44
  66:Core/Src/sensordata.c ****         sectorCounter = index.sectorCounter;
 245              		.loc 1 66 21 is_stmt 0 view .LVU45
 246 0028 0749     		ldr	r1, .L20+8
 247 002a 0B70     		strb	r3, [r1]
  67:Core/Src/sensordata.c ****         return true;
 248              		.loc 1 67 9 is_stmt 1 view .LVU46
  67:Core/Src/sensordata.c ****         return true;
 249              		.loc 1 67 23 is_stmt 0 view .LVU47
 250 002c 074B     		ldr	r3, .L20+12
 251 002e 1A80     		strh	r2, [r3]	@ movhi
  68:Core/Src/sensordata.c ****     }
 252              		.loc 1 68 9 is_stmt 1 view .LVU48
  68:Core/Src/sensordata.c ****     }
 253              		.loc 1 68 16 is_stmt 0 view .LVU49
 254 0030 0120     		movs	r0, #1
 255 0032 00E0     		b	.L16
 256              	.L17:
  70:Core/Src/sensordata.c **** }
 257              		.loc 1 70 12 view .LVU50
 258 0034 0020     		movs	r0, #0
 259              	.L16:
  71:Core/Src/sensordata.c **** 
 260              		.loc 1 71 1 view .LVU51
 261 0036 05B0     		add	sp, sp, #20
 262              	.LCFI7:
ARM GAS  C:\Users\bku598\AppData\Local\Temp\ccY97MR6.s 			page 8


 263              		.cfi_remember_state
 264              		.cfi_def_cfa_offset 4
 265              		@ sp needed
 266 0038 5DF804FB 		ldr	pc, [sp], #4
 267              	.L18:
 268              	.LCFI8:
 269              		.cfi_restore_state
  70:Core/Src/sensordata.c **** }
 270              		.loc 1 70 12 view .LVU52
 271 003c 0020     		movs	r0, #0
 272 003e FAE7     		b	.L16
 273              	.L21:
 274              		.align	2
 275              	.L20:
 276 0040 0070D003 		.word	63991808
 277 0044 00000000 		.word	pageNumber
 278 0048 00000000 		.word	pageCounter
 279 004c 00000000 		.word	sectorCounter
 280              		.cfi_endproc
 281              	.LFE1262:
 283              		.section	.text.sendHalfPage_ble,"ax",%progbits
 284              		.align	1
 285              		.syntax unified
 286              		.thumb
 287              		.thumb_func
 289              	sendHalfPage_ble:
 290              	.LVL5:
 291              	.LFB1263:
  78:Core/Src/sensordata.c **** 
 292              		.loc 1 78 1 is_stmt 1 view -0
 293              		.cfi_startproc
 294              		@ args = 0, pretend = 0, frame = 0
 295              		@ frame_needed = 0, uses_anonymous_args = 0
  78:Core/Src/sensordata.c **** 
 296              		.loc 1 78 1 is_stmt 0 view .LVU54
 297 0000 08B5     		push	{r3, lr}
 298              	.LCFI9:
 299              		.cfi_def_cfa_offset 8
 300              		.cfi_offset 3, -8
 301              		.cfi_offset 14, -4
  80:Core/Src/sensordata.c **** }
 302              		.loc 1 80 5 is_stmt 1 view .LVU55
  80:Core/Src/sensordata.c **** }
 303              		.loc 1 80 12 is_stmt 0 view .LVU56
 304 0002 CAB2     		uxtb	r2, r1
 305 0004 0146     		mov	r1, r0
 306              	.LVL6:
  80:Core/Src/sensordata.c **** }
 307              		.loc 1 80 12 view .LVU57
 308 0006 0020     		movs	r0, #0
 309              	.LVL7:
  80:Core/Src/sensordata.c **** }
 310              		.loc 1 80 12 view .LVU58
 311 0008 FFF7FEFF 		bl	Custom_STM_App_Update_Char_Variable_Length
 312              	.LVL8:
  81:Core/Src/sensordata.c **** /**
 313              		.loc 1 81 1 view .LVU59
ARM GAS  C:\Users\bku598\AppData\Local\Temp\ccY97MR6.s 			page 9


 314 000c 08BD     		pop	{r3, pc}
 315              		.cfi_endproc
 316              	.LFE1263:
 318              		.section	.text.packageDataToMem,"ax",%progbits
 319              		.align	1
 320              		.global	packageDataToMem
 321              		.syntax unified
 322              		.thumb
 323              		.thumb_func
 325              	packageDataToMem:
 326              	.LFB1266:
 116:Core/Src/sensordata.c **** 
 117:Core/Src/sensordata.c **** 
 118:Core/Src/sensordata.c **** /**
 119:Core/Src/sensordata.c ****  * @brief  Main memory function for packaging and sending data
 120:Core/Src/sensordata.c ****  */
 121:Core/Src/sensordata.c **** void packageDataToMem(void)
 122:Core/Src/sensordata.c **** {
 327              		.loc 1 122 1 is_stmt 1 view -0
 328              		.cfi_startproc
 329              		@ args = 0, pretend = 0, frame = 0
 330              		@ frame_needed = 0, uses_anonymous_args = 0
 331 0000 F8B5     		push	{r3, r4, r5, r6, r7, lr}
 332              	.LCFI10:
 333              		.cfi_def_cfa_offset 24
 334              		.cfi_offset 3, -24
 335              		.cfi_offset 4, -20
 336              		.cfi_offset 5, -16
 337              		.cfi_offset 6, -12
 338              		.cfi_offset 7, -8
 339              		.cfi_offset 14, -4
 123:Core/Src/sensordata.c ****   // Put header values ONCE first in buffer
 124:Core/Src/sensordata.c ****   if(bufferPointer == 0)
 340              		.loc 1 124 3 view .LVU61
 341              		.loc 1 124 20 is_stmt 0 view .LVU62
 342 0002 1A4B     		ldr	r3, .L31
 343 0004 1B78     		ldrb	r3, [r3]	@ zero_extendqisi2
 344              		.loc 1 124 5 view .LVU63
 345 0006 3BB1     		cbz	r3, .L29
 346              	.L25:
 125:Core/Src/sensordata.c ****   {
 126:Core/Src/sensordata.c ****     packageHeader(); 
 127:Core/Src/sensordata.c ****     memcpy(buffer, headerBuffer, sizeof(headerBuffer));
 128:Core/Src/sensordata.c ****     bufferPointer += HEADER_SIZE;
 129:Core/Src/sensordata.c ****     dataCounter = 0;
 130:Core/Src/sensordata.c ****   }
 131:Core/Src/sensordata.c **** 
 132:Core/Src/sensordata.c ****   if(dataCounter < BMI_SAMPLES_PER_PAGE)
 347              		.loc 1 132 3 is_stmt 1 view .LVU64
 348              		.loc 1 132 18 is_stmt 0 view .LVU65
 349 0008 194B     		ldr	r3, .L31+4
 350 000a 1B78     		ldrb	r3, [r3]	@ zero_extendqisi2
 351              		.loc 1 132 5 view .LVU66
 352 000c 122B     		cmp	r3, #18
 353 000e 15D9     		bls	.L30
 133:Core/Src/sensordata.c ****   {
 134:Core/Src/sensordata.c ****     BMI270_ReadMeasurement_raw(BMIraw_data);  // Read data from sensor
ARM GAS  C:\Users\bku598\AppData\Local\Temp\ccY97MR6.s 			page 10


 135:Core/Src/sensordata.c **** 
 136:Core/Src/sensordata.c ****     memcpy(buffer + bufferPointer, BMIraw_data, sizeof(BMIraw_data)); // put data on the buffer. 
 137:Core/Src/sensordata.c **** 
 138:Core/Src/sensordata.c ****     bufferPointer += 12; 
 139:Core/Src/sensordata.c ****     dataCounter++;
 140:Core/Src/sensordata.c ****   }
 141:Core/Src/sensordata.c ****   else
 142:Core/Src/sensordata.c ****   { 
 143:Core/Src/sensordata.c ****     bufferFull = true;
 354              		.loc 1 143 5 is_stmt 1 view .LVU67
 355              		.loc 1 143 16 is_stmt 0 view .LVU68
 356 0010 184B     		ldr	r3, .L31+8
 357 0012 0122     		movs	r2, #1
 358 0014 1A70     		strb	r2, [r3]
 359              	.L24:
 144:Core/Src/sensordata.c ****   }
 145:Core/Src/sensordata.c **** }
 360              		.loc 1 145 1 view .LVU69
 361 0016 F8BD     		pop	{r3, r4, r5, r6, r7, pc}
 362              	.L29:
 126:Core/Src/sensordata.c ****     memcpy(buffer, headerBuffer, sizeof(headerBuffer));
 363              		.loc 1 126 5 is_stmt 1 view .LVU70
 364 0018 FFF7FEFF 		bl	packageHeader
 365              	.LVL9:
 127:Core/Src/sensordata.c ****     bufferPointer += HEADER_SIZE;
 366              		.loc 1 127 5 view .LVU71
 367 001c 164C     		ldr	r4, .L31+12
 368 001e 174D     		ldr	r5, .L31+16
 369 0020 0FCD     		ldmia	r5!, {r0, r1, r2, r3}
 370 0022 0FC4     		stmia	r4!, {r0, r1, r2, r3}
 371 0024 95E80700 		ldm	r5, {r0, r1, r2}
 372 0028 03C4     		stmia	r4!, {r0, r1}
 373 002a 2270     		strb	r2, [r4]
 128:Core/Src/sensordata.c ****     dataCounter = 0;
 374              		.loc 1 128 5 view .LVU72
 128:Core/Src/sensordata.c ****     dataCounter = 0;
 375              		.loc 1 128 19 is_stmt 0 view .LVU73
 376 002c 0F4A     		ldr	r2, .L31
 377 002e 1378     		ldrb	r3, [r2]	@ zero_extendqisi2
 378 0030 1933     		adds	r3, r3, #25
 379 0032 1370     		strb	r3, [r2]
 129:Core/Src/sensordata.c ****   }
 380              		.loc 1 129 5 is_stmt 1 view .LVU74
 129:Core/Src/sensordata.c ****   }
 381              		.loc 1 129 17 is_stmt 0 view .LVU75
 382 0034 0E4B     		ldr	r3, .L31+4
 383 0036 0022     		movs	r2, #0
 384 0038 1A70     		strb	r2, [r3]
 385 003a E5E7     		b	.L25
 386              	.L30:
 134:Core/Src/sensordata.c **** 
 387              		.loc 1 134 5 is_stmt 1 view .LVU76
 388 003c 104C     		ldr	r4, .L31+20
 389 003e 2046     		mov	r0, r4
 390 0040 FFF7FEFF 		bl	BMI270_ReadMeasurement_raw
 391              	.LVL10:
 136:Core/Src/sensordata.c **** 
ARM GAS  C:\Users\bku598\AppData\Local\Temp\ccY97MR6.s 			page 11


 392              		.loc 1 136 5 view .LVU77
 393 0044 094E     		ldr	r6, .L31
 394 0046 3578     		ldrb	r5, [r6]	@ zero_extendqisi2
 395 0048 0B4F     		ldr	r7, .L31+12
 396 004a 05EB070C 		add	ip, r5, r7
 397 004e 2346     		mov	r3, r4
 398 0050 07CB     		ldmia	r3!, {r0, r1, r2}
 399 0052 7851     		str	r0, [r7, r5]	@ unaligned
 400 0054 CCF80410 		str	r1, [ip, #4]	@ unaligned
 401 0058 CCF80820 		str	r2, [ip, #8]	@ unaligned
 138:Core/Src/sensordata.c ****     dataCounter++;
 402              		.loc 1 138 5 view .LVU78
 138:Core/Src/sensordata.c ****     dataCounter++;
 403              		.loc 1 138 19 is_stmt 0 view .LVU79
 404 005c 0C35     		adds	r5, r5, #12
 405 005e 3570     		strb	r5, [r6]
 139:Core/Src/sensordata.c ****   }
 406              		.loc 1 139 5 is_stmt 1 view .LVU80
 139:Core/Src/sensordata.c ****   }
 407              		.loc 1 139 16 is_stmt 0 view .LVU81
 408 0060 034A     		ldr	r2, .L31+4
 409 0062 1378     		ldrb	r3, [r2]	@ zero_extendqisi2
 410 0064 0133     		adds	r3, r3, #1
 411 0066 1370     		strb	r3, [r2]
 412 0068 D5E7     		b	.L24
 413              	.L32:
 414 006a 00BF     		.align	2
 415              	.L31:
 416 006c 00000000 		.word	bufferPointer
 417 0070 00000000 		.word	dataCounter
 418 0074 00000000 		.word	bufferFull
 419 0078 00000000 		.word	buffer
 420 007c 00000000 		.word	headerBuffer
 421 0080 00000000 		.word	BMIraw_data
 422              		.cfi_endproc
 423              	.LFE1266:
 425              		.section	.text.sendPackageToMem,"ax",%progbits
 426              		.align	1
 427              		.global	sendPackageToMem
 428              		.syntax unified
 429              		.thumb
 430              		.thumb_func
 432              	sendPackageToMem:
 433              	.LFB1267:
 146:Core/Src/sensordata.c **** 
 147:Core/Src/sensordata.c **** /**
 148:Core/Src/sensordata.c ****  * @brief  Sends the structured package to memory
 149:Core/Src/sensordata.c ****  */
 150:Core/Src/sensordata.c **** void sendPackageToMem(void)
 151:Core/Src/sensordata.c **** {
 434              		.loc 1 151 1 is_stmt 1 view -0
 435              		.cfi_startproc
 436              		@ args = 0, pretend = 0, frame = 0
 437              		@ frame_needed = 0, uses_anonymous_args = 0
 152:Core/Src/sensordata.c ****   if (bufferFull) // Buffer is full of 256 bytes
 438              		.loc 1 152 3 view .LVU83
 439              		.loc 1 152 7 is_stmt 0 view .LVU84
ARM GAS  C:\Users\bku598\AppData\Local\Temp\ccY97MR6.s 			page 12


 440 0000 1B4B     		ldr	r3, .L40
 441 0002 1B78     		ldrb	r3, [r3]	@ zero_extendqisi2
 442              		.loc 1 152 6 view .LVU85
 443 0004 03B9     		cbnz	r3, .L39
 444 0006 7047     		bx	lr
 445              	.L39:
 151:Core/Src/sensordata.c ****   if (bufferFull) // Buffer is full of 256 bytes
 446              		.loc 1 151 1 view .LVU86
 447 0008 70B5     		push	{r4, r5, r6, lr}
 448              	.LCFI11:
 449              		.cfi_def_cfa_offset 16
 450              		.cfi_offset 4, -16
 451              		.cfi_offset 5, -12
 452              		.cfi_offset 6, -8
 453              		.cfi_offset 14, -4
 153:Core/Src/sensordata.c ****   {
 154:Core/Src/sensordata.c ****     newSectionCheck();  // Check if we are in a new section in the memory (One section is 4096 byte
 454              		.loc 1 154 5 is_stmt 1 view .LVU87
 455 000a FFF7FEFF 		bl	newSectionCheck
 456              	.LVL11:
 155:Core/Src/sensordata.c **** 
 156:Core/Src/sensordata.c ****     buffer[BUFFER_SIZE - 4] = (pageNumber >> 24) & 0xFF;
 457              		.loc 1 156 5 view .LVU88
 458              		.loc 1 156 43 is_stmt 0 view .LVU89
 459 000e 194D     		ldr	r5, .L40+4
 460 0010 2B68     		ldr	r3, [r5]
 461 0012 1A0E     		lsrs	r2, r3, #24
 462              		.loc 1 156 29 view .LVU90
 463 0014 184C     		ldr	r4, .L40+8
 464 0016 84F8FC20 		strb	r2, [r4, #252]
 157:Core/Src/sensordata.c ****     buffer[BUFFER_SIZE - 3] = (pageNumber >> 16) & 0xFF;
 465              		.loc 1 157 5 is_stmt 1 view .LVU91
 466              		.loc 1 157 43 is_stmt 0 view .LVU92
 467 001a 1A0C     		lsrs	r2, r3, #16
 468              		.loc 1 157 29 view .LVU93
 469 001c 84F8FD20 		strb	r2, [r4, #253]
 158:Core/Src/sensordata.c ****     buffer[BUFFER_SIZE - 2] = (pageNumber >> 8) & 0xFF;
 470              		.loc 1 158 5 is_stmt 1 view .LVU94
 471              		.loc 1 158 43 is_stmt 0 view .LVU95
 472 0020 1A0A     		lsrs	r2, r3, #8
 473              		.loc 1 158 29 view .LVU96
 474 0022 84F8FE20 		strb	r2, [r4, #254]
 159:Core/Src/sensordata.c ****     buffer[BUFFER_SIZE - 1] = pageNumber & 0xFF;
 475              		.loc 1 159 5 is_stmt 1 view .LVU97
 476              		.loc 1 159 29 is_stmt 0 view .LVU98
 477 0026 84F8FF30 		strb	r3, [r4, #255]
 160:Core/Src/sensordata.c **** 
 161:Core/Src/sensordata.c ****     Flash_WritePage((sectorCounter * SECTION_SIZE) + (BUFFER_SIZE * pageCounter), buffer, BUFFER_SI
 478              		.loc 1 161 5 is_stmt 1 view .LVU99
 479              		.loc 1 161 52 is_stmt 0 view .LVU100
 480 002a 144B     		ldr	r3, .L40+12
 481 002c 1B88     		ldrh	r3, [r3]
 482 002e 144E     		ldr	r6, .L40+16
 483 0030 3078     		ldrb	r0, [r6]	@ zero_extendqisi2
 484 0032 00EB0310 		add	r0, r0, r3, lsl #4
 485              		.loc 1 161 5 view .LVU101
 486 0036 4FF48072 		mov	r2, #256
ARM GAS  C:\Users\bku598\AppData\Local\Temp\ccY97MR6.s 			page 13


 487 003a 2146     		mov	r1, r4
 488 003c 0002     		lsls	r0, r0, #8
 489 003e FFF7FEFF 		bl	Flash_WritePage
 490              	.LVL12:
 162:Core/Src/sensordata.c **** 
 163:Core/Src/sensordata.c ****     saveFlashIndex();
 491              		.loc 1 163 5 is_stmt 1 view .LVU102
 492 0042 FFF7FEFF 		bl	saveFlashIndex
 493              	.LVL13:
 164:Core/Src/sensordata.c **** 
 165:Core/Src/sensordata.c ****     pageCounter++;
 494              		.loc 1 165 5 view .LVU103
 495              		.loc 1 165 16 is_stmt 0 view .LVU104
 496 0046 3378     		ldrb	r3, [r6]	@ zero_extendqisi2
 497 0048 0133     		adds	r3, r3, #1
 498 004a 3370     		strb	r3, [r6]
 166:Core/Src/sensordata.c ****     pageNumber++;
 499              		.loc 1 166 5 is_stmt 1 view .LVU105
 500              		.loc 1 166 15 is_stmt 0 view .LVU106
 501 004c 2B68     		ldr	r3, [r5]
 502 004e 0133     		adds	r3, r3, #1
 503 0050 2B60     		str	r3, [r5]
 167:Core/Src/sensordata.c **** 
 168:Core/Src/sensordata.c ****     bufferPointer = 0;
 504              		.loc 1 168 5 is_stmt 1 view .LVU107
 505              		.loc 1 168 19 is_stmt 0 view .LVU108
 506 0052 0023     		movs	r3, #0
 507 0054 0B4A     		ldr	r2, .L40+20
 508 0056 1370     		strb	r3, [r2]
 169:Core/Src/sensordata.c ****     dataCounter = 0;
 509              		.loc 1 169 5 is_stmt 1 view .LVU109
 510              		.loc 1 169 17 is_stmt 0 view .LVU110
 511 0058 0B4A     		ldr	r2, .L40+24
 512 005a 1370     		strb	r3, [r2]
 170:Core/Src/sensordata.c ****     bufferFull = false;
 513              		.loc 1 170 5 is_stmt 1 view .LVU111
 514              		.loc 1 170 16 is_stmt 0 view .LVU112
 515 005c 044A     		ldr	r2, .L40
 516 005e 1370     		strb	r3, [r2]
 171:Core/Src/sensordata.c ****     memset(buffer, 0xFF, BUFFER_SIZE);
 517              		.loc 1 171 5 is_stmt 1 view .LVU113
 518 0060 4FF48072 		mov	r2, #256
 519 0064 FF21     		movs	r1, #255
 520 0066 2046     		mov	r0, r4
 521 0068 FFF7FEFF 		bl	memset
 522              	.LVL14:
 172:Core/Src/sensordata.c ****   }
 173:Core/Src/sensordata.c **** }
 523              		.loc 1 173 1 is_stmt 0 view .LVU114
 524 006c 70BD     		pop	{r4, r5, r6, pc}
 525              	.L41:
 526 006e 00BF     		.align	2
 527              	.L40:
 528 0070 00000000 		.word	bufferFull
 529 0074 00000000 		.word	pageNumber
 530 0078 00000000 		.word	buffer
 531 007c 00000000 		.word	sectorCounter
ARM GAS  C:\Users\bku598\AppData\Local\Temp\ccY97MR6.s 			page 14


 532 0080 00000000 		.word	pageCounter
 533 0084 00000000 		.word	bufferPointer
 534 0088 00000000 		.word	dataCounter
 535              		.cfi_endproc
 536              	.LFE1267:
 538              		.section	.text.readMemSendBle,"ax",%progbits
 539              		.align	1
 540              		.global	readMemSendBle
 541              		.syntax unified
 542              		.thumb
 543              		.thumb_func
 545              	readMemSendBle:
 546              	.LFB1268:
 174:Core/Src/sensordata.c **** 
 175:Core/Src/sensordata.c **** void readMemSendBle(void)
 176:Core/Src/sensordata.c **** {
 547              		.loc 1 176 1 is_stmt 1 view -0
 548              		.cfi_startproc
 549              		@ args = 0, pretend = 0, frame = 0
 550              		@ frame_needed = 0, uses_anonymous_args = 0
 551 0000 08B5     		push	{r3, lr}
 552              	.LCFI12:
 553              		.cfi_def_cfa_offset 8
 554              		.cfi_offset 3, -8
 555              		.cfi_offset 14, -4
 177:Core/Src/sensordata.c ****     if ((bleSector < sectorCounter) || (bleSector == sectorCounter && ble_page < pageCounter))
 556              		.loc 1 177 5 view .LVU116
 557              		.loc 1 177 20 is_stmt 0 view .LVU117
 558 0002 1F4B     		ldr	r3, .L49
 559 0004 1B88     		ldrh	r3, [r3]
 560 0006 1F4A     		ldr	r2, .L49+4
 561 0008 1288     		ldrh	r2, [r2]
 562              		.loc 1 177 8 view .LVU118
 563 000a 9342     		cmp	r3, r2
 564 000c 07D3     		bcc	.L43
 565              		.loc 1 177 37 discriminator 1 view .LVU119
 566 000e 00D0     		beq	.L47
 567              	.L42:
 178:Core/Src/sensordata.c ****     {
 179:Core/Src/sensordata.c ****         if (ble_sub_page == 0) 
 180:Core/Src/sensordata.c ****         {
 181:Core/Src/sensordata.c ****             Flash_4ByteRead((bleSector * SECTION_SIZE) + (BUFFER_SIZE * ble_page),
 182:Core/Src/sensordata.c ****                             readbuffer, sizeof(readbuffer));
 183:Core/Src/sensordata.c ****         }
 184:Core/Src/sensordata.c **** 
 185:Core/Src/sensordata.c ****         // Buffer pointer to send either first or second half
 186:Core/Src/sensordata.c ****         uint8_t *dataPtr = readbuffer + (ble_sub_page * 128);
 187:Core/Src/sensordata.c **** 
 188:Core/Src/sensordata.c ****         tBleStatus status = sendHalfPage_ble(dataPtr, 128);
 189:Core/Src/sensordata.c **** 
 190:Core/Src/sensordata.c ****         if (status == BLE_STATUS_SUCCESS) 
 191:Core/Src/sensordata.c ****         {
 192:Core/Src/sensordata.c ****             ble_sub_page++;
 193:Core/Src/sensordata.c **** 
 194:Core/Src/sensordata.c ****             // If both halves are sent, move on to the next one
 195:Core/Src/sensordata.c ****             if (ble_sub_page >= 2) 
 196:Core/Src/sensordata.c ****             {
ARM GAS  C:\Users\bku598\AppData\Local\Temp\ccY97MR6.s 			page 15


 197:Core/Src/sensordata.c ****                 ble_sub_page = 0;
 198:Core/Src/sensordata.c ****                 ble_page++;
 199:Core/Src/sensordata.c **** 
 200:Core/Src/sensordata.c ****                 if (ble_page >= PAGE_PER_SECTION)
 201:Core/Src/sensordata.c ****                 {
 202:Core/Src/sensordata.c ****                     bleSector++;
 203:Core/Src/sensordata.c ****                     ble_page = 0;
 204:Core/Src/sensordata.c ****                 }
 205:Core/Src/sensordata.c ****             }
 206:Core/Src/sensordata.c ****         }
 207:Core/Src/sensordata.c ****     }
 208:Core/Src/sensordata.c **** }
 568              		.loc 1 208 1 view .LVU120
 569 0010 08BD     		pop	{r3, pc}
 570              	.L47:
 177:Core/Src/sensordata.c ****     if ((bleSector < sectorCounter) || (bleSector == sectorCounter && ble_page < pageCounter))
 571              		.loc 1 177 80 discriminator 2 view .LVU121
 572 0012 1D4A     		ldr	r2, .L49+8
 573 0014 1178     		ldrb	r1, [r2]	@ zero_extendqisi2
 574 0016 1D4A     		ldr	r2, .L49+12
 575 0018 1278     		ldrb	r2, [r2]	@ zero_extendqisi2
 177:Core/Src/sensordata.c ****     if ((bleSector < sectorCounter) || (bleSector == sectorCounter && ble_page < pageCounter))
 576              		.loc 1 177 68 discriminator 2 view .LVU122
 577 001a 9142     		cmp	r1, r2
 578 001c F8D2     		bcs	.L42
 579              	.L43:
 580              	.LBB2:
 179:Core/Src/sensordata.c ****         {
 581              		.loc 1 179 9 is_stmt 1 view .LVU123
 179:Core/Src/sensordata.c ****         {
 582              		.loc 1 179 26 is_stmt 0 view .LVU124
 583 001e 1C4A     		ldr	r2, .L49+16
 584 0020 1278     		ldrb	r2, [r2]	@ zero_extendqisi2
 179:Core/Src/sensordata.c ****         {
 585              		.loc 1 179 12 view .LVU125
 586 0022 12B3     		cbz	r2, .L48
 587              	.L45:
 186:Core/Src/sensordata.c **** 
 588              		.loc 1 186 9 is_stmt 1 view .LVU126
 186:Core/Src/sensordata.c **** 
 589              		.loc 1 186 55 is_stmt 0 view .LVU127
 590 0024 1A4B     		ldr	r3, .L49+16
 591 0026 1878     		ldrb	r0, [r3]	@ zero_extendqisi2
 592              	.LVL15:
 188:Core/Src/sensordata.c **** 
 593              		.loc 1 188 9 is_stmt 1 view .LVU128
 188:Core/Src/sensordata.c **** 
 594              		.loc 1 188 29 is_stmt 0 view .LVU129
 595 0028 8021     		movs	r1, #128
 596 002a 1A4B     		ldr	r3, .L49+20
 597 002c 03EBC010 		add	r0, r3, r0, lsl #7
 598              	.LVL16:
 188:Core/Src/sensordata.c **** 
 599              		.loc 1 188 29 view .LVU130
 600 0030 FFF7FEFF 		bl	sendHalfPage_ble
 601              	.LVL17:
 190:Core/Src/sensordata.c ****         {
ARM GAS  C:\Users\bku598\AppData\Local\Temp\ccY97MR6.s 			page 16


 602              		.loc 1 190 9 is_stmt 1 view .LVU131
 190:Core/Src/sensordata.c ****         {
 603              		.loc 1 190 12 is_stmt 0 view .LVU132
 604 0034 0028     		cmp	r0, #0
 605 0036 EBD1     		bne	.L42
 192:Core/Src/sensordata.c **** 
 606              		.loc 1 192 13 is_stmt 1 view .LVU133
 192:Core/Src/sensordata.c **** 
 607              		.loc 1 192 25 is_stmt 0 view .LVU134
 608 0038 154A     		ldr	r2, .L49+16
 609 003a 1378     		ldrb	r3, [r2]	@ zero_extendqisi2
 610 003c 0133     		adds	r3, r3, #1
 611 003e DBB2     		uxtb	r3, r3
 612 0040 1370     		strb	r3, [r2]
 195:Core/Src/sensordata.c ****             {
 613              		.loc 1 195 13 is_stmt 1 view .LVU135
 195:Core/Src/sensordata.c ****             {
 614              		.loc 1 195 16 is_stmt 0 view .LVU136
 615 0042 012B     		cmp	r3, #1
 616 0044 E4D9     		bls	.L42
 197:Core/Src/sensordata.c ****                 ble_page++;
 617              		.loc 1 197 17 is_stmt 1 view .LVU137
 197:Core/Src/sensordata.c ****                 ble_page++;
 618              		.loc 1 197 30 is_stmt 0 view .LVU138
 619 0046 1346     		mov	r3, r2
 620 0048 0022     		movs	r2, #0
 621 004a 1A70     		strb	r2, [r3]
 198:Core/Src/sensordata.c **** 
 622              		.loc 1 198 17 is_stmt 1 view .LVU139
 198:Core/Src/sensordata.c **** 
 623              		.loc 1 198 25 is_stmt 0 view .LVU140
 624 004c 0E4A     		ldr	r2, .L49+8
 625 004e 1378     		ldrb	r3, [r2]	@ zero_extendqisi2
 626 0050 0133     		adds	r3, r3, #1
 627 0052 DBB2     		uxtb	r3, r3
 628 0054 1370     		strb	r3, [r2]
 200:Core/Src/sensordata.c ****                 {
 629              		.loc 1 200 17 is_stmt 1 view .LVU141
 200:Core/Src/sensordata.c ****                 {
 630              		.loc 1 200 20 is_stmt 0 view .LVU142
 631 0056 0F2B     		cmp	r3, #15
 632 0058 DAD9     		bls	.L42
 202:Core/Src/sensordata.c ****                     ble_page = 0;
 633              		.loc 1 202 21 is_stmt 1 view .LVU143
 202:Core/Src/sensordata.c ****                     ble_page = 0;
 634              		.loc 1 202 30 is_stmt 0 view .LVU144
 635 005a 094A     		ldr	r2, .L49
 636 005c 1388     		ldrh	r3, [r2]
 637 005e 0133     		adds	r3, r3, #1
 638 0060 1380     		strh	r3, [r2]	@ movhi
 203:Core/Src/sensordata.c ****                 }
 639              		.loc 1 203 21 is_stmt 1 view .LVU145
 203:Core/Src/sensordata.c ****                 }
 640              		.loc 1 203 30 is_stmt 0 view .LVU146
 641 0062 094B     		ldr	r3, .L49+8
 642 0064 0022     		movs	r2, #0
 643 0066 1A70     		strb	r2, [r3]
ARM GAS  C:\Users\bku598\AppData\Local\Temp\ccY97MR6.s 			page 17


 644              	.LBE2:
 645              		.loc 1 208 1 view .LVU147
 646 0068 D2E7     		b	.L42
 647              	.LVL18:
 648              	.L48:
 649              	.LBB3:
 181:Core/Src/sensordata.c ****                             readbuffer, sizeof(readbuffer));
 650              		.loc 1 181 13 is_stmt 1 view .LVU148
 181:Core/Src/sensordata.c ****                             readbuffer, sizeof(readbuffer));
 651              		.loc 1 181 56 is_stmt 0 view .LVU149
 652 006a 074A     		ldr	r2, .L49+8
 653 006c 1078     		ldrb	r0, [r2]	@ zero_extendqisi2
 654 006e 00EB0310 		add	r0, r0, r3, lsl #4
 181:Core/Src/sensordata.c ****                             readbuffer, sizeof(readbuffer));
 655              		.loc 1 181 13 view .LVU150
 656 0072 4FF48072 		mov	r2, #256
 657 0076 0749     		ldr	r1, .L49+20
 658 0078 0002     		lsls	r0, r0, #8
 659 007a FFF7FEFF 		bl	Flash_4ByteRead
 660              	.LVL19:
 661 007e D1E7     		b	.L45
 662              	.L50:
 663              		.align	2
 664              	.L49:
 665 0080 00000000 		.word	bleSector
 666 0084 00000000 		.word	sectorCounter
 667 0088 00000000 		.word	ble_page
 668 008c 00000000 		.word	pageCounter
 669 0090 00000000 		.word	ble_sub_page
 670 0094 00000000 		.word	readbuffer
 671              	.LBE3:
 672              		.cfi_endproc
 673              	.LFE1268:
 675              		.section	.text.sensordata_init,"ax",%progbits
 676              		.align	1
 677              		.global	sensordata_init
 678              		.syntax unified
 679              		.thumb
 680              		.thumb_func
 682              	sensordata_init:
 683              	.LFB1269:
 209:Core/Src/sensordata.c **** 
 210:Core/Src/sensordata.c **** void sensordata_init(void)
 211:Core/Src/sensordata.c **** {
 684              		.loc 1 211 1 is_stmt 1 view -0
 685              		.cfi_startproc
 686              		@ args = 0, pretend = 0, frame = 0
 687              		@ frame_needed = 0, uses_anonymous_args = 0
 688 0000 08B5     		push	{r3, lr}
 689              	.LCFI13:
 690              		.cfi_def_cfa_offset 8
 691              		.cfi_offset 3, -8
 692              		.cfi_offset 14, -4
 212:Core/Src/sensordata.c ****     if(!loadFlashIndex())
 693              		.loc 1 212 5 view .LVU152
 694              		.loc 1 212 9 is_stmt 0 view .LVU153
 695 0002 FFF7FEFF 		bl	loadFlashIndex
ARM GAS  C:\Users\bku598\AppData\Local\Temp\ccY97MR6.s 			page 18


 696              	.LVL20:
 697              		.loc 1 212 7 discriminator 1 view .LVU154
 698 0006 30B9     		cbnz	r0, .L52
 213:Core/Src/sensordata.c ****     {
 214:Core/Src/sensordata.c ****         pageNumber = 0;
 699              		.loc 1 214 9 is_stmt 1 view .LVU155
 700              		.loc 1 214 20 is_stmt 0 view .LVU156
 701 0008 0023     		movs	r3, #0
 702 000a 0A4A     		ldr	r2, .L54
 703 000c 1360     		str	r3, [r2]
 215:Core/Src/sensordata.c ****         pageCounter = 0;
 704              		.loc 1 215 9 is_stmt 1 view .LVU157
 705              		.loc 1 215 21 is_stmt 0 view .LVU158
 706 000e 0A4A     		ldr	r2, .L54+4
 707 0010 1370     		strb	r3, [r2]
 216:Core/Src/sensordata.c ****         sectorCounter = 0;
 708              		.loc 1 216 9 is_stmt 1 view .LVU159
 709              		.loc 1 216 23 is_stmt 0 view .LVU160
 710 0012 0A4A     		ldr	r2, .L54+8
 711 0014 1380     		strh	r3, [r2]	@ movhi
 712              	.L52:
 217:Core/Src/sensordata.c ****     }
 218:Core/Src/sensordata.c **** 
 219:Core/Src/sensordata.c ****     bufferPointer = 0;
 713              		.loc 1 219 5 is_stmt 1 view .LVU161
 714              		.loc 1 219 19 is_stmt 0 view .LVU162
 715 0016 0023     		movs	r3, #0
 716 0018 094A     		ldr	r2, .L54+12
 717 001a 1370     		strb	r3, [r2]
 220:Core/Src/sensordata.c ****     dataCounter = 0;
 718              		.loc 1 220 5 is_stmt 1 view .LVU163
 719              		.loc 1 220 17 is_stmt 0 view .LVU164
 720 001c 094A     		ldr	r2, .L54+16
 721 001e 1370     		strb	r3, [r2]
 221:Core/Src/sensordata.c ****     bufferFull = false;
 722              		.loc 1 221 5 is_stmt 1 view .LVU165
 723              		.loc 1 221 16 is_stmt 0 view .LVU166
 724 0020 094A     		ldr	r2, .L54+20
 725 0022 1370     		strb	r3, [r2]
 222:Core/Src/sensordata.c ****     memset(buffer, 0xFF, BUFFER_SIZE);
 726              		.loc 1 222 5 is_stmt 1 view .LVU167
 727 0024 4FF48072 		mov	r2, #256
 728 0028 FF21     		movs	r1, #255
 729 002a 0848     		ldr	r0, .L54+24
 730 002c FFF7FEFF 		bl	memset
 731              	.LVL21:
 223:Core/Src/sensordata.c **** }
 732              		.loc 1 223 1 is_stmt 0 view .LVU168
 733 0030 08BD     		pop	{r3, pc}
 734              	.L55:
 735 0032 00BF     		.align	2
 736              	.L54:
 737 0034 00000000 		.word	pageNumber
 738 0038 00000000 		.word	pageCounter
 739 003c 00000000 		.word	sectorCounter
 740 0040 00000000 		.word	bufferPointer
 741 0044 00000000 		.word	dataCounter
ARM GAS  C:\Users\bku598\AppData\Local\Temp\ccY97MR6.s 			page 19


 742 0048 00000000 		.word	bufferFull
 743 004c 00000000 		.word	buffer
 744              		.cfi_endproc
 745              	.LFE1269:
 747              		.section	.bss.pageNumber,"aw",%nobits
 748              		.align	2
 751              	pageNumber:
 752 0000 00000000 		.space	4
 753              		.section	.bss.readbuffer,"aw",%nobits
 754              		.align	2
 757              	readbuffer:
 758 0000 00000000 		.space	256
 758      00000000 
 758      00000000 
 758      00000000 
 758      00000000 
 759              		.section	.bss.buffer,"aw",%nobits
 760              		.align	2
 763              	buffer:
 764 0000 00000000 		.space	256
 764      00000000 
 764      00000000 
 764      00000000 
 764      00000000 
 765              		.section	.bss.ble_page,"aw",%nobits
 768              	ble_page:
 769 0000 00       		.space	1
 770              		.section	.bss.bleSector,"aw",%nobits
 771              		.align	1
 774              	bleSector:
 775 0000 0000     		.space	2
 776              		.global	BMIraw_data
 777              		.section	.bss.BMIraw_data,"aw",%nobits
 778              		.align	2
 781              	BMIraw_data:
 782 0000 00000000 		.space	12
 782      00000000 
 782      00000000 
 783              		.global	BMEraw_data
 784              		.section	.bss.BMEraw_data,"aw",%nobits
 785              		.align	2
 788              	BMEraw_data:
 789 0000 00000000 		.space	8
 789      00000000 
 790              		.global	GPSraw_data
 791              		.section	.bss.GPSraw_data,"aw",%nobits
 792              		.align	2
 795              	GPSraw_data:
 796 0000 00000000 		.space	15
 796      00000000 
 796      00000000 
 796      000000
 797              		.section	.bss.headerBuffer,"aw",%nobits
 798              		.align	2
 801              	headerBuffer:
 802 0000 00000000 		.space	25
 802      00000000 
ARM GAS  C:\Users\bku598\AppData\Local\Temp\ccY97MR6.s 			page 20


 802      00000000 
 802      00000000 
 802      00000000 
 803              		.section	.bss.bufferFull,"aw",%nobits
 806              	bufferFull:
 807 0000 00       		.space	1
 808              		.section	.bss.sectorCounter,"aw",%nobits
 809              		.align	1
 812              	sectorCounter:
 813 0000 0000     		.space	2
 814              		.section	.bss.pageCounter,"aw",%nobits
 817              	pageCounter:
 818 0000 00       		.space	1
 819              		.section	.bss.dataCounter,"aw",%nobits
 822              	dataCounter:
 823 0000 00       		.space	1
 824              		.section	.bss.bufferPointer,"aw",%nobits
 827              	bufferPointer:
 828 0000 00       		.space	1
 829              		.section	.bss.ble_sub_page,"aw",%nobits
 832              	ble_sub_page:
 833 0000 00       		.space	1
 834              		.text
 835              	.Letext0:
 836              		.file 2 "C:\\dev\\tools\\gcc-arm-none-eabi-13.3\\bin\\../lib/gcc/arm-none-eabi/13.3.1/../../../../
 837              		.file 3 "C:\\dev\\tools\\gcc-arm-none-eabi-13.3\\bin\\../lib/gcc/arm-none-eabi/13.3.1/../../../../
 838              		.file 4 "C:\\dev\\tools\\gcc-arm-none-eabi-13.3\\bin\\../lib/gcc/arm-none-eabi/13.3.1/include/stdd
 839              		.file 5 "Middlewares/ST/STM32_WPAN/ble/core/auto/ble_types.h"
 840              		.file 6 "Core/Inc/app_conf.h"
 841              		.file 7 "STM32_WPAN/App/custom_stm.h"
 842              		.file 8 "Core/Inc/sensordata.h"
 843              		.file 9 "Core/Inc/gps.h"
 844              		.file 10 "Core/Inc/flash.h"
 845              		.file 11 "C:\\dev\\tools\\gcc-arm-none-eabi-13.3\\bin\\../lib/gcc/arm-none-eabi/13.3.1/../../../..
 846              		.file 12 "Core/Inc/bme280.h"
 847              		.file 13 "Core/Inc/bmi270.h"
ARM GAS  C:\Users\bku598\AppData\Local\Temp\ccY97MR6.s 			page 21


DEFINED SYMBOLS
                            *ABS*:00000000 sensordata.c
C:\Users\bku598\AppData\Local\Temp\ccY97MR6.s:21     .text.packageHeader:00000000 $t
C:\Users\bku598\AppData\Local\Temp\ccY97MR6.s:26     .text.packageHeader:00000000 packageHeader
C:\Users\bku598\AppData\Local\Temp\ccY97MR6.s:71     .text.packageHeader:00000044 $d
C:\Users\bku598\AppData\Local\Temp\ccY97MR6.s:788    .bss.BMEraw_data:00000000 BMEraw_data
C:\Users\bku598\AppData\Local\Temp\ccY97MR6.s:801    .bss.headerBuffer:00000000 headerBuffer
C:\Users\bku598\AppData\Local\Temp\ccY97MR6.s:795    .bss.GPSraw_data:00000000 GPSraw_data
C:\Users\bku598\AppData\Local\Temp\ccY97MR6.s:78     .text.newSectionCheck:00000000 $t
C:\Users\bku598\AppData\Local\Temp\ccY97MR6.s:83     .text.newSectionCheck:00000000 newSectionCheck
C:\Users\bku598\AppData\Local\Temp\ccY97MR6.s:135    .text.newSectionCheck:00000034 $d
C:\Users\bku598\AppData\Local\Temp\ccY97MR6.s:817    .bss.pageCounter:00000000 pageCounter
C:\Users\bku598\AppData\Local\Temp\ccY97MR6.s:812    .bss.sectorCounter:00000000 sectorCounter
C:\Users\bku598\AppData\Local\Temp\ccY97MR6.s:141    .text.saveFlashIndex:00000000 $t
C:\Users\bku598\AppData\Local\Temp\ccY97MR6.s:146    .text.saveFlashIndex:00000000 saveFlashIndex
C:\Users\bku598\AppData\Local\Temp\ccY97MR6.s:194    .text.saveFlashIndex:00000034 $d
C:\Users\bku598\AppData\Local\Temp\ccY97MR6.s:751    .bss.pageNumber:00000000 pageNumber
C:\Users\bku598\AppData\Local\Temp\ccY97MR6.s:202    .text.loadFlashIndex:00000000 $t
C:\Users\bku598\AppData\Local\Temp\ccY97MR6.s:207    .text.loadFlashIndex:00000000 loadFlashIndex
C:\Users\bku598\AppData\Local\Temp\ccY97MR6.s:276    .text.loadFlashIndex:00000040 $d
C:\Users\bku598\AppData\Local\Temp\ccY97MR6.s:284    .text.sendHalfPage_ble:00000000 $t
C:\Users\bku598\AppData\Local\Temp\ccY97MR6.s:289    .text.sendHalfPage_ble:00000000 sendHalfPage_ble
C:\Users\bku598\AppData\Local\Temp\ccY97MR6.s:319    .text.packageDataToMem:00000000 $t
C:\Users\bku598\AppData\Local\Temp\ccY97MR6.s:325    .text.packageDataToMem:00000000 packageDataToMem
C:\Users\bku598\AppData\Local\Temp\ccY97MR6.s:416    .text.packageDataToMem:0000006c $d
C:\Users\bku598\AppData\Local\Temp\ccY97MR6.s:827    .bss.bufferPointer:00000000 bufferPointer
C:\Users\bku598\AppData\Local\Temp\ccY97MR6.s:822    .bss.dataCounter:00000000 dataCounter
C:\Users\bku598\AppData\Local\Temp\ccY97MR6.s:806    .bss.bufferFull:00000000 bufferFull
C:\Users\bku598\AppData\Local\Temp\ccY97MR6.s:763    .bss.buffer:00000000 buffer
C:\Users\bku598\AppData\Local\Temp\ccY97MR6.s:781    .bss.BMIraw_data:00000000 BMIraw_data
C:\Users\bku598\AppData\Local\Temp\ccY97MR6.s:426    .text.sendPackageToMem:00000000 $t
C:\Users\bku598\AppData\Local\Temp\ccY97MR6.s:432    .text.sendPackageToMem:00000000 sendPackageToMem
C:\Users\bku598\AppData\Local\Temp\ccY97MR6.s:528    .text.sendPackageToMem:00000070 $d
C:\Users\bku598\AppData\Local\Temp\ccY97MR6.s:539    .text.readMemSendBle:00000000 $t
C:\Users\bku598\AppData\Local\Temp\ccY97MR6.s:545    .text.readMemSendBle:00000000 readMemSendBle
C:\Users\bku598\AppData\Local\Temp\ccY97MR6.s:665    .text.readMemSendBle:00000080 $d
C:\Users\bku598\AppData\Local\Temp\ccY97MR6.s:774    .bss.bleSector:00000000 bleSector
C:\Users\bku598\AppData\Local\Temp\ccY97MR6.s:768    .bss.ble_page:00000000 ble_page
C:\Users\bku598\AppData\Local\Temp\ccY97MR6.s:832    .bss.ble_sub_page:00000000 ble_sub_page
C:\Users\bku598\AppData\Local\Temp\ccY97MR6.s:757    .bss.readbuffer:00000000 readbuffer
C:\Users\bku598\AppData\Local\Temp\ccY97MR6.s:676    .text.sensordata_init:00000000 $t
C:\Users\bku598\AppData\Local\Temp\ccY97MR6.s:682    .text.sensordata_init:00000000 sensordata_init
C:\Users\bku598\AppData\Local\Temp\ccY97MR6.s:737    .text.sensordata_init:00000034 $d
C:\Users\bku598\AppData\Local\Temp\ccY97MR6.s:748    .bss.pageNumber:00000000 $d
C:\Users\bku598\AppData\Local\Temp\ccY97MR6.s:754    .bss.readbuffer:00000000 $d
C:\Users\bku598\AppData\Local\Temp\ccY97MR6.s:760    .bss.buffer:00000000 $d
C:\Users\bku598\AppData\Local\Temp\ccY97MR6.s:769    .bss.ble_page:00000000 $d
C:\Users\bku598\AppData\Local\Temp\ccY97MR6.s:771    .bss.bleSector:00000000 $d
C:\Users\bku598\AppData\Local\Temp\ccY97MR6.s:778    .bss.BMIraw_data:00000000 $d
C:\Users\bku598\AppData\Local\Temp\ccY97MR6.s:785    .bss.BMEraw_data:00000000 $d
C:\Users\bku598\AppData\Local\Temp\ccY97MR6.s:792    .bss.GPSraw_data:00000000 $d
C:\Users\bku598\AppData\Local\Temp\ccY97MR6.s:798    .bss.headerBuffer:00000000 $d
C:\Users\bku598\AppData\Local\Temp\ccY97MR6.s:807    .bss.bufferFull:00000000 $d
C:\Users\bku598\AppData\Local\Temp\ccY97MR6.s:809    .bss.sectorCounter:00000000 $d
C:\Users\bku598\AppData\Local\Temp\ccY97MR6.s:818    .bss.pageCounter:00000000 $d
C:\Users\bku598\AppData\Local\Temp\ccY97MR6.s:823    .bss.dataCounter:00000000 $d
C:\Users\bku598\AppData\Local\Temp\ccY97MR6.s:828    .bss.bufferPointer:00000000 $d
ARM GAS  C:\Users\bku598\AppData\Local\Temp\ccY97MR6.s 			page 22


C:\Users\bku598\AppData\Local\Temp\ccY97MR6.s:833    .bss.ble_sub_page:00000000 $d

UNDEFINED SYMBOLS
BME280_ReadMeasurement_Raw
Flash_SectorErase
Flash_WritePage
Flash_4ByteRead
Custom_STM_App_Update_Char_Variable_Length
BMI270_ReadMeasurement_raw
memset
