ARM GAS  C:\Users\bku598\AppData\Local\Temp\cc4wxpa0.s 			page 1


   1              		.cpu cortex-m4
   2              		.arch armv7e-m
   3              		.fpu fpv4-sp-d16
   4              		.eabi_attribute 27, 1
   5              		.eabi_attribute 28, 1
   6              		.eabi_attribute 20, 1
   7              		.eabi_attribute 21, 1
   8              		.eabi_attribute 23, 3
   9              		.eabi_attribute 24, 1
  10              		.eabi_attribute 25, 1
  11              		.eabi_attribute 26, 1
  12              		.eabi_attribute 30, 1
  13              		.eabi_attribute 34, 1
  14              		.eabi_attribute 18, 4
  15              		.file	"stm32wbxx_it.c"
  16              		.text
  17              	.Ltext0:
  18              		.cfi_sections	.debug_frame
  19              		.file 1 "Core/Src/stm32wbxx_it.c"
  20              		.section	.text.NMI_Handler,"ax",%progbits
  21              		.align	1
  22              		.global	NMI_Handler
  23              		.syntax unified
  24              		.thumb
  25              		.thumb_func
  27              	NMI_Handler:
  28              	.LFB1261:
   1:Core/Src/stm32wbxx_it.c **** /* USER CODE BEGIN Header */
   2:Core/Src/stm32wbxx_it.c **** /**
   3:Core/Src/stm32wbxx_it.c ****   ******************************************************************************
   4:Core/Src/stm32wbxx_it.c ****   * @file    stm32wbxx_it.c
   5:Core/Src/stm32wbxx_it.c ****   * @brief   Interrupt Service Routines.
   6:Core/Src/stm32wbxx_it.c ****   ******************************************************************************
   7:Core/Src/stm32wbxx_it.c ****   * @attention
   8:Core/Src/stm32wbxx_it.c ****   *
   9:Core/Src/stm32wbxx_it.c ****   * Copyright (c) 2026 STMicroelectronics.
  10:Core/Src/stm32wbxx_it.c ****   * All rights reserved.
  11:Core/Src/stm32wbxx_it.c ****   *
  12:Core/Src/stm32wbxx_it.c ****   * This software is licensed under terms that can be found in the LICENSE file
  13:Core/Src/stm32wbxx_it.c ****   * in the root directory of this software component.
  14:Core/Src/stm32wbxx_it.c ****   * If no LICENSE file comes with this software, it is provided AS-IS.
  15:Core/Src/stm32wbxx_it.c ****   *
  16:Core/Src/stm32wbxx_it.c ****   ******************************************************************************
  17:Core/Src/stm32wbxx_it.c ****   */
  18:Core/Src/stm32wbxx_it.c **** /* USER CODE END Header */
  19:Core/Src/stm32wbxx_it.c **** 
  20:Core/Src/stm32wbxx_it.c **** /* Includes ------------------------------------------------------------------*/
  21:Core/Src/stm32wbxx_it.c **** #include "main.h"
  22:Core/Src/stm32wbxx_it.c **** #include "stm32wbxx_it.h"
  23:Core/Src/stm32wbxx_it.c **** /* Private includes ----------------------------------------------------------*/
  24:Core/Src/stm32wbxx_it.c **** /* USER CODE BEGIN Includes */
  25:Core/Src/stm32wbxx_it.c **** /* USER CODE END Includes */
  26:Core/Src/stm32wbxx_it.c **** 
  27:Core/Src/stm32wbxx_it.c **** /* Private typedef -----------------------------------------------------------*/
  28:Core/Src/stm32wbxx_it.c **** /* USER CODE BEGIN TD */
  29:Core/Src/stm32wbxx_it.c **** 
  30:Core/Src/stm32wbxx_it.c **** /* USER CODE END TD */
ARM GAS  C:\Users\bku598\AppData\Local\Temp\cc4wxpa0.s 			page 2


  31:Core/Src/stm32wbxx_it.c **** 
  32:Core/Src/stm32wbxx_it.c **** /* Private define ------------------------------------------------------------*/
  33:Core/Src/stm32wbxx_it.c **** /* USER CODE BEGIN PD */
  34:Core/Src/stm32wbxx_it.c **** 
  35:Core/Src/stm32wbxx_it.c **** /* USER CODE END PD */
  36:Core/Src/stm32wbxx_it.c **** 
  37:Core/Src/stm32wbxx_it.c **** /* Private macro -------------------------------------------------------------*/
  38:Core/Src/stm32wbxx_it.c **** /* USER CODE BEGIN PM */
  39:Core/Src/stm32wbxx_it.c **** 
  40:Core/Src/stm32wbxx_it.c **** /* USER CODE END PM */
  41:Core/Src/stm32wbxx_it.c **** 
  42:Core/Src/stm32wbxx_it.c **** /* Private variables ---------------------------------------------------------*/
  43:Core/Src/stm32wbxx_it.c **** /* USER CODE BEGIN PV */
  44:Core/Src/stm32wbxx_it.c **** 
  45:Core/Src/stm32wbxx_it.c **** /* USER CODE END PV */
  46:Core/Src/stm32wbxx_it.c **** 
  47:Core/Src/stm32wbxx_it.c **** /* Private function prototypes -----------------------------------------------*/
  48:Core/Src/stm32wbxx_it.c **** /* USER CODE BEGIN PFP */
  49:Core/Src/stm32wbxx_it.c **** 
  50:Core/Src/stm32wbxx_it.c **** /* USER CODE END PFP */
  51:Core/Src/stm32wbxx_it.c **** 
  52:Core/Src/stm32wbxx_it.c **** /* Private user code ---------------------------------------------------------*/
  53:Core/Src/stm32wbxx_it.c **** /* USER CODE BEGIN 0 */
  54:Core/Src/stm32wbxx_it.c **** 
  55:Core/Src/stm32wbxx_it.c **** /* USER CODE END 0 */
  56:Core/Src/stm32wbxx_it.c **** 
  57:Core/Src/stm32wbxx_it.c **** /* External variables --------------------------------------------------------*/
  58:Core/Src/stm32wbxx_it.c **** extern I2C_HandleTypeDef hi2c1;
  59:Core/Src/stm32wbxx_it.c **** extern IPCC_HandleTypeDef hipcc;
  60:Core/Src/stm32wbxx_it.c **** extern DMA_HandleTypeDef hdma_lpuart1_rx;
  61:Core/Src/stm32wbxx_it.c **** extern UART_HandleTypeDef hlpuart1;
  62:Core/Src/stm32wbxx_it.c **** extern UART_HandleTypeDef huart1;
  63:Core/Src/stm32wbxx_it.c **** extern QSPI_HandleTypeDef hqspi;
  64:Core/Src/stm32wbxx_it.c **** extern RTC_HandleTypeDef hrtc;
  65:Core/Src/stm32wbxx_it.c **** extern TIM_HandleTypeDef htim16;
  66:Core/Src/stm32wbxx_it.c **** /* USER CODE BEGIN EV */
  67:Core/Src/stm32wbxx_it.c **** 
  68:Core/Src/stm32wbxx_it.c **** /* USER CODE END EV */
  69:Core/Src/stm32wbxx_it.c **** 
  70:Core/Src/stm32wbxx_it.c **** /******************************************************************************/
  71:Core/Src/stm32wbxx_it.c **** /*           Cortex Processor Interruption and Exception Handlers          */
  72:Core/Src/stm32wbxx_it.c **** /******************************************************************************/
  73:Core/Src/stm32wbxx_it.c **** /**
  74:Core/Src/stm32wbxx_it.c ****   * @brief This function handles Non maskable interrupt.
  75:Core/Src/stm32wbxx_it.c ****   */
  76:Core/Src/stm32wbxx_it.c **** void NMI_Handler(void)
  77:Core/Src/stm32wbxx_it.c **** {
  29              		.loc 1 77 1 view -0
  30              		.cfi_startproc
  31              		@ Volatile: function does not return.
  32              		@ args = 0, pretend = 0, frame = 0
  33              		@ frame_needed = 0, uses_anonymous_args = 0
  34              		@ link register save eliminated.
  35              	.L2:
  78:Core/Src/stm32wbxx_it.c ****   /* USER CODE BEGIN NonMaskableInt_IRQn 0 */
  79:Core/Src/stm32wbxx_it.c **** 
  80:Core/Src/stm32wbxx_it.c ****   /* USER CODE END NonMaskableInt_IRQn 0 */
ARM GAS  C:\Users\bku598\AppData\Local\Temp\cc4wxpa0.s 			page 3


  81:Core/Src/stm32wbxx_it.c ****   /* USER CODE BEGIN NonMaskableInt_IRQn 1 */
  82:Core/Src/stm32wbxx_it.c ****    while (1)
  36              		.loc 1 82 4 view .LVU1
  83:Core/Src/stm32wbxx_it.c ****   {
  84:Core/Src/stm32wbxx_it.c ****   }
  37              		.loc 1 84 3 view .LVU2
  82:Core/Src/stm32wbxx_it.c ****   {
  38              		.loc 1 82 10 view .LVU3
  39 0000 FEE7     		b	.L2
  40              		.cfi_endproc
  41              	.LFE1261:
  43              		.section	.text.HardFault_Handler,"ax",%progbits
  44              		.align	1
  45              		.global	HardFault_Handler
  46              		.syntax unified
  47              		.thumb
  48              		.thumb_func
  50              	HardFault_Handler:
  51              	.LFB1262:
  85:Core/Src/stm32wbxx_it.c ****   /* USER CODE END NonMaskableInt_IRQn 1 */
  86:Core/Src/stm32wbxx_it.c **** }
  87:Core/Src/stm32wbxx_it.c **** 
  88:Core/Src/stm32wbxx_it.c **** /**
  89:Core/Src/stm32wbxx_it.c ****   * @brief This function handles Hard fault interrupt.
  90:Core/Src/stm32wbxx_it.c ****   */
  91:Core/Src/stm32wbxx_it.c **** void HardFault_Handler(void)
  92:Core/Src/stm32wbxx_it.c **** {
  52              		.loc 1 92 1 view -0
  53              		.cfi_startproc
  54              		@ Volatile: function does not return.
  55              		@ args = 0, pretend = 0, frame = 0
  56              		@ frame_needed = 0, uses_anonymous_args = 0
  57              		@ link register save eliminated.
  58              	.L4:
  93:Core/Src/stm32wbxx_it.c ****   /* USER CODE BEGIN HardFault_IRQn 0 */
  94:Core/Src/stm32wbxx_it.c **** 
  95:Core/Src/stm32wbxx_it.c ****   /* USER CODE END HardFault_IRQn 0 */
  96:Core/Src/stm32wbxx_it.c ****   while (1)
  59              		.loc 1 96 3 view .LVU5
  97:Core/Src/stm32wbxx_it.c ****   {
  98:Core/Src/stm32wbxx_it.c ****     /* USER CODE BEGIN W1_HardFault_IRQn 0 */
  99:Core/Src/stm32wbxx_it.c ****     /* USER CODE END W1_HardFault_IRQn 0 */
 100:Core/Src/stm32wbxx_it.c ****   }
  60              		.loc 1 100 3 view .LVU6
  96:Core/Src/stm32wbxx_it.c ****   {
  61              		.loc 1 96 9 view .LVU7
  62 0000 FEE7     		b	.L4
  63              		.cfi_endproc
  64              	.LFE1262:
  66              		.section	.text.MemManage_Handler,"ax",%progbits
  67              		.align	1
  68              		.global	MemManage_Handler
  69              		.syntax unified
  70              		.thumb
  71              		.thumb_func
  73              	MemManage_Handler:
  74              	.LFB1263:
ARM GAS  C:\Users\bku598\AppData\Local\Temp\cc4wxpa0.s 			page 4


 101:Core/Src/stm32wbxx_it.c **** }
 102:Core/Src/stm32wbxx_it.c **** 
 103:Core/Src/stm32wbxx_it.c **** /**
 104:Core/Src/stm32wbxx_it.c ****   * @brief This function handles Memory management fault.
 105:Core/Src/stm32wbxx_it.c ****   */
 106:Core/Src/stm32wbxx_it.c **** void MemManage_Handler(void)
 107:Core/Src/stm32wbxx_it.c **** {
  75              		.loc 1 107 1 view -0
  76              		.cfi_startproc
  77              		@ Volatile: function does not return.
  78              		@ args = 0, pretend = 0, frame = 0
  79              		@ frame_needed = 0, uses_anonymous_args = 0
  80              		@ link register save eliminated.
  81              	.L6:
 108:Core/Src/stm32wbxx_it.c ****   /* USER CODE BEGIN MemoryManagement_IRQn 0 */
 109:Core/Src/stm32wbxx_it.c **** 
 110:Core/Src/stm32wbxx_it.c ****   /* USER CODE END MemoryManagement_IRQn 0 */
 111:Core/Src/stm32wbxx_it.c ****   while (1)
  82              		.loc 1 111 3 view .LVU9
 112:Core/Src/stm32wbxx_it.c ****   {
 113:Core/Src/stm32wbxx_it.c ****     /* USER CODE BEGIN W1_MemoryManagement_IRQn 0 */
 114:Core/Src/stm32wbxx_it.c ****     /* USER CODE END W1_MemoryManagement_IRQn 0 */
 115:Core/Src/stm32wbxx_it.c ****   }
  83              		.loc 1 115 3 view .LVU10
 111:Core/Src/stm32wbxx_it.c ****   {
  84              		.loc 1 111 9 view .LVU11
  85 0000 FEE7     		b	.L6
  86              		.cfi_endproc
  87              	.LFE1263:
  89              		.section	.text.BusFault_Handler,"ax",%progbits
  90              		.align	1
  91              		.global	BusFault_Handler
  92              		.syntax unified
  93              		.thumb
  94              		.thumb_func
  96              	BusFault_Handler:
  97              	.LFB1264:
 116:Core/Src/stm32wbxx_it.c **** }
 117:Core/Src/stm32wbxx_it.c **** 
 118:Core/Src/stm32wbxx_it.c **** /**
 119:Core/Src/stm32wbxx_it.c ****   * @brief This function handles Prefetch fault, memory access fault.
 120:Core/Src/stm32wbxx_it.c ****   */
 121:Core/Src/stm32wbxx_it.c **** void BusFault_Handler(void)
 122:Core/Src/stm32wbxx_it.c **** {
  98              		.loc 1 122 1 view -0
  99              		.cfi_startproc
 100              		@ Volatile: function does not return.
 101              		@ args = 0, pretend = 0, frame = 0
 102              		@ frame_needed = 0, uses_anonymous_args = 0
 103              		@ link register save eliminated.
 104              	.L8:
 123:Core/Src/stm32wbxx_it.c ****   /* USER CODE BEGIN BusFault_IRQn 0 */
 124:Core/Src/stm32wbxx_it.c **** 
 125:Core/Src/stm32wbxx_it.c ****   /* USER CODE END BusFault_IRQn 0 */
 126:Core/Src/stm32wbxx_it.c ****   while (1)
 105              		.loc 1 126 3 view .LVU13
 127:Core/Src/stm32wbxx_it.c ****   {
ARM GAS  C:\Users\bku598\AppData\Local\Temp\cc4wxpa0.s 			page 5


 128:Core/Src/stm32wbxx_it.c ****     /* USER CODE BEGIN W1_BusFault_IRQn 0 */
 129:Core/Src/stm32wbxx_it.c ****     /* USER CODE END W1_BusFault_IRQn 0 */
 130:Core/Src/stm32wbxx_it.c ****   }
 106              		.loc 1 130 3 view .LVU14
 126:Core/Src/stm32wbxx_it.c ****   {
 107              		.loc 1 126 9 view .LVU15
 108 0000 FEE7     		b	.L8
 109              		.cfi_endproc
 110              	.LFE1264:
 112              		.section	.text.UsageFault_Handler,"ax",%progbits
 113              		.align	1
 114              		.global	UsageFault_Handler
 115              		.syntax unified
 116              		.thumb
 117              		.thumb_func
 119              	UsageFault_Handler:
 120              	.LFB1265:
 131:Core/Src/stm32wbxx_it.c **** }
 132:Core/Src/stm32wbxx_it.c **** 
 133:Core/Src/stm32wbxx_it.c **** /**
 134:Core/Src/stm32wbxx_it.c ****   * @brief This function handles Undefined instruction or illegal state.
 135:Core/Src/stm32wbxx_it.c ****   */
 136:Core/Src/stm32wbxx_it.c **** void UsageFault_Handler(void)
 137:Core/Src/stm32wbxx_it.c **** {
 121              		.loc 1 137 1 view -0
 122              		.cfi_startproc
 123              		@ Volatile: function does not return.
 124              		@ args = 0, pretend = 0, frame = 0
 125              		@ frame_needed = 0, uses_anonymous_args = 0
 126              		@ link register save eliminated.
 127              	.L10:
 138:Core/Src/stm32wbxx_it.c ****   /* USER CODE BEGIN UsageFault_IRQn 0 */
 139:Core/Src/stm32wbxx_it.c **** 
 140:Core/Src/stm32wbxx_it.c ****   /* USER CODE END UsageFault_IRQn 0 */
 141:Core/Src/stm32wbxx_it.c ****   while (1)
 128              		.loc 1 141 3 view .LVU17
 142:Core/Src/stm32wbxx_it.c ****   {
 143:Core/Src/stm32wbxx_it.c ****     /* USER CODE BEGIN W1_UsageFault_IRQn 0 */
 144:Core/Src/stm32wbxx_it.c ****     /* USER CODE END W1_UsageFault_IRQn 0 */
 145:Core/Src/stm32wbxx_it.c ****   }
 129              		.loc 1 145 3 view .LVU18
 141:Core/Src/stm32wbxx_it.c ****   {
 130              		.loc 1 141 9 view .LVU19
 131 0000 FEE7     		b	.L10
 132              		.cfi_endproc
 133              	.LFE1265:
 135              		.section	.text.SVC_Handler,"ax",%progbits
 136              		.align	1
 137              		.global	SVC_Handler
 138              		.syntax unified
 139              		.thumb
 140              		.thumb_func
 142              	SVC_Handler:
 143              	.LFB1266:
 146:Core/Src/stm32wbxx_it.c **** }
 147:Core/Src/stm32wbxx_it.c **** 
 148:Core/Src/stm32wbxx_it.c **** /**
ARM GAS  C:\Users\bku598\AppData\Local\Temp\cc4wxpa0.s 			page 6


 149:Core/Src/stm32wbxx_it.c ****   * @brief This function handles System service call via SWI instruction.
 150:Core/Src/stm32wbxx_it.c ****   */
 151:Core/Src/stm32wbxx_it.c **** void SVC_Handler(void)
 152:Core/Src/stm32wbxx_it.c **** {
 144              		.loc 1 152 1 view -0
 145              		.cfi_startproc
 146              		@ args = 0, pretend = 0, frame = 0
 147              		@ frame_needed = 0, uses_anonymous_args = 0
 148              		@ link register save eliminated.
 153:Core/Src/stm32wbxx_it.c ****   /* USER CODE BEGIN SVCall_IRQn 0 */
 154:Core/Src/stm32wbxx_it.c **** 
 155:Core/Src/stm32wbxx_it.c ****   /* USER CODE END SVCall_IRQn 0 */
 156:Core/Src/stm32wbxx_it.c ****   /* USER CODE BEGIN SVCall_IRQn 1 */
 157:Core/Src/stm32wbxx_it.c **** 
 158:Core/Src/stm32wbxx_it.c ****   /* USER CODE END SVCall_IRQn 1 */
 159:Core/Src/stm32wbxx_it.c **** }
 149              		.loc 1 159 1 view .LVU21
 150 0000 7047     		bx	lr
 151              		.cfi_endproc
 152              	.LFE1266:
 154              		.section	.text.DebugMon_Handler,"ax",%progbits
 155              		.align	1
 156              		.global	DebugMon_Handler
 157              		.syntax unified
 158              		.thumb
 159              		.thumb_func
 161              	DebugMon_Handler:
 162              	.LFB1267:
 160:Core/Src/stm32wbxx_it.c **** 
 161:Core/Src/stm32wbxx_it.c **** /**
 162:Core/Src/stm32wbxx_it.c ****   * @brief This function handles Debug monitor.
 163:Core/Src/stm32wbxx_it.c ****   */
 164:Core/Src/stm32wbxx_it.c **** void DebugMon_Handler(void)
 165:Core/Src/stm32wbxx_it.c **** {
 163              		.loc 1 165 1 view -0
 164              		.cfi_startproc
 165              		@ args = 0, pretend = 0, frame = 0
 166              		@ frame_needed = 0, uses_anonymous_args = 0
 167              		@ link register save eliminated.
 166:Core/Src/stm32wbxx_it.c ****   /* USER CODE BEGIN DebugMonitor_IRQn 0 */
 167:Core/Src/stm32wbxx_it.c **** 
 168:Core/Src/stm32wbxx_it.c ****   /* USER CODE END DebugMonitor_IRQn 0 */
 169:Core/Src/stm32wbxx_it.c ****   /* USER CODE BEGIN DebugMonitor_IRQn 1 */
 170:Core/Src/stm32wbxx_it.c **** 
 171:Core/Src/stm32wbxx_it.c ****   /* USER CODE END DebugMonitor_IRQn 1 */
 172:Core/Src/stm32wbxx_it.c **** }
 168              		.loc 1 172 1 view .LVU23
 169 0000 7047     		bx	lr
 170              		.cfi_endproc
 171              	.LFE1267:
 173              		.section	.text.PendSV_Handler,"ax",%progbits
 174              		.align	1
 175              		.global	PendSV_Handler
 176              		.syntax unified
 177              		.thumb
 178              		.thumb_func
 180              	PendSV_Handler:
ARM GAS  C:\Users\bku598\AppData\Local\Temp\cc4wxpa0.s 			page 7


 181              	.LFB1268:
 173:Core/Src/stm32wbxx_it.c **** 
 174:Core/Src/stm32wbxx_it.c **** /**
 175:Core/Src/stm32wbxx_it.c ****   * @brief This function handles Pendable request for system service.
 176:Core/Src/stm32wbxx_it.c ****   */
 177:Core/Src/stm32wbxx_it.c **** void PendSV_Handler(void)
 178:Core/Src/stm32wbxx_it.c **** {
 182              		.loc 1 178 1 view -0
 183              		.cfi_startproc
 184              		@ args = 0, pretend = 0, frame = 0
 185              		@ frame_needed = 0, uses_anonymous_args = 0
 186              		@ link register save eliminated.
 179:Core/Src/stm32wbxx_it.c ****   /* USER CODE BEGIN PendSV_IRQn 0 */
 180:Core/Src/stm32wbxx_it.c **** 
 181:Core/Src/stm32wbxx_it.c ****   /* USER CODE END PendSV_IRQn 0 */
 182:Core/Src/stm32wbxx_it.c ****   /* USER CODE BEGIN PendSV_IRQn 1 */
 183:Core/Src/stm32wbxx_it.c **** 
 184:Core/Src/stm32wbxx_it.c ****   /* USER CODE END PendSV_IRQn 1 */
 185:Core/Src/stm32wbxx_it.c **** }
 187              		.loc 1 185 1 view .LVU25
 188 0000 7047     		bx	lr
 189              		.cfi_endproc
 190              	.LFE1268:
 192              		.section	.text.SysTick_Handler,"ax",%progbits
 193              		.align	1
 194              		.global	SysTick_Handler
 195              		.syntax unified
 196              		.thumb
 197              		.thumb_func
 199              	SysTick_Handler:
 200              	.LFB1269:
 186:Core/Src/stm32wbxx_it.c **** 
 187:Core/Src/stm32wbxx_it.c **** /**
 188:Core/Src/stm32wbxx_it.c ****   * @brief This function handles System tick timer.
 189:Core/Src/stm32wbxx_it.c ****   */
 190:Core/Src/stm32wbxx_it.c **** void SysTick_Handler(void)
 191:Core/Src/stm32wbxx_it.c **** {
 201              		.loc 1 191 1 view -0
 202              		.cfi_startproc
 203              		@ args = 0, pretend = 0, frame = 0
 204              		@ frame_needed = 0, uses_anonymous_args = 0
 205 0000 08B5     		push	{r3, lr}
 206              	.LCFI0:
 207              		.cfi_def_cfa_offset 8
 208              		.cfi_offset 3, -8
 209              		.cfi_offset 14, -4
 192:Core/Src/stm32wbxx_it.c ****   /* USER CODE BEGIN SysTick_IRQn 0 */
 193:Core/Src/stm32wbxx_it.c **** 
 194:Core/Src/stm32wbxx_it.c ****   /* USER CODE END SysTick_IRQn 0 */
 195:Core/Src/stm32wbxx_it.c ****   HAL_IncTick();
 210              		.loc 1 195 3 view .LVU27
 211 0002 FFF7FEFF 		bl	HAL_IncTick
 212              	.LVL0:
 196:Core/Src/stm32wbxx_it.c ****   /* USER CODE BEGIN SysTick_IRQn 1 */
 197:Core/Src/stm32wbxx_it.c **** 
 198:Core/Src/stm32wbxx_it.c ****   /* USER CODE END SysTick_IRQn 1 */
 199:Core/Src/stm32wbxx_it.c **** }
ARM GAS  C:\Users\bku598\AppData\Local\Temp\cc4wxpa0.s 			page 8


 213              		.loc 1 199 1 is_stmt 0 view .LVU28
 214 0006 08BD     		pop	{r3, pc}
 215              		.cfi_endproc
 216              	.LFE1269:
 218              		.section	.text.RTC_WKUP_IRQHandler,"ax",%progbits
 219              		.align	1
 220              		.global	RTC_WKUP_IRQHandler
 221              		.syntax unified
 222              		.thumb
 223              		.thumb_func
 225              	RTC_WKUP_IRQHandler:
 226              	.LFB1270:
 200:Core/Src/stm32wbxx_it.c **** 
 201:Core/Src/stm32wbxx_it.c **** /******************************************************************************/
 202:Core/Src/stm32wbxx_it.c **** /* STM32WBxx Peripheral Interrupt Handlers                                    */
 203:Core/Src/stm32wbxx_it.c **** /* Add here the Interrupt Handlers for the used peripherals.                  */
 204:Core/Src/stm32wbxx_it.c **** /* For the available peripheral interrupt handler names,                      */
 205:Core/Src/stm32wbxx_it.c **** /* please refer to the startup file (startup_stm32wbxx.s).                    */
 206:Core/Src/stm32wbxx_it.c **** /******************************************************************************/
 207:Core/Src/stm32wbxx_it.c **** 
 208:Core/Src/stm32wbxx_it.c **** /**
 209:Core/Src/stm32wbxx_it.c ****   * @brief This function handles RTC wake-up interrupt through EXTI line 19.
 210:Core/Src/stm32wbxx_it.c ****   */
 211:Core/Src/stm32wbxx_it.c **** void RTC_WKUP_IRQHandler(void)
 212:Core/Src/stm32wbxx_it.c **** {
 227              		.loc 1 212 1 is_stmt 1 view -0
 228              		.cfi_startproc
 229              		@ args = 0, pretend = 0, frame = 0
 230              		@ frame_needed = 0, uses_anonymous_args = 0
 231 0000 08B5     		push	{r3, lr}
 232              	.LCFI1:
 233              		.cfi_def_cfa_offset 8
 234              		.cfi_offset 3, -8
 235              		.cfi_offset 14, -4
 213:Core/Src/stm32wbxx_it.c ****   /* USER CODE BEGIN RTC_WKUP_IRQn 0 */
 214:Core/Src/stm32wbxx_it.c **** 
 215:Core/Src/stm32wbxx_it.c ****   /* USER CODE END RTC_WKUP_IRQn 0 */
 216:Core/Src/stm32wbxx_it.c ****   HAL_RTCEx_WakeUpTimerIRQHandler(&hrtc);
 236              		.loc 1 216 3 view .LVU30
 237 0002 FFF7FEFF 		bl	HW_TS_RTC_Wakeup_Handler
 238              	.LVL1:
 217:Core/Src/stm32wbxx_it.c ****   /* USER CODE BEGIN RTC_WKUP_IRQn 1 */
 218:Core/Src/stm32wbxx_it.c **** 
 219:Core/Src/stm32wbxx_it.c ****   /* USER CODE END RTC_WKUP_IRQn 1 */
 220:Core/Src/stm32wbxx_it.c **** }
 239              		.loc 1 220 1 is_stmt 0 view .LVU31
 240 0006 08BD     		pop	{r3, pc}
 241              		.cfi_endproc
 242              	.LFE1270:
 244              		.section	.text.RCC_IRQHandler,"ax",%progbits
 245              		.align	1
 246              		.global	RCC_IRQHandler
 247              		.syntax unified
 248              		.thumb
 249              		.thumb_func
 251              	RCC_IRQHandler:
 252              	.LFB1271:
ARM GAS  C:\Users\bku598\AppData\Local\Temp\cc4wxpa0.s 			page 9


 221:Core/Src/stm32wbxx_it.c **** 
 222:Core/Src/stm32wbxx_it.c **** /**
 223:Core/Src/stm32wbxx_it.c ****   * @brief This function handles RCC global interrupt.
 224:Core/Src/stm32wbxx_it.c ****   */
 225:Core/Src/stm32wbxx_it.c **** void RCC_IRQHandler(void)
 226:Core/Src/stm32wbxx_it.c **** {
 253              		.loc 1 226 1 is_stmt 1 view -0
 254              		.cfi_startproc
 255              		@ args = 0, pretend = 0, frame = 0
 256              		@ frame_needed = 0, uses_anonymous_args = 0
 257              		@ link register save eliminated.
 227:Core/Src/stm32wbxx_it.c ****   /* USER CODE BEGIN RCC_IRQn 0 */
 228:Core/Src/stm32wbxx_it.c **** 
 229:Core/Src/stm32wbxx_it.c ****   /* USER CODE END RCC_IRQn 0 */
 230:Core/Src/stm32wbxx_it.c ****   /* USER CODE BEGIN RCC_IRQn 1 */
 231:Core/Src/stm32wbxx_it.c **** 
 232:Core/Src/stm32wbxx_it.c ****   /* USER CODE END RCC_IRQn 1 */
 233:Core/Src/stm32wbxx_it.c **** }
 258              		.loc 1 233 1 view .LVU33
 259 0000 7047     		bx	lr
 260              		.cfi_endproc
 261              	.LFE1271:
 263              		.section	.text.EXTI2_IRQHandler,"ax",%progbits
 264              		.align	1
 265              		.global	EXTI2_IRQHandler
 266              		.syntax unified
 267              		.thumb
 268              		.thumb_func
 270              	EXTI2_IRQHandler:
 271              	.LFB1272:
 234:Core/Src/stm32wbxx_it.c **** 
 235:Core/Src/stm32wbxx_it.c **** /**
 236:Core/Src/stm32wbxx_it.c ****   * @brief This function handles EXTI line2 interrupt.
 237:Core/Src/stm32wbxx_it.c ****   */
 238:Core/Src/stm32wbxx_it.c **** void EXTI2_IRQHandler(void)
 239:Core/Src/stm32wbxx_it.c **** {
 272              		.loc 1 239 1 view -0
 273              		.cfi_startproc
 274              		@ args = 0, pretend = 0, frame = 0
 275              		@ frame_needed = 0, uses_anonymous_args = 0
 276 0000 08B5     		push	{r3, lr}
 277              	.LCFI2:
 278              		.cfi_def_cfa_offset 8
 279              		.cfi_offset 3, -8
 280              		.cfi_offset 14, -4
 240:Core/Src/stm32wbxx_it.c ****   /* USER CODE BEGIN EXTI2_IRQn 0 */
 241:Core/Src/stm32wbxx_it.c **** 
 242:Core/Src/stm32wbxx_it.c ****   /* USER CODE END EXTI2_IRQn 0 */
 243:Core/Src/stm32wbxx_it.c ****   HAL_GPIO_EXTI_IRQHandler(BTN_1_Pin);
 281              		.loc 1 243 3 view .LVU35
 282 0002 0420     		movs	r0, #4
 283 0004 FFF7FEFF 		bl	HAL_GPIO_EXTI_IRQHandler
 284              	.LVL2:
 244:Core/Src/stm32wbxx_it.c ****   /* USER CODE BEGIN EXTI2_IRQn 1 */
 245:Core/Src/stm32wbxx_it.c **** 
 246:Core/Src/stm32wbxx_it.c ****   /* USER CODE END EXTI2_IRQn 1 */
 247:Core/Src/stm32wbxx_it.c **** }
ARM GAS  C:\Users\bku598\AppData\Local\Temp\cc4wxpa0.s 			page 10


 285              		.loc 1 247 1 is_stmt 0 view .LVU36
 286 0008 08BD     		pop	{r3, pc}
 287              		.cfi_endproc
 288              	.LFE1272:
 290              		.section	.text.DMA1_Channel1_IRQHandler,"ax",%progbits
 291              		.align	1
 292              		.global	DMA1_Channel1_IRQHandler
 293              		.syntax unified
 294              		.thumb
 295              		.thumb_func
 297              	DMA1_Channel1_IRQHandler:
 298              	.LFB1273:
 248:Core/Src/stm32wbxx_it.c **** 
 249:Core/Src/stm32wbxx_it.c **** /**
 250:Core/Src/stm32wbxx_it.c ****   * @brief This function handles DMA1 channel1 global interrupt.
 251:Core/Src/stm32wbxx_it.c ****   */
 252:Core/Src/stm32wbxx_it.c **** void DMA1_Channel1_IRQHandler(void)
 253:Core/Src/stm32wbxx_it.c **** {
 299              		.loc 1 253 1 is_stmt 1 view -0
 300              		.cfi_startproc
 301              		@ args = 0, pretend = 0, frame = 0
 302              		@ frame_needed = 0, uses_anonymous_args = 0
 303 0000 08B5     		push	{r3, lr}
 304              	.LCFI3:
 305              		.cfi_def_cfa_offset 8
 306              		.cfi_offset 3, -8
 307              		.cfi_offset 14, -4
 254:Core/Src/stm32wbxx_it.c ****   /* USER CODE BEGIN DMA1_Channel1_IRQn 0 */
 255:Core/Src/stm32wbxx_it.c **** 
 256:Core/Src/stm32wbxx_it.c ****   /* USER CODE END DMA1_Channel1_IRQn 0 */
 257:Core/Src/stm32wbxx_it.c ****   HAL_DMA_IRQHandler(&hdma_lpuart1_rx);
 308              		.loc 1 257 3 view .LVU38
 309 0002 0248     		ldr	r0, .L23
 310 0004 FFF7FEFF 		bl	HAL_DMA_IRQHandler
 311              	.LVL3:
 258:Core/Src/stm32wbxx_it.c ****   /* USER CODE BEGIN DMA1_Channel1_IRQn 1 */
 259:Core/Src/stm32wbxx_it.c **** 
 260:Core/Src/stm32wbxx_it.c ****   /* USER CODE END DMA1_Channel1_IRQn 1 */
 261:Core/Src/stm32wbxx_it.c **** }
 312              		.loc 1 261 1 is_stmt 0 view .LVU39
 313 0008 08BD     		pop	{r3, pc}
 314              	.L24:
 315 000a 00BF     		.align	2
 316              	.L23:
 317 000c 00000000 		.word	hdma_lpuart1_rx
 318              		.cfi_endproc
 319              	.LFE1273:
 321              		.section	.text.TIM1_UP_TIM16_IRQHandler,"ax",%progbits
 322              		.align	1
 323              		.global	TIM1_UP_TIM16_IRQHandler
 324              		.syntax unified
 325              		.thumb
 326              		.thumb_func
 328              	TIM1_UP_TIM16_IRQHandler:
 329              	.LFB1274:
 262:Core/Src/stm32wbxx_it.c **** 
 263:Core/Src/stm32wbxx_it.c **** /**
ARM GAS  C:\Users\bku598\AppData\Local\Temp\cc4wxpa0.s 			page 11


 264:Core/Src/stm32wbxx_it.c ****   * @brief This function handles TIM1 update interrupt and TIM16 global interrupt.
 265:Core/Src/stm32wbxx_it.c ****   */
 266:Core/Src/stm32wbxx_it.c **** void TIM1_UP_TIM16_IRQHandler(void)
 267:Core/Src/stm32wbxx_it.c **** {
 330              		.loc 1 267 1 is_stmt 1 view -0
 331              		.cfi_startproc
 332              		@ args = 0, pretend = 0, frame = 0
 333              		@ frame_needed = 0, uses_anonymous_args = 0
 334 0000 08B5     		push	{r3, lr}
 335              	.LCFI4:
 336              		.cfi_def_cfa_offset 8
 337              		.cfi_offset 3, -8
 338              		.cfi_offset 14, -4
 268:Core/Src/stm32wbxx_it.c ****   /* USER CODE BEGIN TIM1_UP_TIM16_IRQn 0 */
 269:Core/Src/stm32wbxx_it.c **** 
 270:Core/Src/stm32wbxx_it.c ****   /* USER CODE END TIM1_UP_TIM16_IRQn 0 */
 271:Core/Src/stm32wbxx_it.c ****   HAL_TIM_IRQHandler(&htim16);
 339              		.loc 1 271 3 view .LVU41
 340 0002 0248     		ldr	r0, .L27
 341 0004 FFF7FEFF 		bl	HAL_TIM_IRQHandler
 342              	.LVL4:
 272:Core/Src/stm32wbxx_it.c ****   /* USER CODE BEGIN TIM1_UP_TIM16_IRQn 1 */
 273:Core/Src/stm32wbxx_it.c **** 
 274:Core/Src/stm32wbxx_it.c ****   /* USER CODE END TIM1_UP_TIM16_IRQn 1 */
 275:Core/Src/stm32wbxx_it.c **** }
 343              		.loc 1 275 1 is_stmt 0 view .LVU42
 344 0008 08BD     		pop	{r3, pc}
 345              	.L28:
 346 000a 00BF     		.align	2
 347              	.L27:
 348 000c 00000000 		.word	htim16
 349              		.cfi_endproc
 350              	.LFE1274:
 352              		.section	.text.I2C1_EV_IRQHandler,"ax",%progbits
 353              		.align	1
 354              		.global	I2C1_EV_IRQHandler
 355              		.syntax unified
 356              		.thumb
 357              		.thumb_func
 359              	I2C1_EV_IRQHandler:
 360              	.LFB1275:
 276:Core/Src/stm32wbxx_it.c **** 
 277:Core/Src/stm32wbxx_it.c **** /**
 278:Core/Src/stm32wbxx_it.c ****   * @brief This function handles I2C1 event interrupt.
 279:Core/Src/stm32wbxx_it.c ****   */
 280:Core/Src/stm32wbxx_it.c **** void I2C1_EV_IRQHandler(void)
 281:Core/Src/stm32wbxx_it.c **** {
 361              		.loc 1 281 1 is_stmt 1 view -0
 362              		.cfi_startproc
 363              		@ args = 0, pretend = 0, frame = 0
 364              		@ frame_needed = 0, uses_anonymous_args = 0
 365 0000 08B5     		push	{r3, lr}
 366              	.LCFI5:
 367              		.cfi_def_cfa_offset 8
 368              		.cfi_offset 3, -8
 369              		.cfi_offset 14, -4
 282:Core/Src/stm32wbxx_it.c ****   /* USER CODE BEGIN I2C1_EV_IRQn 0 */
ARM GAS  C:\Users\bku598\AppData\Local\Temp\cc4wxpa0.s 			page 12


 283:Core/Src/stm32wbxx_it.c **** 
 284:Core/Src/stm32wbxx_it.c ****   /* USER CODE END I2C1_EV_IRQn 0 */
 285:Core/Src/stm32wbxx_it.c ****   HAL_I2C_EV_IRQHandler(&hi2c1);
 370              		.loc 1 285 3 view .LVU44
 371 0002 0248     		ldr	r0, .L31
 372 0004 FFF7FEFF 		bl	HAL_I2C_EV_IRQHandler
 373              	.LVL5:
 286:Core/Src/stm32wbxx_it.c ****   /* USER CODE BEGIN I2C1_EV_IRQn 1 */
 287:Core/Src/stm32wbxx_it.c **** 
 288:Core/Src/stm32wbxx_it.c ****   /* USER CODE END I2C1_EV_IRQn 1 */
 289:Core/Src/stm32wbxx_it.c **** }
 374              		.loc 1 289 1 is_stmt 0 view .LVU45
 375 0008 08BD     		pop	{r3, pc}
 376              	.L32:
 377 000a 00BF     		.align	2
 378              	.L31:
 379 000c 00000000 		.word	hi2c1
 380              		.cfi_endproc
 381              	.LFE1275:
 383              		.section	.text.I2C1_ER_IRQHandler,"ax",%progbits
 384              		.align	1
 385              		.global	I2C1_ER_IRQHandler
 386              		.syntax unified
 387              		.thumb
 388              		.thumb_func
 390              	I2C1_ER_IRQHandler:
 391              	.LFB1276:
 290:Core/Src/stm32wbxx_it.c **** 
 291:Core/Src/stm32wbxx_it.c **** /**
 292:Core/Src/stm32wbxx_it.c ****   * @brief This function handles I2C1 error interrupt.
 293:Core/Src/stm32wbxx_it.c ****   */
 294:Core/Src/stm32wbxx_it.c **** void I2C1_ER_IRQHandler(void)
 295:Core/Src/stm32wbxx_it.c **** {
 392              		.loc 1 295 1 is_stmt 1 view -0
 393              		.cfi_startproc
 394              		@ args = 0, pretend = 0, frame = 0
 395              		@ frame_needed = 0, uses_anonymous_args = 0
 396 0000 08B5     		push	{r3, lr}
 397              	.LCFI6:
 398              		.cfi_def_cfa_offset 8
 399              		.cfi_offset 3, -8
 400              		.cfi_offset 14, -4
 296:Core/Src/stm32wbxx_it.c ****   /* USER CODE BEGIN I2C1_ER_IRQn 0 */
 297:Core/Src/stm32wbxx_it.c **** 
 298:Core/Src/stm32wbxx_it.c ****   /* USER CODE END I2C1_ER_IRQn 0 */
 299:Core/Src/stm32wbxx_it.c ****   HAL_I2C_ER_IRQHandler(&hi2c1);
 401              		.loc 1 299 3 view .LVU47
 402 0002 0248     		ldr	r0, .L35
 403 0004 FFF7FEFF 		bl	HAL_I2C_ER_IRQHandler
 404              	.LVL6:
 300:Core/Src/stm32wbxx_it.c ****   /* USER CODE BEGIN I2C1_ER_IRQn 1 */
 301:Core/Src/stm32wbxx_it.c **** 
 302:Core/Src/stm32wbxx_it.c ****   /* USER CODE END I2C1_ER_IRQn 1 */
 303:Core/Src/stm32wbxx_it.c **** }
 405              		.loc 1 303 1 is_stmt 0 view .LVU48
 406 0008 08BD     		pop	{r3, pc}
 407              	.L36:
ARM GAS  C:\Users\bku598\AppData\Local\Temp\cc4wxpa0.s 			page 13


 408 000a 00BF     		.align	2
 409              	.L35:
 410 000c 00000000 		.word	hi2c1
 411              		.cfi_endproc
 412              	.LFE1276:
 414              		.section	.text.USART1_IRQHandler,"ax",%progbits
 415              		.align	1
 416              		.global	USART1_IRQHandler
 417              		.syntax unified
 418              		.thumb
 419              		.thumb_func
 421              	USART1_IRQHandler:
 422              	.LFB1277:
 304:Core/Src/stm32wbxx_it.c **** 
 305:Core/Src/stm32wbxx_it.c **** /**
 306:Core/Src/stm32wbxx_it.c ****   * @brief This function handles USART1 global interrupt.
 307:Core/Src/stm32wbxx_it.c ****   */
 308:Core/Src/stm32wbxx_it.c **** void USART1_IRQHandler(void)
 309:Core/Src/stm32wbxx_it.c **** {
 423              		.loc 1 309 1 is_stmt 1 view -0
 424              		.cfi_startproc
 425              		@ args = 0, pretend = 0, frame = 0
 426              		@ frame_needed = 0, uses_anonymous_args = 0
 427 0000 08B5     		push	{r3, lr}
 428              	.LCFI7:
 429              		.cfi_def_cfa_offset 8
 430              		.cfi_offset 3, -8
 431              		.cfi_offset 14, -4
 310:Core/Src/stm32wbxx_it.c ****   /* USER CODE BEGIN USART1_IRQn 0 */
 311:Core/Src/stm32wbxx_it.c **** 
 312:Core/Src/stm32wbxx_it.c ****   /* USER CODE END USART1_IRQn 0 */
 313:Core/Src/stm32wbxx_it.c ****   HAL_UART_IRQHandler(&huart1);
 432              		.loc 1 313 3 view .LVU50
 433 0002 0248     		ldr	r0, .L39
 434 0004 FFF7FEFF 		bl	HAL_UART_IRQHandler
 435              	.LVL7:
 314:Core/Src/stm32wbxx_it.c ****   /* USER CODE BEGIN USART1_IRQn 1 */
 315:Core/Src/stm32wbxx_it.c **** 
 316:Core/Src/stm32wbxx_it.c ****   /* USER CODE END USART1_IRQn 1 */
 317:Core/Src/stm32wbxx_it.c **** }
 436              		.loc 1 317 1 is_stmt 0 view .LVU51
 437 0008 08BD     		pop	{r3, pc}
 438              	.L40:
 439 000a 00BF     		.align	2
 440              	.L39:
 441 000c 00000000 		.word	huart1
 442              		.cfi_endproc
 443              	.LFE1277:
 445              		.section	.text.LPUART1_IRQHandler,"ax",%progbits
 446              		.align	1
 447              		.global	LPUART1_IRQHandler
 448              		.syntax unified
 449              		.thumb
 450              		.thumb_func
 452              	LPUART1_IRQHandler:
 453              	.LFB1278:
 318:Core/Src/stm32wbxx_it.c **** 
ARM GAS  C:\Users\bku598\AppData\Local\Temp\cc4wxpa0.s 			page 14


 319:Core/Src/stm32wbxx_it.c **** /**
 320:Core/Src/stm32wbxx_it.c ****   * @brief This function handles LPUART1 global interrupt.
 321:Core/Src/stm32wbxx_it.c ****   */
 322:Core/Src/stm32wbxx_it.c **** void LPUART1_IRQHandler(void)
 323:Core/Src/stm32wbxx_it.c **** {
 454              		.loc 1 323 1 is_stmt 1 view -0
 455              		.cfi_startproc
 456              		@ args = 0, pretend = 0, frame = 0
 457              		@ frame_needed = 0, uses_anonymous_args = 0
 458 0000 08B5     		push	{r3, lr}
 459              	.LCFI8:
 460              		.cfi_def_cfa_offset 8
 461              		.cfi_offset 3, -8
 462              		.cfi_offset 14, -4
 324:Core/Src/stm32wbxx_it.c ****   /* USER CODE BEGIN LPUART1_IRQn 0 */
 325:Core/Src/stm32wbxx_it.c **** 
 326:Core/Src/stm32wbxx_it.c ****   /* USER CODE END LPUART1_IRQn 0 */
 327:Core/Src/stm32wbxx_it.c ****   HAL_UART_IRQHandler(&hlpuart1);
 463              		.loc 1 327 3 view .LVU53
 464 0002 0448     		ldr	r0, .L43
 465 0004 FFF7FEFF 		bl	HAL_UART_IRQHandler
 466              	.LVL8:
 328:Core/Src/stm32wbxx_it.c ****   /* USER CODE BEGIN LPUART1_IRQn 1 */
 329:Core/Src/stm32wbxx_it.c ****   HAL_GPIO_TogglePin(GPIOB, LED_B_Pin);
 467              		.loc 1 329 3 view .LVU54
 468 0008 1021     		movs	r1, #16
 469 000a 0348     		ldr	r0, .L43+4
 470 000c FFF7FEFF 		bl	HAL_GPIO_TogglePin
 471              	.LVL9:
 330:Core/Src/stm32wbxx_it.c **** 
 331:Core/Src/stm32wbxx_it.c ****   /* USER CODE END LPUART1_IRQn 1 */
 332:Core/Src/stm32wbxx_it.c **** }
 472              		.loc 1 332 1 is_stmt 0 view .LVU55
 473 0010 08BD     		pop	{r3, pc}
 474              	.L44:
 475 0012 00BF     		.align	2
 476              	.L43:
 477 0014 00000000 		.word	hlpuart1
 478 0018 00040048 		.word	1207960576
 479              		.cfi_endproc
 480              	.LFE1278:
 482              		.section	.text.IPCC_C1_RX_IRQHandler,"ax",%progbits
 483              		.align	1
 484              		.global	IPCC_C1_RX_IRQHandler
 485              		.syntax unified
 486              		.thumb
 487              		.thumb_func
 489              	IPCC_C1_RX_IRQHandler:
 490              	.LFB1279:
 333:Core/Src/stm32wbxx_it.c **** 
 334:Core/Src/stm32wbxx_it.c **** /**
 335:Core/Src/stm32wbxx_it.c ****   * @brief This function handles IPCC RX occupied interrupt.
 336:Core/Src/stm32wbxx_it.c ****   */
 337:Core/Src/stm32wbxx_it.c **** void IPCC_C1_RX_IRQHandler(void)
 338:Core/Src/stm32wbxx_it.c **** {
 491              		.loc 1 338 1 is_stmt 1 view -0
 492              		.cfi_startproc
ARM GAS  C:\Users\bku598\AppData\Local\Temp\cc4wxpa0.s 			page 15


 493              		@ args = 0, pretend = 0, frame = 0
 494              		@ frame_needed = 0, uses_anonymous_args = 0
 495 0000 08B5     		push	{r3, lr}
 496              	.LCFI9:
 497              		.cfi_def_cfa_offset 8
 498              		.cfi_offset 3, -8
 499              		.cfi_offset 14, -4
 339:Core/Src/stm32wbxx_it.c ****   /* USER CODE BEGIN IPCC_C1_RX_IRQn 0 */
 340:Core/Src/stm32wbxx_it.c **** 
 341:Core/Src/stm32wbxx_it.c ****   /* USER CODE END IPCC_C1_RX_IRQn 0 */
 342:Core/Src/stm32wbxx_it.c ****   HAL_IPCC_RX_IRQHandler(&hipcc);
 500              		.loc 1 342 3 view .LVU57
 501 0002 FFF7FEFF 		bl	HW_IPCC_Rx_Handler
 502              	.LVL10:
 343:Core/Src/stm32wbxx_it.c ****   /* USER CODE BEGIN IPCC_C1_RX_IRQn 1 */
 344:Core/Src/stm32wbxx_it.c **** 
 345:Core/Src/stm32wbxx_it.c ****   /* USER CODE END IPCC_C1_RX_IRQn 1 */
 346:Core/Src/stm32wbxx_it.c **** }
 503              		.loc 1 346 1 is_stmt 0 view .LVU58
 504 0006 08BD     		pop	{r3, pc}
 505              		.cfi_endproc
 506              	.LFE1279:
 508              		.section	.text.IPCC_C1_TX_IRQHandler,"ax",%progbits
 509              		.align	1
 510              		.global	IPCC_C1_TX_IRQHandler
 511              		.syntax unified
 512              		.thumb
 513              		.thumb_func
 515              	IPCC_C1_TX_IRQHandler:
 516              	.LFB1280:
 347:Core/Src/stm32wbxx_it.c **** 
 348:Core/Src/stm32wbxx_it.c **** /**
 349:Core/Src/stm32wbxx_it.c ****   * @brief This function handles IPCC TX free interrupt.
 350:Core/Src/stm32wbxx_it.c ****   */
 351:Core/Src/stm32wbxx_it.c **** void IPCC_C1_TX_IRQHandler(void)
 352:Core/Src/stm32wbxx_it.c **** {
 517              		.loc 1 352 1 is_stmt 1 view -0
 518              		.cfi_startproc
 519              		@ args = 0, pretend = 0, frame = 0
 520              		@ frame_needed = 0, uses_anonymous_args = 0
 521 0000 08B5     		push	{r3, lr}
 522              	.LCFI10:
 523              		.cfi_def_cfa_offset 8
 524              		.cfi_offset 3, -8
 525              		.cfi_offset 14, -4
 353:Core/Src/stm32wbxx_it.c ****   /* USER CODE BEGIN IPCC_C1_TX_IRQn 0 */
 354:Core/Src/stm32wbxx_it.c **** 
 355:Core/Src/stm32wbxx_it.c ****   /* USER CODE END IPCC_C1_TX_IRQn 0 */
 356:Core/Src/stm32wbxx_it.c ****   HAL_IPCC_TX_IRQHandler(&hipcc);
 526              		.loc 1 356 3 view .LVU60
 527 0002 FFF7FEFF 		bl	HW_IPCC_Tx_Handler
 528              	.LVL11:
 357:Core/Src/stm32wbxx_it.c ****   /* USER CODE BEGIN IPCC_C1_TX_IRQn 1 */
 358:Core/Src/stm32wbxx_it.c **** 
 359:Core/Src/stm32wbxx_it.c ****   /* USER CODE END IPCC_C1_TX_IRQn 1 */
 360:Core/Src/stm32wbxx_it.c **** }
 529              		.loc 1 360 1 is_stmt 0 view .LVU61
ARM GAS  C:\Users\bku598\AppData\Local\Temp\cc4wxpa0.s 			page 16


 530 0006 08BD     		pop	{r3, pc}
 531              		.cfi_endproc
 532              	.LFE1280:
 534              		.section	.text.HSEM_IRQHandler,"ax",%progbits
 535              		.align	1
 536              		.global	HSEM_IRQHandler
 537              		.syntax unified
 538              		.thumb
 539              		.thumb_func
 541              	HSEM_IRQHandler:
 542              	.LFB1281:
 361:Core/Src/stm32wbxx_it.c **** 
 362:Core/Src/stm32wbxx_it.c **** /**
 363:Core/Src/stm32wbxx_it.c ****   * @brief This function handles HSEM global interrupt.
 364:Core/Src/stm32wbxx_it.c ****   */
 365:Core/Src/stm32wbxx_it.c **** void HSEM_IRQHandler(void)
 366:Core/Src/stm32wbxx_it.c **** {
 543              		.loc 1 366 1 is_stmt 1 view -0
 544              		.cfi_startproc
 545              		@ args = 0, pretend = 0, frame = 0
 546              		@ frame_needed = 0, uses_anonymous_args = 0
 547 0000 08B5     		push	{r3, lr}
 548              	.LCFI11:
 549              		.cfi_def_cfa_offset 8
 550              		.cfi_offset 3, -8
 551              		.cfi_offset 14, -4
 367:Core/Src/stm32wbxx_it.c ****   /* USER CODE BEGIN HSEM_IRQn 0 */
 368:Core/Src/stm32wbxx_it.c **** 
 369:Core/Src/stm32wbxx_it.c ****   /* USER CODE END HSEM_IRQn 0 */
 370:Core/Src/stm32wbxx_it.c ****   HAL_HSEM_IRQHandler();
 552              		.loc 1 370 3 view .LVU63
 553 0002 FFF7FEFF 		bl	HAL_HSEM_IRQHandler
 554              	.LVL12:
 371:Core/Src/stm32wbxx_it.c ****   /* USER CODE BEGIN HSEM_IRQn 1 */
 372:Core/Src/stm32wbxx_it.c **** 
 373:Core/Src/stm32wbxx_it.c ****   /* USER CODE END HSEM_IRQn 1 */
 374:Core/Src/stm32wbxx_it.c **** }
 555              		.loc 1 374 1 is_stmt 0 view .LVU64
 556 0006 08BD     		pop	{r3, pc}
 557              		.cfi_endproc
 558              	.LFE1281:
 560              		.section	.text.QUADSPI_IRQHandler,"ax",%progbits
 561              		.align	1
 562              		.global	QUADSPI_IRQHandler
 563              		.syntax unified
 564              		.thumb
 565              		.thumb_func
 567              	QUADSPI_IRQHandler:
 568              	.LFB1282:
 375:Core/Src/stm32wbxx_it.c **** 
 376:Core/Src/stm32wbxx_it.c **** /**
 377:Core/Src/stm32wbxx_it.c ****   * @brief This function handles QUADSPI global interrupt.
 378:Core/Src/stm32wbxx_it.c ****   */
 379:Core/Src/stm32wbxx_it.c **** void QUADSPI_IRQHandler(void)
 380:Core/Src/stm32wbxx_it.c **** {
 569              		.loc 1 380 1 is_stmt 1 view -0
 570              		.cfi_startproc
ARM GAS  C:\Users\bku598\AppData\Local\Temp\cc4wxpa0.s 			page 17


 571              		@ args = 0, pretend = 0, frame = 0
 572              		@ frame_needed = 0, uses_anonymous_args = 0
 573 0000 08B5     		push	{r3, lr}
 574              	.LCFI12:
 575              		.cfi_def_cfa_offset 8
 576              		.cfi_offset 3, -8
 577              		.cfi_offset 14, -4
 381:Core/Src/stm32wbxx_it.c ****   /* USER CODE BEGIN QUADSPI_IRQn 0 */
 382:Core/Src/stm32wbxx_it.c **** 
 383:Core/Src/stm32wbxx_it.c ****   /* USER CODE END QUADSPI_IRQn 0 */
 384:Core/Src/stm32wbxx_it.c ****   HAL_QSPI_IRQHandler(&hqspi);
 578              		.loc 1 384 3 view .LVU66
 579 0002 0248     		ldr	r0, .L53
 580 0004 FFF7FEFF 		bl	HAL_QSPI_IRQHandler
 581              	.LVL13:
 385:Core/Src/stm32wbxx_it.c ****   /* USER CODE BEGIN QUADSPI_IRQn 1 */
 386:Core/Src/stm32wbxx_it.c **** 
 387:Core/Src/stm32wbxx_it.c ****   /* USER CODE END QUADSPI_IRQn 1 */
 388:Core/Src/stm32wbxx_it.c **** }
 582              		.loc 1 388 1 is_stmt 0 view .LVU67
 583 0008 08BD     		pop	{r3, pc}
 584              	.L54:
 585 000a 00BF     		.align	2
 586              	.L53:
 587 000c 00000000 		.word	hqspi
 588              		.cfi_endproc
 589              	.LFE1282:
 591              		.text
 592              	.Letext0:
 593              		.file 2 "C:\\dev\\tools\\gcc-arm-none-eabi-13.3\\bin\\../lib/gcc/arm-none-eabi/13.3.1/../../../../
 594              		.file 3 "C:\\dev\\tools\\gcc-arm-none-eabi-13.3\\bin\\../lib/gcc/arm-none-eabi/13.3.1/../../../../
 595              		.file 4 "Drivers/CMSIS/Device/ST/STM32WBxx/Include/stm32wb55xx.h"
 596              		.file 5 "Drivers/STM32WBxx_HAL_Driver/Inc/stm32wbxx_hal_def.h"
 597              		.file 6 "Drivers/STM32WBxx_HAL_Driver/Inc/stm32wbxx_hal_dma.h"
 598              		.file 7 "Drivers/STM32WBxx_HAL_Driver/Inc/stm32wbxx_hal_i2c.h"
 599              		.file 8 "Drivers/STM32WBxx_HAL_Driver/Inc/stm32wbxx_hal_qspi.h"
 600              		.file 9 "Drivers/STM32WBxx_HAL_Driver/Inc/stm32wbxx_hal_tim.h"
 601              		.file 10 "Drivers/STM32WBxx_HAL_Driver/Inc/stm32wbxx_hal_uart.h"
 602              		.file 11 "Core/Inc/bmi270.h"
 603              		.file 12 "Core/Inc/flash.h"
 604              		.file 13 "Drivers/STM32WBxx_HAL_Driver/Inc/stm32wbxx_hal_hsem.h"
 605              		.file 14 "Middlewares/ST/STM32_WPAN/interface/patterns/ble_thread/hw.h"
 606              		.file 15 "Drivers/STM32WBxx_HAL_Driver/Inc/stm32wbxx_hal_gpio.h"
 607              		.file 16 "Core/Inc/hw_if.h"
 608              		.file 17 "Drivers/STM32WBxx_HAL_Driver/Inc/stm32wbxx_hal.h"
ARM GAS  C:\Users\bku598\AppData\Local\Temp\cc4wxpa0.s 			page 18

