ARM GAS  C:\Users\bku598\AppData\Local\Temp\ccYQV0lk.s 			page 1


   1              		.cpu cortex-m4
   2              		.arch armv7e-m
   3              		.fpu fpv4-sp-d16
   4              		.eabi_attribute 27, 1
   5              		.eabi_attribute 28, 1
   6              		.eabi_attribute 20, 1
   7              		.eabi_attribute 21, 1
   8              		.eabi_attribute 23, 3
   9              		.eabi_attribute 24, 1
  10              		.eabi_attribute 25, 1
  11              		.eabi_attribute 26, 1
  12              		.eabi_attribute 30, 1
  13              		.eabi_attribute 34, 1
  14              		.eabi_attribute 18, 4
  15              		.file	"stm32wbxx_hal_ipcc.c"
  16              		.text
  17              	.Ltext0:
  18              		.cfi_sections	.debug_frame
  19              		.file 1 "Drivers/STM32WBxx_HAL_Driver/Src/stm32wbxx_hal_ipcc.c"
  20              		.section	.text.HAL_IPCC_RxCallback,"ax",%progbits
  21              		.align	1
  22              		.weak	HAL_IPCC_RxCallback
  23              		.syntax unified
  24              		.thumb
  25              		.thumb_func
  27              	HAL_IPCC_RxCallback:
  28              	.LVL0:
  29              	.LFB960:
   1:Drivers/STM32WBxx_HAL_Driver/Src/stm32wbxx_hal_ipcc.c **** /**
   2:Drivers/STM32WBxx_HAL_Driver/Src/stm32wbxx_hal_ipcc.c ****   ******************************************************************************
   3:Drivers/STM32WBxx_HAL_Driver/Src/stm32wbxx_hal_ipcc.c ****   * @file    stm32wbxx_hal_ipcc.c
   4:Drivers/STM32WBxx_HAL_Driver/Src/stm32wbxx_hal_ipcc.c ****   * @author  MCD Application Team
   5:Drivers/STM32WBxx_HAL_Driver/Src/stm32wbxx_hal_ipcc.c ****   * @brief   IPCC HAL module driver.
   6:Drivers/STM32WBxx_HAL_Driver/Src/stm32wbxx_hal_ipcc.c ****   *          This file provides firmware functions to manage the following
   7:Drivers/STM32WBxx_HAL_Driver/Src/stm32wbxx_hal_ipcc.c ****   *          functionalities of the Inter-Processor communication controller
   8:Drivers/STM32WBxx_HAL_Driver/Src/stm32wbxx_hal_ipcc.c ****   *          peripherals (IPCC).
   9:Drivers/STM32WBxx_HAL_Driver/Src/stm32wbxx_hal_ipcc.c ****   *           + Initialization and de-initialization functions
  10:Drivers/STM32WBxx_HAL_Driver/Src/stm32wbxx_hal_ipcc.c ****   *           + Configuration, notification and interrupts handling
  11:Drivers/STM32WBxx_HAL_Driver/Src/stm32wbxx_hal_ipcc.c ****   *           + Peripheral State and Error functions
  12:Drivers/STM32WBxx_HAL_Driver/Src/stm32wbxx_hal_ipcc.c ****   ******************************************************************************
  13:Drivers/STM32WBxx_HAL_Driver/Src/stm32wbxx_hal_ipcc.c ****   * @attention
  14:Drivers/STM32WBxx_HAL_Driver/Src/stm32wbxx_hal_ipcc.c ****   *
  15:Drivers/STM32WBxx_HAL_Driver/Src/stm32wbxx_hal_ipcc.c ****   * Copyright (c) 2019 STMicroelectronics.
  16:Drivers/STM32WBxx_HAL_Driver/Src/stm32wbxx_hal_ipcc.c ****   * All rights reserved.
  17:Drivers/STM32WBxx_HAL_Driver/Src/stm32wbxx_hal_ipcc.c ****   *
  18:Drivers/STM32WBxx_HAL_Driver/Src/stm32wbxx_hal_ipcc.c ****   * This software is licensed under terms that can be found in the LICENSE file
  19:Drivers/STM32WBxx_HAL_Driver/Src/stm32wbxx_hal_ipcc.c ****   * in the root directory of this software component.
  20:Drivers/STM32WBxx_HAL_Driver/Src/stm32wbxx_hal_ipcc.c ****   * If no LICENSE file comes with this software, it is provided AS-IS.
  21:Drivers/STM32WBxx_HAL_Driver/Src/stm32wbxx_hal_ipcc.c ****   *
  22:Drivers/STM32WBxx_HAL_Driver/Src/stm32wbxx_hal_ipcc.c ****   ******************************************************************************
  23:Drivers/STM32WBxx_HAL_Driver/Src/stm32wbxx_hal_ipcc.c ****   @verbatim
  24:Drivers/STM32WBxx_HAL_Driver/Src/stm32wbxx_hal_ipcc.c ****   ==============================================================================
  25:Drivers/STM32WBxx_HAL_Driver/Src/stm32wbxx_hal_ipcc.c ****                         ##### How to use this driver #####
  26:Drivers/STM32WBxx_HAL_Driver/Src/stm32wbxx_hal_ipcc.c ****   ==============================================================================
  27:Drivers/STM32WBxx_HAL_Driver/Src/stm32wbxx_hal_ipcc.c ****     [..]
  28:Drivers/STM32WBxx_HAL_Driver/Src/stm32wbxx_hal_ipcc.c ****       The IPCC HAL driver can be used as follows:
  29:Drivers/STM32WBxx_HAL_Driver/Src/stm32wbxx_hal_ipcc.c **** 
ARM GAS  C:\Users\bku598\AppData\Local\Temp\ccYQV0lk.s 			page 2


  30:Drivers/STM32WBxx_HAL_Driver/Src/stm32wbxx_hal_ipcc.c ****       (#) Declare a IPCC_HandleTypeDef handle structure, for example: IPCC_HandleTypeDef hipcc;
  31:Drivers/STM32WBxx_HAL_Driver/Src/stm32wbxx_hal_ipcc.c ****       (#) Initialize the IPCC low level resources by implementing the HAL_IPCC_MspInit() API:
  32:Drivers/STM32WBxx_HAL_Driver/Src/stm32wbxx_hal_ipcc.c ****         (##) Enable the IPCC interface clock
  33:Drivers/STM32WBxx_HAL_Driver/Src/stm32wbxx_hal_ipcc.c ****         (##) NVIC configuration if you need to use interrupt process
  34:Drivers/STM32WBxx_HAL_Driver/Src/stm32wbxx_hal_ipcc.c ****             (+++) Configure the IPCC interrupt priority
  35:Drivers/STM32WBxx_HAL_Driver/Src/stm32wbxx_hal_ipcc.c ****             (+++) Enable the NVIC IPCC IRQ
  36:Drivers/STM32WBxx_HAL_Driver/Src/stm32wbxx_hal_ipcc.c **** 
  37:Drivers/STM32WBxx_HAL_Driver/Src/stm32wbxx_hal_ipcc.c ****       (#) Initialize the IPCC registers by calling the HAL_IPCC_Init() API which trig
  38:Drivers/STM32WBxx_HAL_Driver/Src/stm32wbxx_hal_ipcc.c ****           HAL_IPCC_MspInit().
  39:Drivers/STM32WBxx_HAL_Driver/Src/stm32wbxx_hal_ipcc.c **** 
  40:Drivers/STM32WBxx_HAL_Driver/Src/stm32wbxx_hal_ipcc.c ****       (#) Implement the interrupt callbacks for transmission and reception to use the driver in int
  41:Drivers/STM32WBxx_HAL_Driver/Src/stm32wbxx_hal_ipcc.c **** 
  42:Drivers/STM32WBxx_HAL_Driver/Src/stm32wbxx_hal_ipcc.c ****       (#) Associate those callback to the corresponding channel and direction using HAL_IPCC_Config
  43:Drivers/STM32WBxx_HAL_Driver/Src/stm32wbxx_hal_ipcc.c ****           This is the interrupt mode.
  44:Drivers/STM32WBxx_HAL_Driver/Src/stm32wbxx_hal_ipcc.c ****           If no callback are configured for a given channel and direction, it is up to the user to 
  45:Drivers/STM32WBxx_HAL_Driver/Src/stm32wbxx_hal_ipcc.c ****           status of the communication (polling mode).
  46:Drivers/STM32WBxx_HAL_Driver/Src/stm32wbxx_hal_ipcc.c **** 
  47:Drivers/STM32WBxx_HAL_Driver/Src/stm32wbxx_hal_ipcc.c ****       (#) Notify the other MCU when a message is available in a chosen channel
  48:Drivers/STM32WBxx_HAL_Driver/Src/stm32wbxx_hal_ipcc.c ****           or when a message has been retrieved from a chosen channel by calling
  49:Drivers/STM32WBxx_HAL_Driver/Src/stm32wbxx_hal_ipcc.c ****           the HAL_IPCC_NotifyCPU() API.
  50:Drivers/STM32WBxx_HAL_Driver/Src/stm32wbxx_hal_ipcc.c **** 
  51:Drivers/STM32WBxx_HAL_Driver/Src/stm32wbxx_hal_ipcc.c **** @endverbatim
  52:Drivers/STM32WBxx_HAL_Driver/Src/stm32wbxx_hal_ipcc.c ****   ******************************************************************************
  53:Drivers/STM32WBxx_HAL_Driver/Src/stm32wbxx_hal_ipcc.c ****   */
  54:Drivers/STM32WBxx_HAL_Driver/Src/stm32wbxx_hal_ipcc.c **** 
  55:Drivers/STM32WBxx_HAL_Driver/Src/stm32wbxx_hal_ipcc.c **** /* Includes ------------------------------------------------------------------*/
  56:Drivers/STM32WBxx_HAL_Driver/Src/stm32wbxx_hal_ipcc.c **** #include "stm32wbxx_hal.h"
  57:Drivers/STM32WBxx_HAL_Driver/Src/stm32wbxx_hal_ipcc.c **** 
  58:Drivers/STM32WBxx_HAL_Driver/Src/stm32wbxx_hal_ipcc.c **** #if defined(IPCC)
  59:Drivers/STM32WBxx_HAL_Driver/Src/stm32wbxx_hal_ipcc.c **** /** @addtogroup STM32WBxx_HAL_Driver
  60:Drivers/STM32WBxx_HAL_Driver/Src/stm32wbxx_hal_ipcc.c ****   * @{
  61:Drivers/STM32WBxx_HAL_Driver/Src/stm32wbxx_hal_ipcc.c ****   */
  62:Drivers/STM32WBxx_HAL_Driver/Src/stm32wbxx_hal_ipcc.c **** 
  63:Drivers/STM32WBxx_HAL_Driver/Src/stm32wbxx_hal_ipcc.c **** /** @addtogroup IPCC
  64:Drivers/STM32WBxx_HAL_Driver/Src/stm32wbxx_hal_ipcc.c ****   * @{
  65:Drivers/STM32WBxx_HAL_Driver/Src/stm32wbxx_hal_ipcc.c ****   */
  66:Drivers/STM32WBxx_HAL_Driver/Src/stm32wbxx_hal_ipcc.c **** 
  67:Drivers/STM32WBxx_HAL_Driver/Src/stm32wbxx_hal_ipcc.c **** #ifdef HAL_IPCC_MODULE_ENABLED
  68:Drivers/STM32WBxx_HAL_Driver/Src/stm32wbxx_hal_ipcc.c **** 
  69:Drivers/STM32WBxx_HAL_Driver/Src/stm32wbxx_hal_ipcc.c **** /* Private typedef -----------------------------------------------------------*/
  70:Drivers/STM32WBxx_HAL_Driver/Src/stm32wbxx_hal_ipcc.c **** /* Private define ------------------------------------------------------------*/
  71:Drivers/STM32WBxx_HAL_Driver/Src/stm32wbxx_hal_ipcc.c **** /** @defgroup IPCC_Private_Constants IPCC Private Constants
  72:Drivers/STM32WBxx_HAL_Driver/Src/stm32wbxx_hal_ipcc.c ****   * @{
  73:Drivers/STM32WBxx_HAL_Driver/Src/stm32wbxx_hal_ipcc.c ****   */
  74:Drivers/STM32WBxx_HAL_Driver/Src/stm32wbxx_hal_ipcc.c **** #define IPCC_ALL_RX_BUF 0x0000003FU /*!< Mask for all RX buffers. */
  75:Drivers/STM32WBxx_HAL_Driver/Src/stm32wbxx_hal_ipcc.c **** #define IPCC_ALL_TX_BUF 0x003F0000U /*!< Mask for all TX buffers. */
  76:Drivers/STM32WBxx_HAL_Driver/Src/stm32wbxx_hal_ipcc.c **** #define CHANNEL_INDEX_MASK 0x0000000FU /*!< Mask the channel index to avoid overflow */
  77:Drivers/STM32WBxx_HAL_Driver/Src/stm32wbxx_hal_ipcc.c **** /**
  78:Drivers/STM32WBxx_HAL_Driver/Src/stm32wbxx_hal_ipcc.c ****   * @}
  79:Drivers/STM32WBxx_HAL_Driver/Src/stm32wbxx_hal_ipcc.c ****   */
  80:Drivers/STM32WBxx_HAL_Driver/Src/stm32wbxx_hal_ipcc.c **** 
  81:Drivers/STM32WBxx_HAL_Driver/Src/stm32wbxx_hal_ipcc.c **** /* Private macros ------------------------------------------------------------*/
  82:Drivers/STM32WBxx_HAL_Driver/Src/stm32wbxx_hal_ipcc.c **** /* Private variables ---------------------------------------------------------*/
  83:Drivers/STM32WBxx_HAL_Driver/Src/stm32wbxx_hal_ipcc.c **** /* Private function prototypes -----------------------------------------------*/
  84:Drivers/STM32WBxx_HAL_Driver/Src/stm32wbxx_hal_ipcc.c **** /** @defgroup IPCC_Private_Functions IPCC Private Functions
  85:Drivers/STM32WBxx_HAL_Driver/Src/stm32wbxx_hal_ipcc.c ****   * @{
  86:Drivers/STM32WBxx_HAL_Driver/Src/stm32wbxx_hal_ipcc.c ****   */
ARM GAS  C:\Users\bku598\AppData\Local\Temp\ccYQV0lk.s 			page 3


  87:Drivers/STM32WBxx_HAL_Driver/Src/stm32wbxx_hal_ipcc.c **** void IPCC_MaskInterrupt(uint32_t ChannelIndex, IPCC_CHANNELDirTypeDef ChannelDir);
  88:Drivers/STM32WBxx_HAL_Driver/Src/stm32wbxx_hal_ipcc.c **** void IPCC_UnmaskInterrupt(uint32_t ChannelIndex, IPCC_CHANNELDirTypeDef ChannelDir);
  89:Drivers/STM32WBxx_HAL_Driver/Src/stm32wbxx_hal_ipcc.c **** void IPCC_SetDefaultCallbacks(IPCC_HandleTypeDef *hipcc);
  90:Drivers/STM32WBxx_HAL_Driver/Src/stm32wbxx_hal_ipcc.c **** void IPCC_Reset_Register(IPCC_CommonTypeDef *Instance);
  91:Drivers/STM32WBxx_HAL_Driver/Src/stm32wbxx_hal_ipcc.c **** /**
  92:Drivers/STM32WBxx_HAL_Driver/Src/stm32wbxx_hal_ipcc.c ****   * @}
  93:Drivers/STM32WBxx_HAL_Driver/Src/stm32wbxx_hal_ipcc.c ****   */
  94:Drivers/STM32WBxx_HAL_Driver/Src/stm32wbxx_hal_ipcc.c **** 
  95:Drivers/STM32WBxx_HAL_Driver/Src/stm32wbxx_hal_ipcc.c **** /** @addtogroup IPCC_Exported_Functions
  96:Drivers/STM32WBxx_HAL_Driver/Src/stm32wbxx_hal_ipcc.c ****   * @{
  97:Drivers/STM32WBxx_HAL_Driver/Src/stm32wbxx_hal_ipcc.c ****   */
  98:Drivers/STM32WBxx_HAL_Driver/Src/stm32wbxx_hal_ipcc.c **** 
  99:Drivers/STM32WBxx_HAL_Driver/Src/stm32wbxx_hal_ipcc.c **** /** @addtogroup IPCC_Exported_Functions_Group1
 100:Drivers/STM32WBxx_HAL_Driver/Src/stm32wbxx_hal_ipcc.c ****   *  @brief    Initialization and de-initialization functions
 101:Drivers/STM32WBxx_HAL_Driver/Src/stm32wbxx_hal_ipcc.c ****   *
 102:Drivers/STM32WBxx_HAL_Driver/Src/stm32wbxx_hal_ipcc.c **** @verbatim
 103:Drivers/STM32WBxx_HAL_Driver/Src/stm32wbxx_hal_ipcc.c ****  ===============================================================================
 104:Drivers/STM32WBxx_HAL_Driver/Src/stm32wbxx_hal_ipcc.c ****              ##### Initialization and de-initialization functions  #####
 105:Drivers/STM32WBxx_HAL_Driver/Src/stm32wbxx_hal_ipcc.c ****  ===============================================================================
 106:Drivers/STM32WBxx_HAL_Driver/Src/stm32wbxx_hal_ipcc.c ****     [..]  This subsection provides a set of functions allowing to initialize and
 107:Drivers/STM32WBxx_HAL_Driver/Src/stm32wbxx_hal_ipcc.c ****           deinitialize the IPCC peripheral:
 108:Drivers/STM32WBxx_HAL_Driver/Src/stm32wbxx_hal_ipcc.c **** 
 109:Drivers/STM32WBxx_HAL_Driver/Src/stm32wbxx_hal_ipcc.c ****       (+) User must Implement HAL_IPCC_MspInit() function in which he configures
 110:Drivers/STM32WBxx_HAL_Driver/Src/stm32wbxx_hal_ipcc.c ****           all related peripherals resources (CLOCK and NVIC ).
 111:Drivers/STM32WBxx_HAL_Driver/Src/stm32wbxx_hal_ipcc.c **** 
 112:Drivers/STM32WBxx_HAL_Driver/Src/stm32wbxx_hal_ipcc.c ****       (+) Call the function HAL_IPCC_Init() to configure the IPCC register.
 113:Drivers/STM32WBxx_HAL_Driver/Src/stm32wbxx_hal_ipcc.c **** 
 114:Drivers/STM32WBxx_HAL_Driver/Src/stm32wbxx_hal_ipcc.c ****       (+) Call the function HAL_PKA_DeInit() to restore the default configuration
 115:Drivers/STM32WBxx_HAL_Driver/Src/stm32wbxx_hal_ipcc.c ****           of the selected IPCC peripheral.
 116:Drivers/STM32WBxx_HAL_Driver/Src/stm32wbxx_hal_ipcc.c **** 
 117:Drivers/STM32WBxx_HAL_Driver/Src/stm32wbxx_hal_ipcc.c **** @endverbatim
 118:Drivers/STM32WBxx_HAL_Driver/Src/stm32wbxx_hal_ipcc.c ****   * @{
 119:Drivers/STM32WBxx_HAL_Driver/Src/stm32wbxx_hal_ipcc.c ****   */
 120:Drivers/STM32WBxx_HAL_Driver/Src/stm32wbxx_hal_ipcc.c **** 
 121:Drivers/STM32WBxx_HAL_Driver/Src/stm32wbxx_hal_ipcc.c **** /**
 122:Drivers/STM32WBxx_HAL_Driver/Src/stm32wbxx_hal_ipcc.c ****   * @brief  Initialize the IPCC peripheral.
 123:Drivers/STM32WBxx_HAL_Driver/Src/stm32wbxx_hal_ipcc.c ****   * @param  hipcc IPCC handle
 124:Drivers/STM32WBxx_HAL_Driver/Src/stm32wbxx_hal_ipcc.c ****   * @retval HAL status
 125:Drivers/STM32WBxx_HAL_Driver/Src/stm32wbxx_hal_ipcc.c ****   */
 126:Drivers/STM32WBxx_HAL_Driver/Src/stm32wbxx_hal_ipcc.c **** HAL_StatusTypeDef HAL_IPCC_Init(IPCC_HandleTypeDef *hipcc)
 127:Drivers/STM32WBxx_HAL_Driver/Src/stm32wbxx_hal_ipcc.c **** {
 128:Drivers/STM32WBxx_HAL_Driver/Src/stm32wbxx_hal_ipcc.c ****   HAL_StatusTypeDef err = HAL_OK;
 129:Drivers/STM32WBxx_HAL_Driver/Src/stm32wbxx_hal_ipcc.c **** 
 130:Drivers/STM32WBxx_HAL_Driver/Src/stm32wbxx_hal_ipcc.c ****   /* Check the IPCC handle allocation */
 131:Drivers/STM32WBxx_HAL_Driver/Src/stm32wbxx_hal_ipcc.c ****   if (hipcc != NULL)
 132:Drivers/STM32WBxx_HAL_Driver/Src/stm32wbxx_hal_ipcc.c ****   {
 133:Drivers/STM32WBxx_HAL_Driver/Src/stm32wbxx_hal_ipcc.c ****     /* Check the parameters */
 134:Drivers/STM32WBxx_HAL_Driver/Src/stm32wbxx_hal_ipcc.c ****     assert_param(IS_IPCC_ALL_INSTANCE(hipcc->Instance));
 135:Drivers/STM32WBxx_HAL_Driver/Src/stm32wbxx_hal_ipcc.c **** 
 136:Drivers/STM32WBxx_HAL_Driver/Src/stm32wbxx_hal_ipcc.c ****     IPCC_CommonTypeDef *currentInstance = IPCC_C1;
 137:Drivers/STM32WBxx_HAL_Driver/Src/stm32wbxx_hal_ipcc.c **** 
 138:Drivers/STM32WBxx_HAL_Driver/Src/stm32wbxx_hal_ipcc.c ****     if (hipcc->State == HAL_IPCC_STATE_RESET)
 139:Drivers/STM32WBxx_HAL_Driver/Src/stm32wbxx_hal_ipcc.c ****     {
 140:Drivers/STM32WBxx_HAL_Driver/Src/stm32wbxx_hal_ipcc.c ****       /* Init the low level hardware : CLOCK, NVIC */
 141:Drivers/STM32WBxx_HAL_Driver/Src/stm32wbxx_hal_ipcc.c ****       HAL_IPCC_MspInit(hipcc);
 142:Drivers/STM32WBxx_HAL_Driver/Src/stm32wbxx_hal_ipcc.c ****     }
 143:Drivers/STM32WBxx_HAL_Driver/Src/stm32wbxx_hal_ipcc.c **** 
ARM GAS  C:\Users\bku598\AppData\Local\Temp\ccYQV0lk.s 			page 4


 144:Drivers/STM32WBxx_HAL_Driver/Src/stm32wbxx_hal_ipcc.c ****     /* Reset all registers of the current cpu to default state */
 145:Drivers/STM32WBxx_HAL_Driver/Src/stm32wbxx_hal_ipcc.c ****     IPCC_Reset_Register(currentInstance);
 146:Drivers/STM32WBxx_HAL_Driver/Src/stm32wbxx_hal_ipcc.c **** 
 147:Drivers/STM32WBxx_HAL_Driver/Src/stm32wbxx_hal_ipcc.c ****     /* Activate the interrupts */
 148:Drivers/STM32WBxx_HAL_Driver/Src/stm32wbxx_hal_ipcc.c ****     currentInstance->CR |= (IPCC_CR_RXOIE | IPCC_CR_TXFIE);
 149:Drivers/STM32WBxx_HAL_Driver/Src/stm32wbxx_hal_ipcc.c **** 
 150:Drivers/STM32WBxx_HAL_Driver/Src/stm32wbxx_hal_ipcc.c ****     /* Clear callback pointers */
 151:Drivers/STM32WBxx_HAL_Driver/Src/stm32wbxx_hal_ipcc.c ****     IPCC_SetDefaultCallbacks(hipcc);
 152:Drivers/STM32WBxx_HAL_Driver/Src/stm32wbxx_hal_ipcc.c **** 
 153:Drivers/STM32WBxx_HAL_Driver/Src/stm32wbxx_hal_ipcc.c ****     /* Reset all callback notification request */
 154:Drivers/STM32WBxx_HAL_Driver/Src/stm32wbxx_hal_ipcc.c ****     hipcc->callbackRequest = 0;
 155:Drivers/STM32WBxx_HAL_Driver/Src/stm32wbxx_hal_ipcc.c **** 
 156:Drivers/STM32WBxx_HAL_Driver/Src/stm32wbxx_hal_ipcc.c ****     hipcc->State = HAL_IPCC_STATE_READY;
 157:Drivers/STM32WBxx_HAL_Driver/Src/stm32wbxx_hal_ipcc.c ****   }
 158:Drivers/STM32WBxx_HAL_Driver/Src/stm32wbxx_hal_ipcc.c ****   else
 159:Drivers/STM32WBxx_HAL_Driver/Src/stm32wbxx_hal_ipcc.c ****   {
 160:Drivers/STM32WBxx_HAL_Driver/Src/stm32wbxx_hal_ipcc.c ****     err = HAL_ERROR;
 161:Drivers/STM32WBxx_HAL_Driver/Src/stm32wbxx_hal_ipcc.c ****   }
 162:Drivers/STM32WBxx_HAL_Driver/Src/stm32wbxx_hal_ipcc.c **** 
 163:Drivers/STM32WBxx_HAL_Driver/Src/stm32wbxx_hal_ipcc.c ****   return err;
 164:Drivers/STM32WBxx_HAL_Driver/Src/stm32wbxx_hal_ipcc.c **** }
 165:Drivers/STM32WBxx_HAL_Driver/Src/stm32wbxx_hal_ipcc.c **** 
 166:Drivers/STM32WBxx_HAL_Driver/Src/stm32wbxx_hal_ipcc.c **** /**
 167:Drivers/STM32WBxx_HAL_Driver/Src/stm32wbxx_hal_ipcc.c ****   * @brief  DeInitialize the IPCC peripheral.
 168:Drivers/STM32WBxx_HAL_Driver/Src/stm32wbxx_hal_ipcc.c ****   * @param  hipcc IPCC handle
 169:Drivers/STM32WBxx_HAL_Driver/Src/stm32wbxx_hal_ipcc.c ****   * @retval HAL status
 170:Drivers/STM32WBxx_HAL_Driver/Src/stm32wbxx_hal_ipcc.c ****   */
 171:Drivers/STM32WBxx_HAL_Driver/Src/stm32wbxx_hal_ipcc.c **** HAL_StatusTypeDef HAL_IPCC_DeInit(IPCC_HandleTypeDef *hipcc)
 172:Drivers/STM32WBxx_HAL_Driver/Src/stm32wbxx_hal_ipcc.c **** {
 173:Drivers/STM32WBxx_HAL_Driver/Src/stm32wbxx_hal_ipcc.c ****   HAL_StatusTypeDef err = HAL_OK;
 174:Drivers/STM32WBxx_HAL_Driver/Src/stm32wbxx_hal_ipcc.c **** 
 175:Drivers/STM32WBxx_HAL_Driver/Src/stm32wbxx_hal_ipcc.c ****   /* Check the IPCC handle allocation */
 176:Drivers/STM32WBxx_HAL_Driver/Src/stm32wbxx_hal_ipcc.c ****   if (hipcc != NULL)
 177:Drivers/STM32WBxx_HAL_Driver/Src/stm32wbxx_hal_ipcc.c ****   {
 178:Drivers/STM32WBxx_HAL_Driver/Src/stm32wbxx_hal_ipcc.c ****     assert_param(IS_IPCC_ALL_INSTANCE(hipcc->Instance));
 179:Drivers/STM32WBxx_HAL_Driver/Src/stm32wbxx_hal_ipcc.c ****     IPCC_CommonTypeDef *currentInstance = IPCC_C1;
 180:Drivers/STM32WBxx_HAL_Driver/Src/stm32wbxx_hal_ipcc.c **** 
 181:Drivers/STM32WBxx_HAL_Driver/Src/stm32wbxx_hal_ipcc.c ****     /* Set the state to busy */
 182:Drivers/STM32WBxx_HAL_Driver/Src/stm32wbxx_hal_ipcc.c ****     hipcc->State = HAL_IPCC_STATE_BUSY;
 183:Drivers/STM32WBxx_HAL_Driver/Src/stm32wbxx_hal_ipcc.c **** 
 184:Drivers/STM32WBxx_HAL_Driver/Src/stm32wbxx_hal_ipcc.c ****     /* Reset all registers of the current cpu to default state */
 185:Drivers/STM32WBxx_HAL_Driver/Src/stm32wbxx_hal_ipcc.c ****     IPCC_Reset_Register(currentInstance);
 186:Drivers/STM32WBxx_HAL_Driver/Src/stm32wbxx_hal_ipcc.c **** 
 187:Drivers/STM32WBxx_HAL_Driver/Src/stm32wbxx_hal_ipcc.c ****     /* Clear callback pointers */
 188:Drivers/STM32WBxx_HAL_Driver/Src/stm32wbxx_hal_ipcc.c ****     IPCC_SetDefaultCallbacks(hipcc);
 189:Drivers/STM32WBxx_HAL_Driver/Src/stm32wbxx_hal_ipcc.c **** 
 190:Drivers/STM32WBxx_HAL_Driver/Src/stm32wbxx_hal_ipcc.c ****     /* Reset all callback notification request */
 191:Drivers/STM32WBxx_HAL_Driver/Src/stm32wbxx_hal_ipcc.c ****     hipcc->callbackRequest = 0;
 192:Drivers/STM32WBxx_HAL_Driver/Src/stm32wbxx_hal_ipcc.c **** 
 193:Drivers/STM32WBxx_HAL_Driver/Src/stm32wbxx_hal_ipcc.c ****     /* DeInit the low level hardware : CLOCK, NVIC */
 194:Drivers/STM32WBxx_HAL_Driver/Src/stm32wbxx_hal_ipcc.c ****     HAL_IPCC_MspDeInit(hipcc);
 195:Drivers/STM32WBxx_HAL_Driver/Src/stm32wbxx_hal_ipcc.c **** 
 196:Drivers/STM32WBxx_HAL_Driver/Src/stm32wbxx_hal_ipcc.c ****     hipcc->State = HAL_IPCC_STATE_RESET;
 197:Drivers/STM32WBxx_HAL_Driver/Src/stm32wbxx_hal_ipcc.c ****   }
 198:Drivers/STM32WBxx_HAL_Driver/Src/stm32wbxx_hal_ipcc.c ****   else
 199:Drivers/STM32WBxx_HAL_Driver/Src/stm32wbxx_hal_ipcc.c ****   {
 200:Drivers/STM32WBxx_HAL_Driver/Src/stm32wbxx_hal_ipcc.c ****     err = HAL_ERROR;
ARM GAS  C:\Users\bku598\AppData\Local\Temp\ccYQV0lk.s 			page 5


 201:Drivers/STM32WBxx_HAL_Driver/Src/stm32wbxx_hal_ipcc.c ****   }
 202:Drivers/STM32WBxx_HAL_Driver/Src/stm32wbxx_hal_ipcc.c **** 
 203:Drivers/STM32WBxx_HAL_Driver/Src/stm32wbxx_hal_ipcc.c ****   return err;
 204:Drivers/STM32WBxx_HAL_Driver/Src/stm32wbxx_hal_ipcc.c **** }
 205:Drivers/STM32WBxx_HAL_Driver/Src/stm32wbxx_hal_ipcc.c **** 
 206:Drivers/STM32WBxx_HAL_Driver/Src/stm32wbxx_hal_ipcc.c **** /**
 207:Drivers/STM32WBxx_HAL_Driver/Src/stm32wbxx_hal_ipcc.c ****   * @brief Initialize the IPCC MSP.
 208:Drivers/STM32WBxx_HAL_Driver/Src/stm32wbxx_hal_ipcc.c ****   * @param  hipcc IPCC handle
 209:Drivers/STM32WBxx_HAL_Driver/Src/stm32wbxx_hal_ipcc.c ****   * @retval None
 210:Drivers/STM32WBxx_HAL_Driver/Src/stm32wbxx_hal_ipcc.c ****   */
 211:Drivers/STM32WBxx_HAL_Driver/Src/stm32wbxx_hal_ipcc.c **** __weak void HAL_IPCC_MspInit(IPCC_HandleTypeDef *hipcc)
 212:Drivers/STM32WBxx_HAL_Driver/Src/stm32wbxx_hal_ipcc.c **** {
 213:Drivers/STM32WBxx_HAL_Driver/Src/stm32wbxx_hal_ipcc.c ****   /* Prevent unused argument(s) compilation warning */
 214:Drivers/STM32WBxx_HAL_Driver/Src/stm32wbxx_hal_ipcc.c ****   UNUSED(hipcc);
 215:Drivers/STM32WBxx_HAL_Driver/Src/stm32wbxx_hal_ipcc.c **** 
 216:Drivers/STM32WBxx_HAL_Driver/Src/stm32wbxx_hal_ipcc.c ****   /* NOTE : This function should not be modified. When the callback is needed
 217:Drivers/STM32WBxx_HAL_Driver/Src/stm32wbxx_hal_ipcc.c ****             the HAL_IPCC_MspInit should be implemented in the user file
 218:Drivers/STM32WBxx_HAL_Driver/Src/stm32wbxx_hal_ipcc.c ****    */
 219:Drivers/STM32WBxx_HAL_Driver/Src/stm32wbxx_hal_ipcc.c **** }
 220:Drivers/STM32WBxx_HAL_Driver/Src/stm32wbxx_hal_ipcc.c **** 
 221:Drivers/STM32WBxx_HAL_Driver/Src/stm32wbxx_hal_ipcc.c **** /**
 222:Drivers/STM32WBxx_HAL_Driver/Src/stm32wbxx_hal_ipcc.c ****   * @brief IPCC MSP DeInit
 223:Drivers/STM32WBxx_HAL_Driver/Src/stm32wbxx_hal_ipcc.c ****   * @param  hipcc IPCC handle
 224:Drivers/STM32WBxx_HAL_Driver/Src/stm32wbxx_hal_ipcc.c ****   * @retval None
 225:Drivers/STM32WBxx_HAL_Driver/Src/stm32wbxx_hal_ipcc.c ****   */
 226:Drivers/STM32WBxx_HAL_Driver/Src/stm32wbxx_hal_ipcc.c **** __weak void HAL_IPCC_MspDeInit(IPCC_HandleTypeDef *hipcc)
 227:Drivers/STM32WBxx_HAL_Driver/Src/stm32wbxx_hal_ipcc.c **** {
 228:Drivers/STM32WBxx_HAL_Driver/Src/stm32wbxx_hal_ipcc.c ****   /* Prevent unused argument(s) compilation warning */
 229:Drivers/STM32WBxx_HAL_Driver/Src/stm32wbxx_hal_ipcc.c ****   UNUSED(hipcc);
 230:Drivers/STM32WBxx_HAL_Driver/Src/stm32wbxx_hal_ipcc.c **** 
 231:Drivers/STM32WBxx_HAL_Driver/Src/stm32wbxx_hal_ipcc.c ****   /* NOTE : This function should not be modified. When the callback is needed
 232:Drivers/STM32WBxx_HAL_Driver/Src/stm32wbxx_hal_ipcc.c ****             the HAL_IPCC_MspDeInit should be implemented in the user file
 233:Drivers/STM32WBxx_HAL_Driver/Src/stm32wbxx_hal_ipcc.c ****    */
 234:Drivers/STM32WBxx_HAL_Driver/Src/stm32wbxx_hal_ipcc.c **** }
 235:Drivers/STM32WBxx_HAL_Driver/Src/stm32wbxx_hal_ipcc.c **** 
 236:Drivers/STM32WBxx_HAL_Driver/Src/stm32wbxx_hal_ipcc.c **** /**
 237:Drivers/STM32WBxx_HAL_Driver/Src/stm32wbxx_hal_ipcc.c ****   * @}
 238:Drivers/STM32WBxx_HAL_Driver/Src/stm32wbxx_hal_ipcc.c ****   */
 239:Drivers/STM32WBxx_HAL_Driver/Src/stm32wbxx_hal_ipcc.c **** 
 240:Drivers/STM32WBxx_HAL_Driver/Src/stm32wbxx_hal_ipcc.c **** 
 241:Drivers/STM32WBxx_HAL_Driver/Src/stm32wbxx_hal_ipcc.c **** /** @addtogroup IPCC_Exported_Functions_Group2
 242:Drivers/STM32WBxx_HAL_Driver/Src/stm32wbxx_hal_ipcc.c ****   *  @brief    Configuration, notification and Irq handling functions.
 243:Drivers/STM32WBxx_HAL_Driver/Src/stm32wbxx_hal_ipcc.c ****   *
 244:Drivers/STM32WBxx_HAL_Driver/Src/stm32wbxx_hal_ipcc.c **** @verbatim
 245:Drivers/STM32WBxx_HAL_Driver/Src/stm32wbxx_hal_ipcc.c ****  ===============================================================================
 246:Drivers/STM32WBxx_HAL_Driver/Src/stm32wbxx_hal_ipcc.c ****               ##### IO operation functions #####
 247:Drivers/STM32WBxx_HAL_Driver/Src/stm32wbxx_hal_ipcc.c ****  ===============================================================================
 248:Drivers/STM32WBxx_HAL_Driver/Src/stm32wbxx_hal_ipcc.c ****     [..]  This section provides functions to allow two MCU to communicate.
 249:Drivers/STM32WBxx_HAL_Driver/Src/stm32wbxx_hal_ipcc.c **** 
 250:Drivers/STM32WBxx_HAL_Driver/Src/stm32wbxx_hal_ipcc.c ****     (#) For a given channel (from 0 to IPCC_CHANNEL_NUMBER), for a given direction
 251:Drivers/STM32WBxx_HAL_Driver/Src/stm32wbxx_hal_ipcc.c ****         IPCC_CHANNEL_DIR_TX or IPCC_CHANNEL_DIR_RX, you can choose to communicate
 252:Drivers/STM32WBxx_HAL_Driver/Src/stm32wbxx_hal_ipcc.c ****         in polling mode or in interrupt mode using IPCC.
 253:Drivers/STM32WBxx_HAL_Driver/Src/stm32wbxx_hal_ipcc.c ****         By default, the IPCC HAL driver handle the communication in polling mode.
 254:Drivers/STM32WBxx_HAL_Driver/Src/stm32wbxx_hal_ipcc.c ****         By setting a callback for a channel/direction, this communication use
 255:Drivers/STM32WBxx_HAL_Driver/Src/stm32wbxx_hal_ipcc.c ****         the interrupt mode.
 256:Drivers/STM32WBxx_HAL_Driver/Src/stm32wbxx_hal_ipcc.c **** 
 257:Drivers/STM32WBxx_HAL_Driver/Src/stm32wbxx_hal_ipcc.c ****     (#) Polling mode:
ARM GAS  C:\Users\bku598\AppData\Local\Temp\ccYQV0lk.s 			page 6


 258:Drivers/STM32WBxx_HAL_Driver/Src/stm32wbxx_hal_ipcc.c ****        (++) To transmit information, use HAL_IPCC_NotifyCPU() with
 259:Drivers/STM32WBxx_HAL_Driver/Src/stm32wbxx_hal_ipcc.c ****             IPCC_CHANNEL_DIR_TX. To know when the other processor has handled
 260:Drivers/STM32WBxx_HAL_Driver/Src/stm32wbxx_hal_ipcc.c ****             the notification, poll the communication using HAL_IPCC_NotifyCPU
 261:Drivers/STM32WBxx_HAL_Driver/Src/stm32wbxx_hal_ipcc.c ****             with IPCC_CHANNEL_DIR_TX.
 262:Drivers/STM32WBxx_HAL_Driver/Src/stm32wbxx_hal_ipcc.c **** 
 263:Drivers/STM32WBxx_HAL_Driver/Src/stm32wbxx_hal_ipcc.c ****        (++) To receive information, poll the status of the communication with
 264:Drivers/STM32WBxx_HAL_Driver/Src/stm32wbxx_hal_ipcc.c ****             HAL_IPCC_GetChannelStatus with IPCC_CHANNEL_DIR_RX. To notify the other
 265:Drivers/STM32WBxx_HAL_Driver/Src/stm32wbxx_hal_ipcc.c ****             processor that the information has been received, use HAL_IPCC_NotifyCPU
 266:Drivers/STM32WBxx_HAL_Driver/Src/stm32wbxx_hal_ipcc.c ****             with IPCC_CHANNEL_DIR_RX.
 267:Drivers/STM32WBxx_HAL_Driver/Src/stm32wbxx_hal_ipcc.c **** 
 268:Drivers/STM32WBxx_HAL_Driver/Src/stm32wbxx_hal_ipcc.c ****     (#) Interrupt mode:
 269:Drivers/STM32WBxx_HAL_Driver/Src/stm32wbxx_hal_ipcc.c ****        (++) Configure a callback for the channel and the direction using HAL_IPCC_ConfigChannel().
 270:Drivers/STM32WBxx_HAL_Driver/Src/stm32wbxx_hal_ipcc.c ****             This callback will be triggered under interrupt.
 271:Drivers/STM32WBxx_HAL_Driver/Src/stm32wbxx_hal_ipcc.c **** 
 272:Drivers/STM32WBxx_HAL_Driver/Src/stm32wbxx_hal_ipcc.c ****        (++) To transmit information, use HAL_IPCC_NotifyCPU() with
 273:Drivers/STM32WBxx_HAL_Driver/Src/stm32wbxx_hal_ipcc.c ****             IPCC_CHANNEL_DIR_TX. The callback configured with HAL_IPCC_ConfigChannel() and
 274:Drivers/STM32WBxx_HAL_Driver/Src/stm32wbxx_hal_ipcc.c ****             IPCC_CHANNEL_DIR_TX will be triggered once the communication has been handled by the
 275:Drivers/STM32WBxx_HAL_Driver/Src/stm32wbxx_hal_ipcc.c ****             other processor.
 276:Drivers/STM32WBxx_HAL_Driver/Src/stm32wbxx_hal_ipcc.c **** 
 277:Drivers/STM32WBxx_HAL_Driver/Src/stm32wbxx_hal_ipcc.c ****        (++) To receive information, the callback configured with HAL_IPCC_ConfigChannel() and
 278:Drivers/STM32WBxx_HAL_Driver/Src/stm32wbxx_hal_ipcc.c ****             IPCC_CHANNEL_DIR_RX will be triggered on reception of a communication.To notify the oth
 279:Drivers/STM32WBxx_HAL_Driver/Src/stm32wbxx_hal_ipcc.c ****             processor that the information has been received, use HAL_IPCC_NotifyCPU
 280:Drivers/STM32WBxx_HAL_Driver/Src/stm32wbxx_hal_ipcc.c ****             with IPCC_CHANNEL_DIR_RX.
 281:Drivers/STM32WBxx_HAL_Driver/Src/stm32wbxx_hal_ipcc.c **** 
 282:Drivers/STM32WBxx_HAL_Driver/Src/stm32wbxx_hal_ipcc.c ****        (++) HAL_IPCC_TX_IRQHandler must be added to the IPCC TX IRQHandler
 283:Drivers/STM32WBxx_HAL_Driver/Src/stm32wbxx_hal_ipcc.c **** 
 284:Drivers/STM32WBxx_HAL_Driver/Src/stm32wbxx_hal_ipcc.c ****        (++) HAL_IPCC_RX_IRQHandler must be added to the IPCC RX IRQHandler
 285:Drivers/STM32WBxx_HAL_Driver/Src/stm32wbxx_hal_ipcc.c **** @endverbatim
 286:Drivers/STM32WBxx_HAL_Driver/Src/stm32wbxx_hal_ipcc.c ****   * @{
 287:Drivers/STM32WBxx_HAL_Driver/Src/stm32wbxx_hal_ipcc.c ****   */
 288:Drivers/STM32WBxx_HAL_Driver/Src/stm32wbxx_hal_ipcc.c **** 
 289:Drivers/STM32WBxx_HAL_Driver/Src/stm32wbxx_hal_ipcc.c **** /**
 290:Drivers/STM32WBxx_HAL_Driver/Src/stm32wbxx_hal_ipcc.c ****   * @brief  Activate the callback notification on receive/transmit interrupt
 291:Drivers/STM32WBxx_HAL_Driver/Src/stm32wbxx_hal_ipcc.c ****   * @param  hipcc IPCC handle
 292:Drivers/STM32WBxx_HAL_Driver/Src/stm32wbxx_hal_ipcc.c ****   * @param  ChannelIndex Channel number
 293:Drivers/STM32WBxx_HAL_Driver/Src/stm32wbxx_hal_ipcc.c ****   *          This parameter can be one of the following values:
 294:Drivers/STM32WBxx_HAL_Driver/Src/stm32wbxx_hal_ipcc.c ****   *            @arg IPCC_CHANNEL_1: IPCC Channel 1
 295:Drivers/STM32WBxx_HAL_Driver/Src/stm32wbxx_hal_ipcc.c ****   *            @arg IPCC_CHANNEL_2: IPCC Channel 2
 296:Drivers/STM32WBxx_HAL_Driver/Src/stm32wbxx_hal_ipcc.c ****   *            @arg IPCC_CHANNEL_3: IPCC Channel 3
 297:Drivers/STM32WBxx_HAL_Driver/Src/stm32wbxx_hal_ipcc.c ****   *            @arg IPCC_CHANNEL_4: IPCC Channel 4
 298:Drivers/STM32WBxx_HAL_Driver/Src/stm32wbxx_hal_ipcc.c ****   *            @arg IPCC_CHANNEL_5: IPCC Channel 5
 299:Drivers/STM32WBxx_HAL_Driver/Src/stm32wbxx_hal_ipcc.c ****   *            @arg IPCC_CHANNEL_6: IPCC Channel 6
 300:Drivers/STM32WBxx_HAL_Driver/Src/stm32wbxx_hal_ipcc.c ****   * @param  ChannelDir Channel direction
 301:Drivers/STM32WBxx_HAL_Driver/Src/stm32wbxx_hal_ipcc.c ****   * @param  cb Interrupt callback
 302:Drivers/STM32WBxx_HAL_Driver/Src/stm32wbxx_hal_ipcc.c ****   * @retval HAL status
 303:Drivers/STM32WBxx_HAL_Driver/Src/stm32wbxx_hal_ipcc.c ****   */
 304:Drivers/STM32WBxx_HAL_Driver/Src/stm32wbxx_hal_ipcc.c **** HAL_StatusTypeDef HAL_IPCC_ActivateNotification(IPCC_HandleTypeDef *hipcc,
 305:Drivers/STM32WBxx_HAL_Driver/Src/stm32wbxx_hal_ipcc.c ****                                                 uint32_t ChannelIndex, IPCC_CHANNELDirTypeDef Chann
 306:Drivers/STM32WBxx_HAL_Driver/Src/stm32wbxx_hal_ipcc.c ****                                                 ChannelCb cb)
 307:Drivers/STM32WBxx_HAL_Driver/Src/stm32wbxx_hal_ipcc.c **** {
 308:Drivers/STM32WBxx_HAL_Driver/Src/stm32wbxx_hal_ipcc.c ****   HAL_StatusTypeDef err = HAL_OK;
 309:Drivers/STM32WBxx_HAL_Driver/Src/stm32wbxx_hal_ipcc.c **** 
 310:Drivers/STM32WBxx_HAL_Driver/Src/stm32wbxx_hal_ipcc.c ****   /* Check the IPCC handle allocation */
 311:Drivers/STM32WBxx_HAL_Driver/Src/stm32wbxx_hal_ipcc.c ****   if (hipcc != NULL)
 312:Drivers/STM32WBxx_HAL_Driver/Src/stm32wbxx_hal_ipcc.c ****   {
 313:Drivers/STM32WBxx_HAL_Driver/Src/stm32wbxx_hal_ipcc.c ****     /* Check the parameters */
 314:Drivers/STM32WBxx_HAL_Driver/Src/stm32wbxx_hal_ipcc.c ****     assert_param(IS_IPCC_ALL_INSTANCE(hipcc->Instance));
ARM GAS  C:\Users\bku598\AppData\Local\Temp\ccYQV0lk.s 			page 7


 315:Drivers/STM32WBxx_HAL_Driver/Src/stm32wbxx_hal_ipcc.c **** 
 316:Drivers/STM32WBxx_HAL_Driver/Src/stm32wbxx_hal_ipcc.c ****     /* Check IPCC state */
 317:Drivers/STM32WBxx_HAL_Driver/Src/stm32wbxx_hal_ipcc.c ****     if (hipcc->State == HAL_IPCC_STATE_READY)
 318:Drivers/STM32WBxx_HAL_Driver/Src/stm32wbxx_hal_ipcc.c ****     {
 319:Drivers/STM32WBxx_HAL_Driver/Src/stm32wbxx_hal_ipcc.c ****       /* Set callback and register masking information */
 320:Drivers/STM32WBxx_HAL_Driver/Src/stm32wbxx_hal_ipcc.c ****       if (ChannelDir == IPCC_CHANNEL_DIR_TX)
 321:Drivers/STM32WBxx_HAL_Driver/Src/stm32wbxx_hal_ipcc.c ****       {
 322:Drivers/STM32WBxx_HAL_Driver/Src/stm32wbxx_hal_ipcc.c ****         hipcc->ChannelCallbackTx[ChannelIndex] = cb;
 323:Drivers/STM32WBxx_HAL_Driver/Src/stm32wbxx_hal_ipcc.c ****         hipcc->callbackRequest |= (IPCC_MR_CH1FM_Msk << (ChannelIndex & CHANNEL_INDEX_MASK));
 324:Drivers/STM32WBxx_HAL_Driver/Src/stm32wbxx_hal_ipcc.c ****       }
 325:Drivers/STM32WBxx_HAL_Driver/Src/stm32wbxx_hal_ipcc.c ****       else
 326:Drivers/STM32WBxx_HAL_Driver/Src/stm32wbxx_hal_ipcc.c ****       {
 327:Drivers/STM32WBxx_HAL_Driver/Src/stm32wbxx_hal_ipcc.c ****         hipcc->ChannelCallbackRx[ChannelIndex] = cb;
 328:Drivers/STM32WBxx_HAL_Driver/Src/stm32wbxx_hal_ipcc.c ****         hipcc->callbackRequest |= (IPCC_MR_CH1OM_Msk << (ChannelIndex & CHANNEL_INDEX_MASK));
 329:Drivers/STM32WBxx_HAL_Driver/Src/stm32wbxx_hal_ipcc.c ****       }
 330:Drivers/STM32WBxx_HAL_Driver/Src/stm32wbxx_hal_ipcc.c **** 
 331:Drivers/STM32WBxx_HAL_Driver/Src/stm32wbxx_hal_ipcc.c ****       /* Unmask only the channels in reception (Transmission channel mask/unmask is done in HAL_IPC
 332:Drivers/STM32WBxx_HAL_Driver/Src/stm32wbxx_hal_ipcc.c ****       if (ChannelDir == IPCC_CHANNEL_DIR_RX)
 333:Drivers/STM32WBxx_HAL_Driver/Src/stm32wbxx_hal_ipcc.c ****       {
 334:Drivers/STM32WBxx_HAL_Driver/Src/stm32wbxx_hal_ipcc.c ****         IPCC_UnmaskInterrupt(ChannelIndex, ChannelDir);
 335:Drivers/STM32WBxx_HAL_Driver/Src/stm32wbxx_hal_ipcc.c ****       }
 336:Drivers/STM32WBxx_HAL_Driver/Src/stm32wbxx_hal_ipcc.c ****     }
 337:Drivers/STM32WBxx_HAL_Driver/Src/stm32wbxx_hal_ipcc.c ****     else
 338:Drivers/STM32WBxx_HAL_Driver/Src/stm32wbxx_hal_ipcc.c ****     {
 339:Drivers/STM32WBxx_HAL_Driver/Src/stm32wbxx_hal_ipcc.c ****       err = HAL_ERROR;
 340:Drivers/STM32WBxx_HAL_Driver/Src/stm32wbxx_hal_ipcc.c ****     }
 341:Drivers/STM32WBxx_HAL_Driver/Src/stm32wbxx_hal_ipcc.c ****   }
 342:Drivers/STM32WBxx_HAL_Driver/Src/stm32wbxx_hal_ipcc.c ****   else
 343:Drivers/STM32WBxx_HAL_Driver/Src/stm32wbxx_hal_ipcc.c ****   {
 344:Drivers/STM32WBxx_HAL_Driver/Src/stm32wbxx_hal_ipcc.c ****     err = HAL_ERROR;
 345:Drivers/STM32WBxx_HAL_Driver/Src/stm32wbxx_hal_ipcc.c ****   }
 346:Drivers/STM32WBxx_HAL_Driver/Src/stm32wbxx_hal_ipcc.c ****   return err;
 347:Drivers/STM32WBxx_HAL_Driver/Src/stm32wbxx_hal_ipcc.c **** }
 348:Drivers/STM32WBxx_HAL_Driver/Src/stm32wbxx_hal_ipcc.c **** 
 349:Drivers/STM32WBxx_HAL_Driver/Src/stm32wbxx_hal_ipcc.c **** /**
 350:Drivers/STM32WBxx_HAL_Driver/Src/stm32wbxx_hal_ipcc.c ****   * @brief  Remove the callback notification on receive/transmit interrupt
 351:Drivers/STM32WBxx_HAL_Driver/Src/stm32wbxx_hal_ipcc.c ****   * @param  hipcc IPCC handle
 352:Drivers/STM32WBxx_HAL_Driver/Src/stm32wbxx_hal_ipcc.c ****   * @param  ChannelIndex Channel number
 353:Drivers/STM32WBxx_HAL_Driver/Src/stm32wbxx_hal_ipcc.c ****   *          This parameter can be one of the following values:
 354:Drivers/STM32WBxx_HAL_Driver/Src/stm32wbxx_hal_ipcc.c ****   *            @arg IPCC_CHANNEL_1: IPCC Channel 1
 355:Drivers/STM32WBxx_HAL_Driver/Src/stm32wbxx_hal_ipcc.c ****   *            @arg IPCC_CHANNEL_2: IPCC Channel 2
 356:Drivers/STM32WBxx_HAL_Driver/Src/stm32wbxx_hal_ipcc.c ****   *            @arg IPCC_CHANNEL_3: IPCC Channel 3
 357:Drivers/STM32WBxx_HAL_Driver/Src/stm32wbxx_hal_ipcc.c ****   *            @arg IPCC_CHANNEL_4: IPCC Channel 4
 358:Drivers/STM32WBxx_HAL_Driver/Src/stm32wbxx_hal_ipcc.c ****   *            @arg IPCC_CHANNEL_5: IPCC Channel 5
 359:Drivers/STM32WBxx_HAL_Driver/Src/stm32wbxx_hal_ipcc.c ****   *            @arg IPCC_CHANNEL_6: IPCC Channel 6
 360:Drivers/STM32WBxx_HAL_Driver/Src/stm32wbxx_hal_ipcc.c ****   * @param  ChannelDir Channel direction
 361:Drivers/STM32WBxx_HAL_Driver/Src/stm32wbxx_hal_ipcc.c ****   * @retval HAL status
 362:Drivers/STM32WBxx_HAL_Driver/Src/stm32wbxx_hal_ipcc.c ****   */
 363:Drivers/STM32WBxx_HAL_Driver/Src/stm32wbxx_hal_ipcc.c **** HAL_StatusTypeDef HAL_IPCC_DeActivateNotification(IPCC_HandleTypeDef *hipcc,
 364:Drivers/STM32WBxx_HAL_Driver/Src/stm32wbxx_hal_ipcc.c ****                                                   uint32_t ChannelIndex, IPCC_CHANNELDirTypeDef Cha
 365:Drivers/STM32WBxx_HAL_Driver/Src/stm32wbxx_hal_ipcc.c **** {
 366:Drivers/STM32WBxx_HAL_Driver/Src/stm32wbxx_hal_ipcc.c ****   HAL_StatusTypeDef err = HAL_OK;
 367:Drivers/STM32WBxx_HAL_Driver/Src/stm32wbxx_hal_ipcc.c **** 
 368:Drivers/STM32WBxx_HAL_Driver/Src/stm32wbxx_hal_ipcc.c ****   /* Check the IPCC handle allocation */
 369:Drivers/STM32WBxx_HAL_Driver/Src/stm32wbxx_hal_ipcc.c ****   if (hipcc != NULL)
 370:Drivers/STM32WBxx_HAL_Driver/Src/stm32wbxx_hal_ipcc.c ****   {
 371:Drivers/STM32WBxx_HAL_Driver/Src/stm32wbxx_hal_ipcc.c ****     /* Check the parameters */
ARM GAS  C:\Users\bku598\AppData\Local\Temp\ccYQV0lk.s 			page 8


 372:Drivers/STM32WBxx_HAL_Driver/Src/stm32wbxx_hal_ipcc.c ****     assert_param(IS_IPCC_ALL_INSTANCE(hipcc->Instance));
 373:Drivers/STM32WBxx_HAL_Driver/Src/stm32wbxx_hal_ipcc.c **** 
 374:Drivers/STM32WBxx_HAL_Driver/Src/stm32wbxx_hal_ipcc.c ****     /* Check IPCC state */
 375:Drivers/STM32WBxx_HAL_Driver/Src/stm32wbxx_hal_ipcc.c ****     if (hipcc->State == HAL_IPCC_STATE_READY)
 376:Drivers/STM32WBxx_HAL_Driver/Src/stm32wbxx_hal_ipcc.c ****     {
 377:Drivers/STM32WBxx_HAL_Driver/Src/stm32wbxx_hal_ipcc.c ****       /* Set default callback and register masking information */
 378:Drivers/STM32WBxx_HAL_Driver/Src/stm32wbxx_hal_ipcc.c ****       if (ChannelDir == IPCC_CHANNEL_DIR_TX)
 379:Drivers/STM32WBxx_HAL_Driver/Src/stm32wbxx_hal_ipcc.c ****       {
 380:Drivers/STM32WBxx_HAL_Driver/Src/stm32wbxx_hal_ipcc.c ****         hipcc->ChannelCallbackTx[ChannelIndex] = HAL_IPCC_TxCallback;
 381:Drivers/STM32WBxx_HAL_Driver/Src/stm32wbxx_hal_ipcc.c ****         hipcc->callbackRequest &= ~(IPCC_MR_CH1FM_Msk << (ChannelIndex & CHANNEL_INDEX_MASK));
 382:Drivers/STM32WBxx_HAL_Driver/Src/stm32wbxx_hal_ipcc.c ****       }
 383:Drivers/STM32WBxx_HAL_Driver/Src/stm32wbxx_hal_ipcc.c ****       else
 384:Drivers/STM32WBxx_HAL_Driver/Src/stm32wbxx_hal_ipcc.c ****       {
 385:Drivers/STM32WBxx_HAL_Driver/Src/stm32wbxx_hal_ipcc.c ****         hipcc->ChannelCallbackRx[ChannelIndex] = HAL_IPCC_RxCallback;
 386:Drivers/STM32WBxx_HAL_Driver/Src/stm32wbxx_hal_ipcc.c ****         hipcc->callbackRequest &= ~(IPCC_MR_CH1OM_Msk << (ChannelIndex & CHANNEL_INDEX_MASK));
 387:Drivers/STM32WBxx_HAL_Driver/Src/stm32wbxx_hal_ipcc.c ****       }
 388:Drivers/STM32WBxx_HAL_Driver/Src/stm32wbxx_hal_ipcc.c **** 
 389:Drivers/STM32WBxx_HAL_Driver/Src/stm32wbxx_hal_ipcc.c ****       /* Mask the interrupt */
 390:Drivers/STM32WBxx_HAL_Driver/Src/stm32wbxx_hal_ipcc.c ****       IPCC_MaskInterrupt(ChannelIndex, ChannelDir);
 391:Drivers/STM32WBxx_HAL_Driver/Src/stm32wbxx_hal_ipcc.c ****     }
 392:Drivers/STM32WBxx_HAL_Driver/Src/stm32wbxx_hal_ipcc.c ****     else
 393:Drivers/STM32WBxx_HAL_Driver/Src/stm32wbxx_hal_ipcc.c ****     {
 394:Drivers/STM32WBxx_HAL_Driver/Src/stm32wbxx_hal_ipcc.c ****       err = HAL_ERROR;
 395:Drivers/STM32WBxx_HAL_Driver/Src/stm32wbxx_hal_ipcc.c ****     }
 396:Drivers/STM32WBxx_HAL_Driver/Src/stm32wbxx_hal_ipcc.c ****   }
 397:Drivers/STM32WBxx_HAL_Driver/Src/stm32wbxx_hal_ipcc.c ****   else
 398:Drivers/STM32WBxx_HAL_Driver/Src/stm32wbxx_hal_ipcc.c ****   {
 399:Drivers/STM32WBxx_HAL_Driver/Src/stm32wbxx_hal_ipcc.c ****     err = HAL_ERROR;
 400:Drivers/STM32WBxx_HAL_Driver/Src/stm32wbxx_hal_ipcc.c ****   }
 401:Drivers/STM32WBxx_HAL_Driver/Src/stm32wbxx_hal_ipcc.c ****   return err;
 402:Drivers/STM32WBxx_HAL_Driver/Src/stm32wbxx_hal_ipcc.c **** }
 403:Drivers/STM32WBxx_HAL_Driver/Src/stm32wbxx_hal_ipcc.c **** 
 404:Drivers/STM32WBxx_HAL_Driver/Src/stm32wbxx_hal_ipcc.c **** /**
 405:Drivers/STM32WBxx_HAL_Driver/Src/stm32wbxx_hal_ipcc.c ****   * @brief  Get state of IPCC channel
 406:Drivers/STM32WBxx_HAL_Driver/Src/stm32wbxx_hal_ipcc.c ****   * @param  hipcc IPCC handle
 407:Drivers/STM32WBxx_HAL_Driver/Src/stm32wbxx_hal_ipcc.c ****   * @param  ChannelIndex Channel number
 408:Drivers/STM32WBxx_HAL_Driver/Src/stm32wbxx_hal_ipcc.c ****   *          This parameter can be one of the following values:
 409:Drivers/STM32WBxx_HAL_Driver/Src/stm32wbxx_hal_ipcc.c ****   *            @arg IPCC_CHANNEL_1: IPCC Channel 1
 410:Drivers/STM32WBxx_HAL_Driver/Src/stm32wbxx_hal_ipcc.c ****   *            @arg IPCC_CHANNEL_2: IPCC Channel 2
 411:Drivers/STM32WBxx_HAL_Driver/Src/stm32wbxx_hal_ipcc.c ****   *            @arg IPCC_CHANNEL_3: IPCC Channel 3
 412:Drivers/STM32WBxx_HAL_Driver/Src/stm32wbxx_hal_ipcc.c ****   *            @arg IPCC_CHANNEL_4: IPCC Channel 4
 413:Drivers/STM32WBxx_HAL_Driver/Src/stm32wbxx_hal_ipcc.c ****   *            @arg IPCC_CHANNEL_5: IPCC Channel 5
 414:Drivers/STM32WBxx_HAL_Driver/Src/stm32wbxx_hal_ipcc.c ****   *            @arg IPCC_CHANNEL_6: IPCC Channel 6
 415:Drivers/STM32WBxx_HAL_Driver/Src/stm32wbxx_hal_ipcc.c ****   * @param  ChannelDir Channel direction
 416:Drivers/STM32WBxx_HAL_Driver/Src/stm32wbxx_hal_ipcc.c ****   * @retval Channel status
 417:Drivers/STM32WBxx_HAL_Driver/Src/stm32wbxx_hal_ipcc.c ****   */
 418:Drivers/STM32WBxx_HAL_Driver/Src/stm32wbxx_hal_ipcc.c **** IPCC_CHANNELStatusTypeDef HAL_IPCC_GetChannelStatus(IPCC_HandleTypeDef const *const hipcc,
 419:Drivers/STM32WBxx_HAL_Driver/Src/stm32wbxx_hal_ipcc.c ****                                                     uint32_t ChannelIndex, IPCC_CHANNELDirTypeDef C
 420:Drivers/STM32WBxx_HAL_Driver/Src/stm32wbxx_hal_ipcc.c **** {
 421:Drivers/STM32WBxx_HAL_Driver/Src/stm32wbxx_hal_ipcc.c ****   uint32_t channel_state;
 422:Drivers/STM32WBxx_HAL_Driver/Src/stm32wbxx_hal_ipcc.c ****   IPCC_CommonTypeDef *currentInstance = IPCC_C1;
 423:Drivers/STM32WBxx_HAL_Driver/Src/stm32wbxx_hal_ipcc.c ****   IPCC_CommonTypeDef *otherInstance = IPCC_C2;
 424:Drivers/STM32WBxx_HAL_Driver/Src/stm32wbxx_hal_ipcc.c **** 
 425:Drivers/STM32WBxx_HAL_Driver/Src/stm32wbxx_hal_ipcc.c ****   /* Check the parameters */
 426:Drivers/STM32WBxx_HAL_Driver/Src/stm32wbxx_hal_ipcc.c ****   assert_param(IS_IPCC_ALL_INSTANCE(hipcc->Instance));
 427:Drivers/STM32WBxx_HAL_Driver/Src/stm32wbxx_hal_ipcc.c **** 
 428:Drivers/STM32WBxx_HAL_Driver/Src/stm32wbxx_hal_ipcc.c ****   /* Read corresponding channel depending of the MCU and the direction */
ARM GAS  C:\Users\bku598\AppData\Local\Temp\ccYQV0lk.s 			page 9


 429:Drivers/STM32WBxx_HAL_Driver/Src/stm32wbxx_hal_ipcc.c ****   if (ChannelDir == IPCC_CHANNEL_DIR_TX)
 430:Drivers/STM32WBxx_HAL_Driver/Src/stm32wbxx_hal_ipcc.c ****   {
 431:Drivers/STM32WBxx_HAL_Driver/Src/stm32wbxx_hal_ipcc.c ****     channel_state = (currentInstance->SR) & (IPCC_SR_CH1F_Msk << (ChannelIndex & CHANNEL_INDEX_MASK
 432:Drivers/STM32WBxx_HAL_Driver/Src/stm32wbxx_hal_ipcc.c ****   }
 433:Drivers/STM32WBxx_HAL_Driver/Src/stm32wbxx_hal_ipcc.c ****   else
 434:Drivers/STM32WBxx_HAL_Driver/Src/stm32wbxx_hal_ipcc.c ****   {
 435:Drivers/STM32WBxx_HAL_Driver/Src/stm32wbxx_hal_ipcc.c ****     channel_state = (otherInstance->SR) & (IPCC_SR_CH1F_Msk << (ChannelIndex & CHANNEL_INDEX_MASK))
 436:Drivers/STM32WBxx_HAL_Driver/Src/stm32wbxx_hal_ipcc.c ****   }
 437:Drivers/STM32WBxx_HAL_Driver/Src/stm32wbxx_hal_ipcc.c **** 
 438:Drivers/STM32WBxx_HAL_Driver/Src/stm32wbxx_hal_ipcc.c ****   return (channel_state == 0UL) ? IPCC_CHANNEL_STATUS_FREE : IPCC_CHANNEL_STATUS_OCCUPIED ;
 439:Drivers/STM32WBxx_HAL_Driver/Src/stm32wbxx_hal_ipcc.c **** }
 440:Drivers/STM32WBxx_HAL_Driver/Src/stm32wbxx_hal_ipcc.c **** 
 441:Drivers/STM32WBxx_HAL_Driver/Src/stm32wbxx_hal_ipcc.c **** /**
 442:Drivers/STM32WBxx_HAL_Driver/Src/stm32wbxx_hal_ipcc.c ****   * @brief  Notify remote processor
 443:Drivers/STM32WBxx_HAL_Driver/Src/stm32wbxx_hal_ipcc.c ****   * @param  hipcc IPCC handle
 444:Drivers/STM32WBxx_HAL_Driver/Src/stm32wbxx_hal_ipcc.c ****   * @param  ChannelIndex Channel number
 445:Drivers/STM32WBxx_HAL_Driver/Src/stm32wbxx_hal_ipcc.c ****   *          This parameter can be one of the following values:
 446:Drivers/STM32WBxx_HAL_Driver/Src/stm32wbxx_hal_ipcc.c ****   *            @arg IPCC_CHANNEL_1: IPCC Channel 1
 447:Drivers/STM32WBxx_HAL_Driver/Src/stm32wbxx_hal_ipcc.c ****   *            @arg IPCC_CHANNEL_2: IPCC Channel 2
 448:Drivers/STM32WBxx_HAL_Driver/Src/stm32wbxx_hal_ipcc.c ****   *            @arg IPCC_CHANNEL_3: IPCC Channel 3
 449:Drivers/STM32WBxx_HAL_Driver/Src/stm32wbxx_hal_ipcc.c ****   *            @arg IPCC_CHANNEL_4: IPCC Channel 4
 450:Drivers/STM32WBxx_HAL_Driver/Src/stm32wbxx_hal_ipcc.c ****   *            @arg IPCC_CHANNEL_5: IPCC Channel 5
 451:Drivers/STM32WBxx_HAL_Driver/Src/stm32wbxx_hal_ipcc.c ****   *            @arg IPCC_CHANNEL_6: IPCC Channel 6
 452:Drivers/STM32WBxx_HAL_Driver/Src/stm32wbxx_hal_ipcc.c ****   * @param  ChannelDir Channel direction
 453:Drivers/STM32WBxx_HAL_Driver/Src/stm32wbxx_hal_ipcc.c ****   * @retval HAL status
 454:Drivers/STM32WBxx_HAL_Driver/Src/stm32wbxx_hal_ipcc.c ****   */
 455:Drivers/STM32WBxx_HAL_Driver/Src/stm32wbxx_hal_ipcc.c **** HAL_StatusTypeDef HAL_IPCC_NotifyCPU(IPCC_HandleTypeDef const *const hipcc,
 456:Drivers/STM32WBxx_HAL_Driver/Src/stm32wbxx_hal_ipcc.c ****                                      uint32_t ChannelIndex, IPCC_CHANNELDirTypeDef ChannelDir)
 457:Drivers/STM32WBxx_HAL_Driver/Src/stm32wbxx_hal_ipcc.c **** {
 458:Drivers/STM32WBxx_HAL_Driver/Src/stm32wbxx_hal_ipcc.c ****   HAL_StatusTypeDef err = HAL_OK;
 459:Drivers/STM32WBxx_HAL_Driver/Src/stm32wbxx_hal_ipcc.c ****   uint32_t mask;
 460:Drivers/STM32WBxx_HAL_Driver/Src/stm32wbxx_hal_ipcc.c ****   IPCC_CommonTypeDef *currentInstance = IPCC_C1;
 461:Drivers/STM32WBxx_HAL_Driver/Src/stm32wbxx_hal_ipcc.c **** 
 462:Drivers/STM32WBxx_HAL_Driver/Src/stm32wbxx_hal_ipcc.c ****   /* Check the parameters */
 463:Drivers/STM32WBxx_HAL_Driver/Src/stm32wbxx_hal_ipcc.c ****   assert_param(IS_IPCC_ALL_INSTANCE(hipcc->Instance));
 464:Drivers/STM32WBxx_HAL_Driver/Src/stm32wbxx_hal_ipcc.c **** 
 465:Drivers/STM32WBxx_HAL_Driver/Src/stm32wbxx_hal_ipcc.c ****   /* Check if IPCC is initialized */
 466:Drivers/STM32WBxx_HAL_Driver/Src/stm32wbxx_hal_ipcc.c ****   if (hipcc->State == HAL_IPCC_STATE_READY)
 467:Drivers/STM32WBxx_HAL_Driver/Src/stm32wbxx_hal_ipcc.c ****   {
 468:Drivers/STM32WBxx_HAL_Driver/Src/stm32wbxx_hal_ipcc.c ****     /* For IPCC_CHANNEL_DIR_TX, set the status. For IPCC_CHANNEL_DIR_RX, clear the status */
 469:Drivers/STM32WBxx_HAL_Driver/Src/stm32wbxx_hal_ipcc.c ****     currentInstance->SCR |= ((ChannelDir == IPCC_CHANNEL_DIR_TX) ? IPCC_SCR_CH1S :
 470:Drivers/STM32WBxx_HAL_Driver/Src/stm32wbxx_hal_ipcc.c ****                              IPCC_SCR_CH1C)
 471:Drivers/STM32WBxx_HAL_Driver/Src/stm32wbxx_hal_ipcc.c ****                             << (ChannelIndex & CHANNEL_INDEX_MASK);
 472:Drivers/STM32WBxx_HAL_Driver/Src/stm32wbxx_hal_ipcc.c **** 
 473:Drivers/STM32WBxx_HAL_Driver/Src/stm32wbxx_hal_ipcc.c ****     /* Unmask interrupt if the callback is requested */
 474:Drivers/STM32WBxx_HAL_Driver/Src/stm32wbxx_hal_ipcc.c ****     mask = ((ChannelDir == IPCC_CHANNEL_DIR_TX) ? IPCC_MR_CH1FM_Msk :
 475:Drivers/STM32WBxx_HAL_Driver/Src/stm32wbxx_hal_ipcc.c ****             IPCC_MR_CH1OM_Msk) << (ChannelIndex & CHANNEL_INDEX_MASK);
 476:Drivers/STM32WBxx_HAL_Driver/Src/stm32wbxx_hal_ipcc.c ****     if ((hipcc->callbackRequest & mask) == mask)
 477:Drivers/STM32WBxx_HAL_Driver/Src/stm32wbxx_hal_ipcc.c ****     {
 478:Drivers/STM32WBxx_HAL_Driver/Src/stm32wbxx_hal_ipcc.c ****       IPCC_UnmaskInterrupt(ChannelIndex, ChannelDir);
 479:Drivers/STM32WBxx_HAL_Driver/Src/stm32wbxx_hal_ipcc.c ****     }
 480:Drivers/STM32WBxx_HAL_Driver/Src/stm32wbxx_hal_ipcc.c ****   }
 481:Drivers/STM32WBxx_HAL_Driver/Src/stm32wbxx_hal_ipcc.c ****   else
 482:Drivers/STM32WBxx_HAL_Driver/Src/stm32wbxx_hal_ipcc.c ****   {
 483:Drivers/STM32WBxx_HAL_Driver/Src/stm32wbxx_hal_ipcc.c ****     err = HAL_ERROR;
 484:Drivers/STM32WBxx_HAL_Driver/Src/stm32wbxx_hal_ipcc.c ****   }
 485:Drivers/STM32WBxx_HAL_Driver/Src/stm32wbxx_hal_ipcc.c **** 
ARM GAS  C:\Users\bku598\AppData\Local\Temp\ccYQV0lk.s 			page 10


 486:Drivers/STM32WBxx_HAL_Driver/Src/stm32wbxx_hal_ipcc.c ****   return err;
 487:Drivers/STM32WBxx_HAL_Driver/Src/stm32wbxx_hal_ipcc.c **** }
 488:Drivers/STM32WBxx_HAL_Driver/Src/stm32wbxx_hal_ipcc.c **** 
 489:Drivers/STM32WBxx_HAL_Driver/Src/stm32wbxx_hal_ipcc.c **** /**
 490:Drivers/STM32WBxx_HAL_Driver/Src/stm32wbxx_hal_ipcc.c ****   * @}
 491:Drivers/STM32WBxx_HAL_Driver/Src/stm32wbxx_hal_ipcc.c ****   */
 492:Drivers/STM32WBxx_HAL_Driver/Src/stm32wbxx_hal_ipcc.c **** 
 493:Drivers/STM32WBxx_HAL_Driver/Src/stm32wbxx_hal_ipcc.c **** /** @addtogroup IPCC_IRQ_Handler_and_Callbacks
 494:Drivers/STM32WBxx_HAL_Driver/Src/stm32wbxx_hal_ipcc.c ****   * @{
 495:Drivers/STM32WBxx_HAL_Driver/Src/stm32wbxx_hal_ipcc.c ****   */
 496:Drivers/STM32WBxx_HAL_Driver/Src/stm32wbxx_hal_ipcc.c **** 
 497:Drivers/STM32WBxx_HAL_Driver/Src/stm32wbxx_hal_ipcc.c **** /**
 498:Drivers/STM32WBxx_HAL_Driver/Src/stm32wbxx_hal_ipcc.c ****   * @brief  This function handles IPCC Tx Free interrupt request.
 499:Drivers/STM32WBxx_HAL_Driver/Src/stm32wbxx_hal_ipcc.c ****   * @param  hipcc IPCC handle
 500:Drivers/STM32WBxx_HAL_Driver/Src/stm32wbxx_hal_ipcc.c ****   * @retval None
 501:Drivers/STM32WBxx_HAL_Driver/Src/stm32wbxx_hal_ipcc.c ****   */
 502:Drivers/STM32WBxx_HAL_Driver/Src/stm32wbxx_hal_ipcc.c **** void HAL_IPCC_TX_IRQHandler(IPCC_HandleTypeDef *const hipcc)
 503:Drivers/STM32WBxx_HAL_Driver/Src/stm32wbxx_hal_ipcc.c **** {
 504:Drivers/STM32WBxx_HAL_Driver/Src/stm32wbxx_hal_ipcc.c ****   uint32_t irqmask;
 505:Drivers/STM32WBxx_HAL_Driver/Src/stm32wbxx_hal_ipcc.c ****   uint32_t bit_pos;
 506:Drivers/STM32WBxx_HAL_Driver/Src/stm32wbxx_hal_ipcc.c ****   uint32_t ch_count = 0U;
 507:Drivers/STM32WBxx_HAL_Driver/Src/stm32wbxx_hal_ipcc.c ****   IPCC_CommonTypeDef *currentInstance = IPCC_C1;
 508:Drivers/STM32WBxx_HAL_Driver/Src/stm32wbxx_hal_ipcc.c **** 
 509:Drivers/STM32WBxx_HAL_Driver/Src/stm32wbxx_hal_ipcc.c ****   /* check the Tx free channels which are not masked */
 510:Drivers/STM32WBxx_HAL_Driver/Src/stm32wbxx_hal_ipcc.c ****   irqmask = ~(currentInstance->MR) & IPCC_ALL_TX_BUF;
 511:Drivers/STM32WBxx_HAL_Driver/Src/stm32wbxx_hal_ipcc.c ****   irqmask = irqmask & ~(currentInstance->SR << IPCC_MR_CH1FM_Pos);
 512:Drivers/STM32WBxx_HAL_Driver/Src/stm32wbxx_hal_ipcc.c **** 
 513:Drivers/STM32WBxx_HAL_Driver/Src/stm32wbxx_hal_ipcc.c ****   while (irqmask != 0UL)  /* if several bits are set, it loops to serve all of them */
 514:Drivers/STM32WBxx_HAL_Driver/Src/stm32wbxx_hal_ipcc.c ****   {
 515:Drivers/STM32WBxx_HAL_Driver/Src/stm32wbxx_hal_ipcc.c ****     bit_pos = 1UL << (IPCC_MR_CH1FM_Pos + (ch_count & CHANNEL_INDEX_MASK));
 516:Drivers/STM32WBxx_HAL_Driver/Src/stm32wbxx_hal_ipcc.c **** 
 517:Drivers/STM32WBxx_HAL_Driver/Src/stm32wbxx_hal_ipcc.c ****     if ((irqmask & bit_pos) != 0U)
 518:Drivers/STM32WBxx_HAL_Driver/Src/stm32wbxx_hal_ipcc.c ****     {
 519:Drivers/STM32WBxx_HAL_Driver/Src/stm32wbxx_hal_ipcc.c ****       /* mask the channel Free interrupt  */
 520:Drivers/STM32WBxx_HAL_Driver/Src/stm32wbxx_hal_ipcc.c ****       currentInstance->MR |= bit_pos;
 521:Drivers/STM32WBxx_HAL_Driver/Src/stm32wbxx_hal_ipcc.c ****       if (hipcc->ChannelCallbackTx[ch_count] != NULL)
 522:Drivers/STM32WBxx_HAL_Driver/Src/stm32wbxx_hal_ipcc.c ****       {
 523:Drivers/STM32WBxx_HAL_Driver/Src/stm32wbxx_hal_ipcc.c ****         hipcc->ChannelCallbackTx[ch_count](hipcc, ch_count, IPCC_CHANNEL_DIR_TX);
 524:Drivers/STM32WBxx_HAL_Driver/Src/stm32wbxx_hal_ipcc.c ****       }
 525:Drivers/STM32WBxx_HAL_Driver/Src/stm32wbxx_hal_ipcc.c ****       irqmask =  irqmask & ~(bit_pos);
 526:Drivers/STM32WBxx_HAL_Driver/Src/stm32wbxx_hal_ipcc.c ****     }
 527:Drivers/STM32WBxx_HAL_Driver/Src/stm32wbxx_hal_ipcc.c ****     ch_count++;
 528:Drivers/STM32WBxx_HAL_Driver/Src/stm32wbxx_hal_ipcc.c ****   }
 529:Drivers/STM32WBxx_HAL_Driver/Src/stm32wbxx_hal_ipcc.c **** }
 530:Drivers/STM32WBxx_HAL_Driver/Src/stm32wbxx_hal_ipcc.c **** 
 531:Drivers/STM32WBxx_HAL_Driver/Src/stm32wbxx_hal_ipcc.c **** /**
 532:Drivers/STM32WBxx_HAL_Driver/Src/stm32wbxx_hal_ipcc.c ****   * @brief  This function handles IPCC Rx Occupied interrupt request.
 533:Drivers/STM32WBxx_HAL_Driver/Src/stm32wbxx_hal_ipcc.c ****   * @param  hipcc : IPCC handle
 534:Drivers/STM32WBxx_HAL_Driver/Src/stm32wbxx_hal_ipcc.c ****   * @retval None
 535:Drivers/STM32WBxx_HAL_Driver/Src/stm32wbxx_hal_ipcc.c ****   */
 536:Drivers/STM32WBxx_HAL_Driver/Src/stm32wbxx_hal_ipcc.c **** void HAL_IPCC_RX_IRQHandler(IPCC_HandleTypeDef *const hipcc)
 537:Drivers/STM32WBxx_HAL_Driver/Src/stm32wbxx_hal_ipcc.c **** {
 538:Drivers/STM32WBxx_HAL_Driver/Src/stm32wbxx_hal_ipcc.c ****   uint32_t irqmask;
 539:Drivers/STM32WBxx_HAL_Driver/Src/stm32wbxx_hal_ipcc.c ****   uint32_t bit_pos;
 540:Drivers/STM32WBxx_HAL_Driver/Src/stm32wbxx_hal_ipcc.c ****   uint32_t ch_count = 0U;
 541:Drivers/STM32WBxx_HAL_Driver/Src/stm32wbxx_hal_ipcc.c ****   IPCC_CommonTypeDef *currentInstance = IPCC_C1;
 542:Drivers/STM32WBxx_HAL_Driver/Src/stm32wbxx_hal_ipcc.c ****   IPCC_CommonTypeDef *otherInstance = IPCC_C2;
ARM GAS  C:\Users\bku598\AppData\Local\Temp\ccYQV0lk.s 			page 11


 543:Drivers/STM32WBxx_HAL_Driver/Src/stm32wbxx_hal_ipcc.c **** 
 544:Drivers/STM32WBxx_HAL_Driver/Src/stm32wbxx_hal_ipcc.c ****   /* check the Rx occupied channels which are not masked */
 545:Drivers/STM32WBxx_HAL_Driver/Src/stm32wbxx_hal_ipcc.c ****   irqmask = ~(currentInstance->MR) & IPCC_ALL_RX_BUF;
 546:Drivers/STM32WBxx_HAL_Driver/Src/stm32wbxx_hal_ipcc.c ****   irqmask = irqmask & otherInstance->SR;
 547:Drivers/STM32WBxx_HAL_Driver/Src/stm32wbxx_hal_ipcc.c **** 
 548:Drivers/STM32WBxx_HAL_Driver/Src/stm32wbxx_hal_ipcc.c ****   while (irqmask != 0UL)  /* if several bits are set, it loops to serve all of them */
 549:Drivers/STM32WBxx_HAL_Driver/Src/stm32wbxx_hal_ipcc.c ****   {
 550:Drivers/STM32WBxx_HAL_Driver/Src/stm32wbxx_hal_ipcc.c ****     bit_pos = 1UL << (ch_count & CHANNEL_INDEX_MASK);
 551:Drivers/STM32WBxx_HAL_Driver/Src/stm32wbxx_hal_ipcc.c **** 
 552:Drivers/STM32WBxx_HAL_Driver/Src/stm32wbxx_hal_ipcc.c ****     if ((irqmask & bit_pos) != 0U)
 553:Drivers/STM32WBxx_HAL_Driver/Src/stm32wbxx_hal_ipcc.c ****     {
 554:Drivers/STM32WBxx_HAL_Driver/Src/stm32wbxx_hal_ipcc.c ****       /* mask the channel occupied interrupt */
 555:Drivers/STM32WBxx_HAL_Driver/Src/stm32wbxx_hal_ipcc.c ****       currentInstance->MR |= bit_pos;
 556:Drivers/STM32WBxx_HAL_Driver/Src/stm32wbxx_hal_ipcc.c ****       if (hipcc->ChannelCallbackRx[ch_count] != NULL)
 557:Drivers/STM32WBxx_HAL_Driver/Src/stm32wbxx_hal_ipcc.c ****       {
 558:Drivers/STM32WBxx_HAL_Driver/Src/stm32wbxx_hal_ipcc.c ****         hipcc->ChannelCallbackRx[ch_count](hipcc, ch_count, IPCC_CHANNEL_DIR_RX);
 559:Drivers/STM32WBxx_HAL_Driver/Src/stm32wbxx_hal_ipcc.c ****       }
 560:Drivers/STM32WBxx_HAL_Driver/Src/stm32wbxx_hal_ipcc.c ****       irqmask = irqmask & ~(bit_pos);
 561:Drivers/STM32WBxx_HAL_Driver/Src/stm32wbxx_hal_ipcc.c ****     }
 562:Drivers/STM32WBxx_HAL_Driver/Src/stm32wbxx_hal_ipcc.c ****     ch_count++;
 563:Drivers/STM32WBxx_HAL_Driver/Src/stm32wbxx_hal_ipcc.c ****   }
 564:Drivers/STM32WBxx_HAL_Driver/Src/stm32wbxx_hal_ipcc.c **** }
 565:Drivers/STM32WBxx_HAL_Driver/Src/stm32wbxx_hal_ipcc.c **** 
 566:Drivers/STM32WBxx_HAL_Driver/Src/stm32wbxx_hal_ipcc.c **** /**
 567:Drivers/STM32WBxx_HAL_Driver/Src/stm32wbxx_hal_ipcc.c ****   * @brief Rx occupied callback
 568:Drivers/STM32WBxx_HAL_Driver/Src/stm32wbxx_hal_ipcc.c ****   * @param hipcc IPCC handle
 569:Drivers/STM32WBxx_HAL_Driver/Src/stm32wbxx_hal_ipcc.c ****   * @param ChannelIndex Channel number
 570:Drivers/STM32WBxx_HAL_Driver/Src/stm32wbxx_hal_ipcc.c ****   *          This parameter can be one of the following values:
 571:Drivers/STM32WBxx_HAL_Driver/Src/stm32wbxx_hal_ipcc.c ****   *            @arg IPCC_CHANNEL_1: IPCC Channel 1
 572:Drivers/STM32WBxx_HAL_Driver/Src/stm32wbxx_hal_ipcc.c ****   *            @arg IPCC_CHANNEL_2: IPCC Channel 2
 573:Drivers/STM32WBxx_HAL_Driver/Src/stm32wbxx_hal_ipcc.c ****   *            @arg IPCC_CHANNEL_3: IPCC Channel 3
 574:Drivers/STM32WBxx_HAL_Driver/Src/stm32wbxx_hal_ipcc.c ****   *            @arg IPCC_CHANNEL_4: IPCC Channel 4
 575:Drivers/STM32WBxx_HAL_Driver/Src/stm32wbxx_hal_ipcc.c ****   *            @arg IPCC_CHANNEL_5: IPCC Channel 5
 576:Drivers/STM32WBxx_HAL_Driver/Src/stm32wbxx_hal_ipcc.c ****   *            @arg IPCC_CHANNEL_6: IPCC Channel 6
 577:Drivers/STM32WBxx_HAL_Driver/Src/stm32wbxx_hal_ipcc.c ****   * @param ChannelDir Channel direction
 578:Drivers/STM32WBxx_HAL_Driver/Src/stm32wbxx_hal_ipcc.c ****   */
 579:Drivers/STM32WBxx_HAL_Driver/Src/stm32wbxx_hal_ipcc.c **** __weak void HAL_IPCC_RxCallback(IPCC_HandleTypeDef *hipcc, uint32_t ChannelIndex, IPCC_CHANNELDirTy
 580:Drivers/STM32WBxx_HAL_Driver/Src/stm32wbxx_hal_ipcc.c **** {
  30              		.loc 1 580 1 view -0
  31              		.cfi_startproc
  32              		@ args = 0, pretend = 0, frame = 0
  33              		@ frame_needed = 0, uses_anonymous_args = 0
  34              		@ link register save eliminated.
 581:Drivers/STM32WBxx_HAL_Driver/Src/stm32wbxx_hal_ipcc.c ****   /* Prevent unused argument(s) compilation warning */
 582:Drivers/STM32WBxx_HAL_Driver/Src/stm32wbxx_hal_ipcc.c ****   UNUSED(hipcc);
  35              		.loc 1 582 3 view .LVU1
 583:Drivers/STM32WBxx_HAL_Driver/Src/stm32wbxx_hal_ipcc.c ****   UNUSED(ChannelIndex);
  36              		.loc 1 583 3 view .LVU2
 584:Drivers/STM32WBxx_HAL_Driver/Src/stm32wbxx_hal_ipcc.c ****   UNUSED(ChannelDir);
  37              		.loc 1 584 3 view .LVU3
 585:Drivers/STM32WBxx_HAL_Driver/Src/stm32wbxx_hal_ipcc.c **** 
 586:Drivers/STM32WBxx_HAL_Driver/Src/stm32wbxx_hal_ipcc.c ****   /* NOTE : This function should not be modified, when the callback is needed,
 587:Drivers/STM32WBxx_HAL_Driver/Src/stm32wbxx_hal_ipcc.c ****             the HAL_IPCC_RxCallback can be implemented in the user file
 588:Drivers/STM32WBxx_HAL_Driver/Src/stm32wbxx_hal_ipcc.c ****    */
 589:Drivers/STM32WBxx_HAL_Driver/Src/stm32wbxx_hal_ipcc.c **** }
  38              		.loc 1 589 1 is_stmt 0 view .LVU4
  39 0000 7047     		bx	lr
ARM GAS  C:\Users\bku598\AppData\Local\Temp\ccYQV0lk.s 			page 12


  40              		.cfi_endproc
  41              	.LFE960:
  43              		.section	.text.HAL_IPCC_TxCallback,"ax",%progbits
  44              		.align	1
  45              		.weak	HAL_IPCC_TxCallback
  46              		.syntax unified
  47              		.thumb
  48              		.thumb_func
  50              	HAL_IPCC_TxCallback:
  51              	.LVL1:
  52              	.LFB961:
 590:Drivers/STM32WBxx_HAL_Driver/Src/stm32wbxx_hal_ipcc.c **** 
 591:Drivers/STM32WBxx_HAL_Driver/Src/stm32wbxx_hal_ipcc.c **** /**
 592:Drivers/STM32WBxx_HAL_Driver/Src/stm32wbxx_hal_ipcc.c ****   * @brief Tx free callback
 593:Drivers/STM32WBxx_HAL_Driver/Src/stm32wbxx_hal_ipcc.c ****   * @param hipcc IPCC handle
 594:Drivers/STM32WBxx_HAL_Driver/Src/stm32wbxx_hal_ipcc.c ****   * @param ChannelIndex Channel number
 595:Drivers/STM32WBxx_HAL_Driver/Src/stm32wbxx_hal_ipcc.c ****   *          This parameter can be one of the following values:
 596:Drivers/STM32WBxx_HAL_Driver/Src/stm32wbxx_hal_ipcc.c ****   *            @arg IPCC_CHANNEL_1: IPCC Channel 1
 597:Drivers/STM32WBxx_HAL_Driver/Src/stm32wbxx_hal_ipcc.c ****   *            @arg IPCC_CHANNEL_2: IPCC Channel 2
 598:Drivers/STM32WBxx_HAL_Driver/Src/stm32wbxx_hal_ipcc.c ****   *            @arg IPCC_CHANNEL_3: IPCC Channel 3
 599:Drivers/STM32WBxx_HAL_Driver/Src/stm32wbxx_hal_ipcc.c ****   *            @arg IPCC_CHANNEL_4: IPCC Channel 4
 600:Drivers/STM32WBxx_HAL_Driver/Src/stm32wbxx_hal_ipcc.c ****   *            @arg IPCC_CHANNEL_5: IPCC Channel 5
 601:Drivers/STM32WBxx_HAL_Driver/Src/stm32wbxx_hal_ipcc.c ****   *            @arg IPCC_CHANNEL_6: IPCC Channel 6
 602:Drivers/STM32WBxx_HAL_Driver/Src/stm32wbxx_hal_ipcc.c ****   * @param ChannelDir Channel direction
 603:Drivers/STM32WBxx_HAL_Driver/Src/stm32wbxx_hal_ipcc.c ****   */
 604:Drivers/STM32WBxx_HAL_Driver/Src/stm32wbxx_hal_ipcc.c **** __weak void HAL_IPCC_TxCallback(IPCC_HandleTypeDef *hipcc, uint32_t ChannelIndex, IPCC_CHANNELDirTy
 605:Drivers/STM32WBxx_HAL_Driver/Src/stm32wbxx_hal_ipcc.c **** {
  53              		.loc 1 605 1 is_stmt 1 view -0
  54              		.cfi_startproc
  55              		@ args = 0, pretend = 0, frame = 0
  56              		@ frame_needed = 0, uses_anonymous_args = 0
  57              		@ link register save eliminated.
 606:Drivers/STM32WBxx_HAL_Driver/Src/stm32wbxx_hal_ipcc.c ****   /* Prevent unused argument(s) compilation warning */
 607:Drivers/STM32WBxx_HAL_Driver/Src/stm32wbxx_hal_ipcc.c ****   UNUSED(hipcc);
  58              		.loc 1 607 3 view .LVU6
 608:Drivers/STM32WBxx_HAL_Driver/Src/stm32wbxx_hal_ipcc.c ****   UNUSED(ChannelIndex);
  59              		.loc 1 608 3 view .LVU7
 609:Drivers/STM32WBxx_HAL_Driver/Src/stm32wbxx_hal_ipcc.c ****   UNUSED(ChannelDir);
  60              		.loc 1 609 3 view .LVU8
 610:Drivers/STM32WBxx_HAL_Driver/Src/stm32wbxx_hal_ipcc.c **** 
 611:Drivers/STM32WBxx_HAL_Driver/Src/stm32wbxx_hal_ipcc.c ****   /* NOTE : This function should not be modified, when the callback is needed,
 612:Drivers/STM32WBxx_HAL_Driver/Src/stm32wbxx_hal_ipcc.c ****             the HAL_IPCC_TxCallback can be implemented in the user file
 613:Drivers/STM32WBxx_HAL_Driver/Src/stm32wbxx_hal_ipcc.c ****    */
 614:Drivers/STM32WBxx_HAL_Driver/Src/stm32wbxx_hal_ipcc.c **** }
  61              		.loc 1 614 1 is_stmt 0 view .LVU9
  62 0000 7047     		bx	lr
  63              		.cfi_endproc
  64              	.LFE961:
  66              		.section	.text.HAL_IPCC_MspInit,"ax",%progbits
  67              		.align	1
  68              		.weak	HAL_IPCC_MspInit
  69              		.syntax unified
  70              		.thumb
  71              		.thumb_func
  73              	HAL_IPCC_MspInit:
  74              	.LVL2:
  75              	.LFB952:
ARM GAS  C:\Users\bku598\AppData\Local\Temp\ccYQV0lk.s 			page 13


 212:Drivers/STM32WBxx_HAL_Driver/Src/stm32wbxx_hal_ipcc.c ****   /* Prevent unused argument(s) compilation warning */
  76              		.loc 1 212 1 is_stmt 1 view -0
  77              		.cfi_startproc
  78              		@ args = 0, pretend = 0, frame = 0
  79              		@ frame_needed = 0, uses_anonymous_args = 0
  80              		@ link register save eliminated.
 214:Drivers/STM32WBxx_HAL_Driver/Src/stm32wbxx_hal_ipcc.c **** 
  81              		.loc 1 214 3 view .LVU11
 219:Drivers/STM32WBxx_HAL_Driver/Src/stm32wbxx_hal_ipcc.c **** 
  82              		.loc 1 219 1 is_stmt 0 view .LVU12
  83 0000 7047     		bx	lr
  84              		.cfi_endproc
  85              	.LFE952:
  87              		.section	.text.HAL_IPCC_MspDeInit,"ax",%progbits
  88              		.align	1
  89              		.weak	HAL_IPCC_MspDeInit
  90              		.syntax unified
  91              		.thumb
  92              		.thumb_func
  94              	HAL_IPCC_MspDeInit:
  95              	.LVL3:
  96              	.LFB953:
 227:Drivers/STM32WBxx_HAL_Driver/Src/stm32wbxx_hal_ipcc.c ****   /* Prevent unused argument(s) compilation warning */
  97              		.loc 1 227 1 is_stmt 1 view -0
  98              		.cfi_startproc
  99              		@ args = 0, pretend = 0, frame = 0
 100              		@ frame_needed = 0, uses_anonymous_args = 0
 101              		@ link register save eliminated.
 229:Drivers/STM32WBxx_HAL_Driver/Src/stm32wbxx_hal_ipcc.c **** 
 102              		.loc 1 229 3 view .LVU14
 234:Drivers/STM32WBxx_HAL_Driver/Src/stm32wbxx_hal_ipcc.c **** 
 103              		.loc 1 234 1 is_stmt 0 view .LVU15
 104 0000 7047     		bx	lr
 105              		.cfi_endproc
 106              	.LFE953:
 108              		.section	.text.HAL_IPCC_GetChannelStatus,"ax",%progbits
 109              		.align	1
 110              		.global	HAL_IPCC_GetChannelStatus
 111              		.syntax unified
 112              		.thumb
 113              		.thumb_func
 115              	HAL_IPCC_GetChannelStatus:
 116              	.LVL4:
 117              	.LFB956:
 420:Drivers/STM32WBxx_HAL_Driver/Src/stm32wbxx_hal_ipcc.c ****   uint32_t channel_state;
 118              		.loc 1 420 1 is_stmt 1 view -0
 119              		.cfi_startproc
 120              		@ args = 0, pretend = 0, frame = 0
 121              		@ frame_needed = 0, uses_anonymous_args = 0
 122              		@ link register save eliminated.
 421:Drivers/STM32WBxx_HAL_Driver/Src/stm32wbxx_hal_ipcc.c ****   IPCC_CommonTypeDef *currentInstance = IPCC_C1;
 123              		.loc 1 421 3 view .LVU17
 422:Drivers/STM32WBxx_HAL_Driver/Src/stm32wbxx_hal_ipcc.c ****   IPCC_CommonTypeDef *otherInstance = IPCC_C2;
 124              		.loc 1 422 3 view .LVU18
 423:Drivers/STM32WBxx_HAL_Driver/Src/stm32wbxx_hal_ipcc.c **** 
 125              		.loc 1 423 3 view .LVU19
 426:Drivers/STM32WBxx_HAL_Driver/Src/stm32wbxx_hal_ipcc.c **** 
ARM GAS  C:\Users\bku598\AppData\Local\Temp\ccYQV0lk.s 			page 14


 126              		.loc 1 426 3 view .LVU20
 429:Drivers/STM32WBxx_HAL_Driver/Src/stm32wbxx_hal_ipcc.c ****   {
 127              		.loc 1 429 3 view .LVU21
 429:Drivers/STM32WBxx_HAL_Driver/Src/stm32wbxx_hal_ipcc.c ****   {
 128              		.loc 1 429 6 is_stmt 0 view .LVU22
 129 0000 52B9     		cbnz	r2, .L6
 431:Drivers/STM32WBxx_HAL_Driver/Src/stm32wbxx_hal_ipcc.c ****   }
 130              		.loc 1 431 5 is_stmt 1 view .LVU23
 431:Drivers/STM32WBxx_HAL_Driver/Src/stm32wbxx_hal_ipcc.c ****   }
 131              		.loc 1 431 37 is_stmt 0 view .LVU24
 132 0002 094B     		ldr	r3, .L8
 133 0004 D868     		ldr	r0, [r3, #12]
 134              	.LVL5:
 431:Drivers/STM32WBxx_HAL_Driver/Src/stm32wbxx_hal_ipcc.c ****   }
 135              		.loc 1 431 80 view .LVU25
 136 0006 01F00F01 		and	r1, r1, #15
 137              	.LVL6:
 431:Drivers/STM32WBxx_HAL_Driver/Src/stm32wbxx_hal_ipcc.c ****   }
 138              		.loc 1 431 63 view .LVU26
 139 000a 0123     		movs	r3, #1
 140 000c 8B40     		lsls	r3, r3, r1
 431:Drivers/STM32WBxx_HAL_Driver/Src/stm32wbxx_hal_ipcc.c ****   }
 141              		.loc 1 431 19 view .LVU27
 142 000e 1840     		ands	r0, r0, r3
 143              	.LVL7:
 144              	.L7:
 438:Drivers/STM32WBxx_HAL_Driver/Src/stm32wbxx_hal_ipcc.c **** }
 145              		.loc 1 438 3 is_stmt 1 view .LVU28
 439:Drivers/STM32WBxx_HAL_Driver/Src/stm32wbxx_hal_ipcc.c **** 
 146              		.loc 1 439 1 is_stmt 0 view .LVU29
 147 0010 0038     		subs	r0, r0, #0
 439:Drivers/STM32WBxx_HAL_Driver/Src/stm32wbxx_hal_ipcc.c **** 
 148              		.loc 1 439 1 view .LVU30
 149 0012 18BF     		it	ne
 150 0014 0120     		movne	r0, #1
 151              	.LVL8:
 439:Drivers/STM32WBxx_HAL_Driver/Src/stm32wbxx_hal_ipcc.c **** 
 152              		.loc 1 439 1 view .LVU31
 153 0016 7047     		bx	lr
 154              	.LVL9:
 155              	.L6:
 435:Drivers/STM32WBxx_HAL_Driver/Src/stm32wbxx_hal_ipcc.c ****   }
 156              		.loc 1 435 5 is_stmt 1 view .LVU32
 435:Drivers/STM32WBxx_HAL_Driver/Src/stm32wbxx_hal_ipcc.c ****   }
 157              		.loc 1 435 35 is_stmt 0 view .LVU33
 158 0018 034B     		ldr	r3, .L8
 159 001a D869     		ldr	r0, [r3, #28]
 160              	.LVL10:
 435:Drivers/STM32WBxx_HAL_Driver/Src/stm32wbxx_hal_ipcc.c ****   }
 161              		.loc 1 435 78 view .LVU34
 162 001c 01F00F01 		and	r1, r1, #15
 163              	.LVL11:
 435:Drivers/STM32WBxx_HAL_Driver/Src/stm32wbxx_hal_ipcc.c ****   }
 164              		.loc 1 435 61 view .LVU35
 165 0020 0123     		movs	r3, #1
 166 0022 8B40     		lsls	r3, r3, r1
 435:Drivers/STM32WBxx_HAL_Driver/Src/stm32wbxx_hal_ipcc.c ****   }
ARM GAS  C:\Users\bku598\AppData\Local\Temp\ccYQV0lk.s 			page 15


 167              		.loc 1 435 19 view .LVU36
 168 0024 1840     		ands	r0, r0, r3
 169              	.LVL12:
 435:Drivers/STM32WBxx_HAL_Driver/Src/stm32wbxx_hal_ipcc.c ****   }
 170              		.loc 1 435 19 view .LVU37
 171 0026 F3E7     		b	.L7
 172              	.L9:
 173              		.align	2
 174              	.L8:
 175 0028 000C0058 		.word	1476398080
 176              		.cfi_endproc
 177              	.LFE956:
 179              		.section	.text.HAL_IPCC_TX_IRQHandler,"ax",%progbits
 180              		.align	1
 181              		.global	HAL_IPCC_TX_IRQHandler
 182              		.syntax unified
 183              		.thumb
 184              		.thumb_func
 186              	HAL_IPCC_TX_IRQHandler:
 187              	.LVL13:
 188              	.LFB958:
 503:Drivers/STM32WBxx_HAL_Driver/Src/stm32wbxx_hal_ipcc.c ****   uint32_t irqmask;
 189              		.loc 1 503 1 is_stmt 1 view -0
 190              		.cfi_startproc
 191              		@ args = 0, pretend = 0, frame = 0
 192              		@ frame_needed = 0, uses_anonymous_args = 0
 503:Drivers/STM32WBxx_HAL_Driver/Src/stm32wbxx_hal_ipcc.c ****   uint32_t irqmask;
 193              		.loc 1 503 1 is_stmt 0 view .LVU39
 194 0000 F8B5     		push	{r3, r4, r5, r6, r7, lr}
 195              	.LCFI0:
 196              		.cfi_def_cfa_offset 24
 197              		.cfi_offset 3, -24
 198              		.cfi_offset 4, -20
 199              		.cfi_offset 5, -16
 200              		.cfi_offset 6, -12
 201              		.cfi_offset 7, -8
 202              		.cfi_offset 14, -4
 203 0002 0746     		mov	r7, r0
 504:Drivers/STM32WBxx_HAL_Driver/Src/stm32wbxx_hal_ipcc.c ****   uint32_t bit_pos;
 204              		.loc 1 504 3 is_stmt 1 view .LVU40
 505:Drivers/STM32WBxx_HAL_Driver/Src/stm32wbxx_hal_ipcc.c ****   uint32_t ch_count = 0U;
 205              		.loc 1 505 3 view .LVU41
 506:Drivers/STM32WBxx_HAL_Driver/Src/stm32wbxx_hal_ipcc.c ****   IPCC_CommonTypeDef *currentInstance = IPCC_C1;
 206              		.loc 1 506 3 view .LVU42
 207              	.LVL14:
 507:Drivers/STM32WBxx_HAL_Driver/Src/stm32wbxx_hal_ipcc.c **** 
 208              		.loc 1 507 3 view .LVU43
 510:Drivers/STM32WBxx_HAL_Driver/Src/stm32wbxx_hal_ipcc.c ****   irqmask = irqmask & ~(currentInstance->SR << IPCC_MR_CH1FM_Pos);
 209              		.loc 1 510 3 view .LVU44
 510:Drivers/STM32WBxx_HAL_Driver/Src/stm32wbxx_hal_ipcc.c ****   irqmask = irqmask & ~(currentInstance->SR << IPCC_MR_CH1FM_Pos);
 210              		.loc 1 510 30 is_stmt 0 view .LVU45
 211 0004 124B     		ldr	r3, .L18
 212 0006 5D68     		ldr	r5, [r3, #4]
 510:Drivers/STM32WBxx_HAL_Driver/Src/stm32wbxx_hal_ipcc.c ****   irqmask = irqmask & ~(currentInstance->SR << IPCC_MR_CH1FM_Pos);
 213              		.loc 1 510 13 view .LVU46
 214 0008 ED43     		mvns	r5, r5
 510:Drivers/STM32WBxx_HAL_Driver/Src/stm32wbxx_hal_ipcc.c ****   irqmask = irqmask & ~(currentInstance->SR << IPCC_MR_CH1FM_Pos);
ARM GAS  C:\Users\bku598\AppData\Local\Temp\ccYQV0lk.s 			page 16


 215              		.loc 1 510 11 view .LVU47
 216 000a 05F47C15 		and	r5, r5, #4128768
 217              	.LVL15:
 511:Drivers/STM32WBxx_HAL_Driver/Src/stm32wbxx_hal_ipcc.c **** 
 218              		.loc 1 511 3 is_stmt 1 view .LVU48
 511:Drivers/STM32WBxx_HAL_Driver/Src/stm32wbxx_hal_ipcc.c **** 
 219              		.loc 1 511 40 is_stmt 0 view .LVU49
 220 000e DB68     		ldr	r3, [r3, #12]
 511:Drivers/STM32WBxx_HAL_Driver/Src/stm32wbxx_hal_ipcc.c **** 
 221              		.loc 1 511 11 view .LVU50
 222 0010 25EA0345 		bic	r5, r5, r3, lsl #16
 223              	.LVL16:
 513:Drivers/STM32WBxx_HAL_Driver/Src/stm32wbxx_hal_ipcc.c ****   {
 224              		.loc 1 513 3 is_stmt 1 view .LVU51
 506:Drivers/STM32WBxx_HAL_Driver/Src/stm32wbxx_hal_ipcc.c ****   IPCC_CommonTypeDef *currentInstance = IPCC_C1;
 225              		.loc 1 506 12 is_stmt 0 view .LVU52
 226 0014 0026     		movs	r6, #0
 513:Drivers/STM32WBxx_HAL_Driver/Src/stm32wbxx_hal_ipcc.c ****   {
 227              		.loc 1 513 9 view .LVU53
 228 0016 06E0     		b	.L11
 229              	.LVL17:
 230              	.L17:
 523:Drivers/STM32WBxx_HAL_Driver/Src/stm32wbxx_hal_ipcc.c ****       }
 231              		.loc 1 523 9 is_stmt 1 view .LVU54
 232 0018 0022     		movs	r2, #0
 233 001a 3146     		mov	r1, r6
 234 001c 3846     		mov	r0, r7
 235 001e 9847     		blx	r3
 236              	.LVL18:
 237              	.L13:
 525:Drivers/STM32WBxx_HAL_Driver/Src/stm32wbxx_hal_ipcc.c ****     }
 238              		.loc 1 525 7 view .LVU55
 525:Drivers/STM32WBxx_HAL_Driver/Src/stm32wbxx_hal_ipcc.c ****     }
 239              		.loc 1 525 15 is_stmt 0 view .LVU56
 240 0020 25EA0405 		bic	r5, r5, r4
 241              	.LVL19:
 242              	.L12:
 527:Drivers/STM32WBxx_HAL_Driver/Src/stm32wbxx_hal_ipcc.c ****   }
 243              		.loc 1 527 5 is_stmt 1 view .LVU57
 527:Drivers/STM32WBxx_HAL_Driver/Src/stm32wbxx_hal_ipcc.c ****   }
 244              		.loc 1 527 13 is_stmt 0 view .LVU58
 245 0024 0136     		adds	r6, r6, #1
 246              	.LVL20:
 247              	.L11:
 513:Drivers/STM32WBxx_HAL_Driver/Src/stm32wbxx_hal_ipcc.c ****   {
 248              		.loc 1 513 18 is_stmt 1 view .LVU59
 249 0026 8DB1     		cbz	r5, .L16
 515:Drivers/STM32WBxx_HAL_Driver/Src/stm32wbxx_hal_ipcc.c **** 
 250              		.loc 1 515 5 view .LVU60
 515:Drivers/STM32WBxx_HAL_Driver/Src/stm32wbxx_hal_ipcc.c **** 
 251              		.loc 1 515 53 is_stmt 0 view .LVU61
 252 0028 06F00F03 		and	r3, r6, #15
 515:Drivers/STM32WBxx_HAL_Driver/Src/stm32wbxx_hal_ipcc.c **** 
 253              		.loc 1 515 41 view .LVU62
 254 002c 1033     		adds	r3, r3, #16
 515:Drivers/STM32WBxx_HAL_Driver/Src/stm32wbxx_hal_ipcc.c **** 
 255              		.loc 1 515 13 view .LVU63
ARM GAS  C:\Users\bku598\AppData\Local\Temp\ccYQV0lk.s 			page 17


 256 002e 0124     		movs	r4, #1
 257 0030 9C40     		lsls	r4, r4, r3
 258              	.LVL21:
 517:Drivers/STM32WBxx_HAL_Driver/Src/stm32wbxx_hal_ipcc.c ****     {
 259              		.loc 1 517 5 is_stmt 1 view .LVU64
 517:Drivers/STM32WBxx_HAL_Driver/Src/stm32wbxx_hal_ipcc.c ****     {
 260              		.loc 1 517 8 is_stmt 0 view .LVU65
 261 0032 2542     		tst	r5, r4
 262 0034 F6D0     		beq	.L12
 520:Drivers/STM32WBxx_HAL_Driver/Src/stm32wbxx_hal_ipcc.c ****       if (hipcc->ChannelCallbackTx[ch_count] != NULL)
 263              		.loc 1 520 7 is_stmt 1 view .LVU66
 520:Drivers/STM32WBxx_HAL_Driver/Src/stm32wbxx_hal_ipcc.c ****       if (hipcc->ChannelCallbackTx[ch_count] != NULL)
 264              		.loc 1 520 22 is_stmt 0 view .LVU67
 265 0036 064A     		ldr	r2, .L18
 266 0038 5368     		ldr	r3, [r2, #4]
 520:Drivers/STM32WBxx_HAL_Driver/Src/stm32wbxx_hal_ipcc.c ****       if (hipcc->ChannelCallbackTx[ch_count] != NULL)
 267              		.loc 1 520 27 view .LVU68
 268 003a 2343     		orrs	r3, r3, r4
 269 003c 5360     		str	r3, [r2, #4]
 521:Drivers/STM32WBxx_HAL_Driver/Src/stm32wbxx_hal_ipcc.c ****       {
 270              		.loc 1 521 7 is_stmt 1 view .LVU69
 521:Drivers/STM32WBxx_HAL_Driver/Src/stm32wbxx_hal_ipcc.c ****       {
 271              		.loc 1 521 35 is_stmt 0 view .LVU70
 272 003e B31D     		adds	r3, r6, #6
 273 0040 07EB8303 		add	r3, r7, r3, lsl #2
 274 0044 5B68     		ldr	r3, [r3, #4]
 521:Drivers/STM32WBxx_HAL_Driver/Src/stm32wbxx_hal_ipcc.c ****       {
 275              		.loc 1 521 10 view .LVU71
 276 0046 002B     		cmp	r3, #0
 277 0048 E6D1     		bne	.L17
 278 004a E9E7     		b	.L13
 279              	.LVL22:
 280              	.L16:
 529:Drivers/STM32WBxx_HAL_Driver/Src/stm32wbxx_hal_ipcc.c **** 
 281              		.loc 1 529 1 view .LVU72
 282 004c F8BD     		pop	{r3, r4, r5, r6, r7, pc}
 283              	.LVL23:
 284              	.L19:
 529:Drivers/STM32WBxx_HAL_Driver/Src/stm32wbxx_hal_ipcc.c **** 
 285              		.loc 1 529 1 view .LVU73
 286 004e 00BF     		.align	2
 287              	.L18:
 288 0050 000C0058 		.word	1476398080
 289              		.cfi_endproc
 290              	.LFE958:
 292              		.section	.text.HAL_IPCC_RX_IRQHandler,"ax",%progbits
 293              		.align	1
 294              		.global	HAL_IPCC_RX_IRQHandler
 295              		.syntax unified
 296              		.thumb
 297              		.thumb_func
 299              	HAL_IPCC_RX_IRQHandler:
 300              	.LVL24:
 301              	.LFB959:
 537:Drivers/STM32WBxx_HAL_Driver/Src/stm32wbxx_hal_ipcc.c ****   uint32_t irqmask;
 302              		.loc 1 537 1 is_stmt 1 view -0
 303              		.cfi_startproc
ARM GAS  C:\Users\bku598\AppData\Local\Temp\ccYQV0lk.s 			page 18


 304              		@ args = 0, pretend = 0, frame = 0
 305              		@ frame_needed = 0, uses_anonymous_args = 0
 537:Drivers/STM32WBxx_HAL_Driver/Src/stm32wbxx_hal_ipcc.c ****   uint32_t irqmask;
 306              		.loc 1 537 1 is_stmt 0 view .LVU75
 307 0000 F8B5     		push	{r3, r4, r5, r6, r7, lr}
 308              	.LCFI1:
 309              		.cfi_def_cfa_offset 24
 310              		.cfi_offset 3, -24
 311              		.cfi_offset 4, -20
 312              		.cfi_offset 5, -16
 313              		.cfi_offset 6, -12
 314              		.cfi_offset 7, -8
 315              		.cfi_offset 14, -4
 316 0002 0746     		mov	r7, r0
 538:Drivers/STM32WBxx_HAL_Driver/Src/stm32wbxx_hal_ipcc.c ****   uint32_t bit_pos;
 317              		.loc 1 538 3 is_stmt 1 view .LVU76
 539:Drivers/STM32WBxx_HAL_Driver/Src/stm32wbxx_hal_ipcc.c ****   uint32_t ch_count = 0U;
 318              		.loc 1 539 3 view .LVU77
 540:Drivers/STM32WBxx_HAL_Driver/Src/stm32wbxx_hal_ipcc.c ****   IPCC_CommonTypeDef *currentInstance = IPCC_C1;
 319              		.loc 1 540 3 view .LVU78
 320              	.LVL25:
 541:Drivers/STM32WBxx_HAL_Driver/Src/stm32wbxx_hal_ipcc.c ****   IPCC_CommonTypeDef *otherInstance = IPCC_C2;
 321              		.loc 1 541 3 view .LVU79
 542:Drivers/STM32WBxx_HAL_Driver/Src/stm32wbxx_hal_ipcc.c **** 
 322              		.loc 1 542 3 view .LVU80
 545:Drivers/STM32WBxx_HAL_Driver/Src/stm32wbxx_hal_ipcc.c ****   irqmask = irqmask & otherInstance->SR;
 323              		.loc 1 545 3 view .LVU81
 545:Drivers/STM32WBxx_HAL_Driver/Src/stm32wbxx_hal_ipcc.c ****   irqmask = irqmask & otherInstance->SR;
 324              		.loc 1 545 30 is_stmt 0 view .LVU82
 325 0004 104A     		ldr	r2, .L28
 326 0006 5368     		ldr	r3, [r2, #4]
 545:Drivers/STM32WBxx_HAL_Driver/Src/stm32wbxx_hal_ipcc.c ****   irqmask = irqmask & otherInstance->SR;
 327              		.loc 1 545 13 view .LVU83
 328 0008 DB43     		mvns	r3, r3
 545:Drivers/STM32WBxx_HAL_Driver/Src/stm32wbxx_hal_ipcc.c ****   irqmask = irqmask & otherInstance->SR;
 329              		.loc 1 545 11 view .LVU84
 330 000a 03F03F03 		and	r3, r3, #63
 331              	.LVL26:
 546:Drivers/STM32WBxx_HAL_Driver/Src/stm32wbxx_hal_ipcc.c **** 
 332              		.loc 1 546 3 is_stmt 1 view .LVU85
 546:Drivers/STM32WBxx_HAL_Driver/Src/stm32wbxx_hal_ipcc.c **** 
 333              		.loc 1 546 36 is_stmt 0 view .LVU86
 334 000e D669     		ldr	r6, [r2, #28]
 546:Drivers/STM32WBxx_HAL_Driver/Src/stm32wbxx_hal_ipcc.c **** 
 335              		.loc 1 546 11 view .LVU87
 336 0010 1E40     		ands	r6, r6, r3
 337              	.LVL27:
 548:Drivers/STM32WBxx_HAL_Driver/Src/stm32wbxx_hal_ipcc.c ****   {
 338              		.loc 1 548 3 is_stmt 1 view .LVU88
 540:Drivers/STM32WBxx_HAL_Driver/Src/stm32wbxx_hal_ipcc.c ****   IPCC_CommonTypeDef *currentInstance = IPCC_C1;
 339              		.loc 1 540 12 is_stmt 0 view .LVU89
 340 0012 0025     		movs	r5, #0
 548:Drivers/STM32WBxx_HAL_Driver/Src/stm32wbxx_hal_ipcc.c ****   {
 341              		.loc 1 548 9 view .LVU90
 342 0014 06E0     		b	.L21
 343              	.LVL28:
 344              	.L27:
ARM GAS  C:\Users\bku598\AppData\Local\Temp\ccYQV0lk.s 			page 19


 558:Drivers/STM32WBxx_HAL_Driver/Src/stm32wbxx_hal_ipcc.c ****       }
 345              		.loc 1 558 9 is_stmt 1 view .LVU91
 346 0016 0122     		movs	r2, #1
 347 0018 2946     		mov	r1, r5
 348 001a 3846     		mov	r0, r7
 349 001c 9847     		blx	r3
 350              	.LVL29:
 351              	.L23:
 560:Drivers/STM32WBxx_HAL_Driver/Src/stm32wbxx_hal_ipcc.c ****     }
 352              		.loc 1 560 7 view .LVU92
 560:Drivers/STM32WBxx_HAL_Driver/Src/stm32wbxx_hal_ipcc.c ****     }
 353              		.loc 1 560 15 is_stmt 0 view .LVU93
 354 001e 26EA0406 		bic	r6, r6, r4
 355              	.LVL30:
 356              	.L22:
 562:Drivers/STM32WBxx_HAL_Driver/Src/stm32wbxx_hal_ipcc.c ****   }
 357              		.loc 1 562 5 is_stmt 1 view .LVU94
 562:Drivers/STM32WBxx_HAL_Driver/Src/stm32wbxx_hal_ipcc.c ****   }
 358              		.loc 1 562 13 is_stmt 0 view .LVU95
 359 0022 0135     		adds	r5, r5, #1
 360              	.LVL31:
 361              	.L21:
 548:Drivers/STM32WBxx_HAL_Driver/Src/stm32wbxx_hal_ipcc.c ****   {
 362              		.loc 1 548 18 is_stmt 1 view .LVU96
 363 0024 7EB1     		cbz	r6, .L26
 550:Drivers/STM32WBxx_HAL_Driver/Src/stm32wbxx_hal_ipcc.c **** 
 364              		.loc 1 550 5 view .LVU97
 550:Drivers/STM32WBxx_HAL_Driver/Src/stm32wbxx_hal_ipcc.c **** 
 365              		.loc 1 550 32 is_stmt 0 view .LVU98
 366 0026 05F00F03 		and	r3, r5, #15
 550:Drivers/STM32WBxx_HAL_Driver/Src/stm32wbxx_hal_ipcc.c **** 
 367              		.loc 1 550 13 view .LVU99
 368 002a 0124     		movs	r4, #1
 369 002c 9C40     		lsls	r4, r4, r3
 370              	.LVL32:
 552:Drivers/STM32WBxx_HAL_Driver/Src/stm32wbxx_hal_ipcc.c ****     {
 371              		.loc 1 552 5 is_stmt 1 view .LVU100
 552:Drivers/STM32WBxx_HAL_Driver/Src/stm32wbxx_hal_ipcc.c ****     {
 372              		.loc 1 552 8 is_stmt 0 view .LVU101
 373 002e 2642     		tst	r6, r4
 374 0030 F7D0     		beq	.L22
 555:Drivers/STM32WBxx_HAL_Driver/Src/stm32wbxx_hal_ipcc.c ****       if (hipcc->ChannelCallbackRx[ch_count] != NULL)
 375              		.loc 1 555 7 is_stmt 1 view .LVU102
 555:Drivers/STM32WBxx_HAL_Driver/Src/stm32wbxx_hal_ipcc.c ****       if (hipcc->ChannelCallbackRx[ch_count] != NULL)
 376              		.loc 1 555 22 is_stmt 0 view .LVU103
 377 0032 054A     		ldr	r2, .L28
 378 0034 5368     		ldr	r3, [r2, #4]
 555:Drivers/STM32WBxx_HAL_Driver/Src/stm32wbxx_hal_ipcc.c ****       if (hipcc->ChannelCallbackRx[ch_count] != NULL)
 379              		.loc 1 555 27 view .LVU104
 380 0036 2343     		orrs	r3, r3, r4
 381 0038 5360     		str	r3, [r2, #4]
 556:Drivers/STM32WBxx_HAL_Driver/Src/stm32wbxx_hal_ipcc.c ****       {
 382              		.loc 1 556 7 is_stmt 1 view .LVU105
 556:Drivers/STM32WBxx_HAL_Driver/Src/stm32wbxx_hal_ipcc.c ****       {
 383              		.loc 1 556 35 is_stmt 0 view .LVU106
 384 003a 07EB8503 		add	r3, r7, r5, lsl #2
 385 003e 5B68     		ldr	r3, [r3, #4]
ARM GAS  C:\Users\bku598\AppData\Local\Temp\ccYQV0lk.s 			page 20


 556:Drivers/STM32WBxx_HAL_Driver/Src/stm32wbxx_hal_ipcc.c ****       {
 386              		.loc 1 556 10 view .LVU107
 387 0040 002B     		cmp	r3, #0
 388 0042 E8D1     		bne	.L27
 389 0044 EBE7     		b	.L23
 390              	.LVL33:
 391              	.L26:
 564:Drivers/STM32WBxx_HAL_Driver/Src/stm32wbxx_hal_ipcc.c **** 
 392              		.loc 1 564 1 view .LVU108
 393 0046 F8BD     		pop	{r3, r4, r5, r6, r7, pc}
 394              	.LVL34:
 395              	.L29:
 564:Drivers/STM32WBxx_HAL_Driver/Src/stm32wbxx_hal_ipcc.c **** 
 396              		.loc 1 564 1 view .LVU109
 397              		.align	2
 398              	.L28:
 399 0048 000C0058 		.word	1476398080
 400              		.cfi_endproc
 401              	.LFE959:
 403              		.section	.text.HAL_IPCC_GetState,"ax",%progbits
 404              		.align	1
 405              		.global	HAL_IPCC_GetState
 406              		.syntax unified
 407              		.thumb
 408              		.thumb_func
 410              	HAL_IPCC_GetState:
 411              	.LVL35:
 412              	.LFB962:
 615:Drivers/STM32WBxx_HAL_Driver/Src/stm32wbxx_hal_ipcc.c **** 
 616:Drivers/STM32WBxx_HAL_Driver/Src/stm32wbxx_hal_ipcc.c **** /**
 617:Drivers/STM32WBxx_HAL_Driver/Src/stm32wbxx_hal_ipcc.c ****   * @}
 618:Drivers/STM32WBxx_HAL_Driver/Src/stm32wbxx_hal_ipcc.c ****   */
 619:Drivers/STM32WBxx_HAL_Driver/Src/stm32wbxx_hal_ipcc.c **** 
 620:Drivers/STM32WBxx_HAL_Driver/Src/stm32wbxx_hal_ipcc.c **** /** @addtogroup IPCC_Exported_Functions_Group3
 621:Drivers/STM32WBxx_HAL_Driver/Src/stm32wbxx_hal_ipcc.c ****   *  @brief   IPCC Peripheral State and Error functions
 622:Drivers/STM32WBxx_HAL_Driver/Src/stm32wbxx_hal_ipcc.c ****   *
 623:Drivers/STM32WBxx_HAL_Driver/Src/stm32wbxx_hal_ipcc.c **** @verbatim
 624:Drivers/STM32WBxx_HAL_Driver/Src/stm32wbxx_hal_ipcc.c ****   ==============================================================================
 625:Drivers/STM32WBxx_HAL_Driver/Src/stm32wbxx_hal_ipcc.c ****             ##### Peripheral State and Error functions #####
 626:Drivers/STM32WBxx_HAL_Driver/Src/stm32wbxx_hal_ipcc.c ****   ==============================================================================
 627:Drivers/STM32WBxx_HAL_Driver/Src/stm32wbxx_hal_ipcc.c ****     [..]
 628:Drivers/STM32WBxx_HAL_Driver/Src/stm32wbxx_hal_ipcc.c ****     This subsection permit to get in run-time the status of the peripheral
 629:Drivers/STM32WBxx_HAL_Driver/Src/stm32wbxx_hal_ipcc.c ****     and the data flow.
 630:Drivers/STM32WBxx_HAL_Driver/Src/stm32wbxx_hal_ipcc.c **** 
 631:Drivers/STM32WBxx_HAL_Driver/Src/stm32wbxx_hal_ipcc.c **** @endverbatim
 632:Drivers/STM32WBxx_HAL_Driver/Src/stm32wbxx_hal_ipcc.c ****   * @{
 633:Drivers/STM32WBxx_HAL_Driver/Src/stm32wbxx_hal_ipcc.c ****   */
 634:Drivers/STM32WBxx_HAL_Driver/Src/stm32wbxx_hal_ipcc.c **** 
 635:Drivers/STM32WBxx_HAL_Driver/Src/stm32wbxx_hal_ipcc.c **** /**
 636:Drivers/STM32WBxx_HAL_Driver/Src/stm32wbxx_hal_ipcc.c ****   * @brief Return the IPCC handle state.
 637:Drivers/STM32WBxx_HAL_Driver/Src/stm32wbxx_hal_ipcc.c ****   * @param  hipcc IPCC handle
 638:Drivers/STM32WBxx_HAL_Driver/Src/stm32wbxx_hal_ipcc.c ****   * @retval IPCC handle state
 639:Drivers/STM32WBxx_HAL_Driver/Src/stm32wbxx_hal_ipcc.c ****   */
 640:Drivers/STM32WBxx_HAL_Driver/Src/stm32wbxx_hal_ipcc.c **** HAL_IPCC_StateTypeDef HAL_IPCC_GetState(IPCC_HandleTypeDef const *const hipcc)
 641:Drivers/STM32WBxx_HAL_Driver/Src/stm32wbxx_hal_ipcc.c **** {
 413              		.loc 1 641 1 is_stmt 1 view -0
 414              		.cfi_startproc
ARM GAS  C:\Users\bku598\AppData\Local\Temp\ccYQV0lk.s 			page 21


 415              		@ args = 0, pretend = 0, frame = 0
 416              		@ frame_needed = 0, uses_anonymous_args = 0
 417              		@ link register save eliminated.
 642:Drivers/STM32WBxx_HAL_Driver/Src/stm32wbxx_hal_ipcc.c ****   return hipcc->State;
 418              		.loc 1 642 3 view .LVU111
 419              		.loc 1 642 15 is_stmt 0 view .LVU112
 420 0000 90F83800 		ldrb	r0, [r0, #56]	@ zero_extendqisi2
 421              	.LVL36:
 643:Drivers/STM32WBxx_HAL_Driver/Src/stm32wbxx_hal_ipcc.c **** }
 422              		.loc 1 643 1 view .LVU113
 423 0004 7047     		bx	lr
 424              		.cfi_endproc
 425              	.LFE962:
 427              		.section	.text.IPCC_MaskInterrupt,"ax",%progbits
 428              		.align	1
 429              		.global	IPCC_MaskInterrupt
 430              		.syntax unified
 431              		.thumb
 432              		.thumb_func
 434              	IPCC_MaskInterrupt:
 435              	.LVL37:
 436              	.LFB963:
 644:Drivers/STM32WBxx_HAL_Driver/Src/stm32wbxx_hal_ipcc.c **** 
 645:Drivers/STM32WBxx_HAL_Driver/Src/stm32wbxx_hal_ipcc.c **** /**
 646:Drivers/STM32WBxx_HAL_Driver/Src/stm32wbxx_hal_ipcc.c ****   * @}
 647:Drivers/STM32WBxx_HAL_Driver/Src/stm32wbxx_hal_ipcc.c ****   */
 648:Drivers/STM32WBxx_HAL_Driver/Src/stm32wbxx_hal_ipcc.c **** 
 649:Drivers/STM32WBxx_HAL_Driver/Src/stm32wbxx_hal_ipcc.c **** /**
 650:Drivers/STM32WBxx_HAL_Driver/Src/stm32wbxx_hal_ipcc.c ****   * @}
 651:Drivers/STM32WBxx_HAL_Driver/Src/stm32wbxx_hal_ipcc.c ****   */
 652:Drivers/STM32WBxx_HAL_Driver/Src/stm32wbxx_hal_ipcc.c **** 
 653:Drivers/STM32WBxx_HAL_Driver/Src/stm32wbxx_hal_ipcc.c **** /** @addtogroup IPCC_Private_Functions
 654:Drivers/STM32WBxx_HAL_Driver/Src/stm32wbxx_hal_ipcc.c ****   * @{
 655:Drivers/STM32WBxx_HAL_Driver/Src/stm32wbxx_hal_ipcc.c ****   */
 656:Drivers/STM32WBxx_HAL_Driver/Src/stm32wbxx_hal_ipcc.c **** 
 657:Drivers/STM32WBxx_HAL_Driver/Src/stm32wbxx_hal_ipcc.c **** /**
 658:Drivers/STM32WBxx_HAL_Driver/Src/stm32wbxx_hal_ipcc.c ****   * @brief  Mask IPCC interrupts.
 659:Drivers/STM32WBxx_HAL_Driver/Src/stm32wbxx_hal_ipcc.c ****   * @param  ChannelIndex Channel number
 660:Drivers/STM32WBxx_HAL_Driver/Src/stm32wbxx_hal_ipcc.c ****   *          This parameter can be one of the following values:
 661:Drivers/STM32WBxx_HAL_Driver/Src/stm32wbxx_hal_ipcc.c ****   *            @arg IPCC_CHANNEL_1: IPCC Channel 1
 662:Drivers/STM32WBxx_HAL_Driver/Src/stm32wbxx_hal_ipcc.c ****   *            @arg IPCC_CHANNEL_2: IPCC Channel 2
 663:Drivers/STM32WBxx_HAL_Driver/Src/stm32wbxx_hal_ipcc.c ****   *            @arg IPCC_CHANNEL_3: IPCC Channel 3
 664:Drivers/STM32WBxx_HAL_Driver/Src/stm32wbxx_hal_ipcc.c ****   *            @arg IPCC_CHANNEL_4: IPCC Channel 4
 665:Drivers/STM32WBxx_HAL_Driver/Src/stm32wbxx_hal_ipcc.c ****   *            @arg IPCC_CHANNEL_5: IPCC Channel 5
 666:Drivers/STM32WBxx_HAL_Driver/Src/stm32wbxx_hal_ipcc.c ****   *            @arg IPCC_CHANNEL_6: IPCC Channel 6
 667:Drivers/STM32WBxx_HAL_Driver/Src/stm32wbxx_hal_ipcc.c ****   * @param  ChannelDir Channel direction
 668:Drivers/STM32WBxx_HAL_Driver/Src/stm32wbxx_hal_ipcc.c ****   */
 669:Drivers/STM32WBxx_HAL_Driver/Src/stm32wbxx_hal_ipcc.c **** void IPCC_MaskInterrupt(uint32_t ChannelIndex, IPCC_CHANNELDirTypeDef ChannelDir)
 670:Drivers/STM32WBxx_HAL_Driver/Src/stm32wbxx_hal_ipcc.c **** {
 437              		.loc 1 670 1 is_stmt 1 view -0
 438              		.cfi_startproc
 439              		@ args = 0, pretend = 0, frame = 0
 440              		@ frame_needed = 0, uses_anonymous_args = 0
 441              		@ link register save eliminated.
 671:Drivers/STM32WBxx_HAL_Driver/Src/stm32wbxx_hal_ipcc.c ****   IPCC_CommonTypeDef *currentInstance = IPCC_C1;
 442              		.loc 1 671 3 view .LVU115
 672:Drivers/STM32WBxx_HAL_Driver/Src/stm32wbxx_hal_ipcc.c ****   if (ChannelDir == IPCC_CHANNEL_DIR_TX)
ARM GAS  C:\Users\bku598\AppData\Local\Temp\ccYQV0lk.s 			page 22


 443              		.loc 1 672 3 view .LVU116
 444              		.loc 1 672 6 is_stmt 0 view .LVU117
 445 0000 49B9     		cbnz	r1, .L32
 673:Drivers/STM32WBxx_HAL_Driver/Src/stm32wbxx_hal_ipcc.c ****   {
 674:Drivers/STM32WBxx_HAL_Driver/Src/stm32wbxx_hal_ipcc.c ****     /* Mask interrupt */
 675:Drivers/STM32WBxx_HAL_Driver/Src/stm32wbxx_hal_ipcc.c ****     currentInstance->MR |= (IPCC_MR_CH1FM_Msk << (ChannelIndex & CHANNEL_INDEX_MASK));
 446              		.loc 1 675 5 is_stmt 1 view .LVU118
 447              		.loc 1 675 20 is_stmt 0 view .LVU119
 448 0002 0949     		ldr	r1, .L34
 449              	.LVL38:
 450              		.loc 1 675 20 view .LVU120
 451 0004 4B68     		ldr	r3, [r1, #4]
 452              		.loc 1 675 64 view .LVU121
 453 0006 00F00F00 		and	r0, r0, #15
 454              	.LVL39:
 455              		.loc 1 675 47 view .LVU122
 456 000a 4FF48032 		mov	r2, #65536
 457 000e 8240     		lsls	r2, r2, r0
 458              		.loc 1 675 25 view .LVU123
 459 0010 1343     		orrs	r3, r3, r2
 460 0012 4B60     		str	r3, [r1, #4]
 461 0014 7047     		bx	lr
 462              	.LVL40:
 463              	.L32:
 676:Drivers/STM32WBxx_HAL_Driver/Src/stm32wbxx_hal_ipcc.c ****   }
 677:Drivers/STM32WBxx_HAL_Driver/Src/stm32wbxx_hal_ipcc.c ****   else
 678:Drivers/STM32WBxx_HAL_Driver/Src/stm32wbxx_hal_ipcc.c ****   {
 679:Drivers/STM32WBxx_HAL_Driver/Src/stm32wbxx_hal_ipcc.c ****     /* Mask interrupt */
 680:Drivers/STM32WBxx_HAL_Driver/Src/stm32wbxx_hal_ipcc.c ****     currentInstance->MR |= (IPCC_MR_CH1OM_Msk << (ChannelIndex & CHANNEL_INDEX_MASK));
 464              		.loc 1 680 5 is_stmt 1 view .LVU124
 465              		.loc 1 680 20 is_stmt 0 view .LVU125
 466 0016 0449     		ldr	r1, .L34
 467              	.LVL41:
 468              		.loc 1 680 20 view .LVU126
 469 0018 4B68     		ldr	r3, [r1, #4]
 470              		.loc 1 680 64 view .LVU127
 471 001a 00F00F00 		and	r0, r0, #15
 472              	.LVL42:
 473              		.loc 1 680 47 view .LVU128
 474 001e 0122     		movs	r2, #1
 475 0020 8240     		lsls	r2, r2, r0
 476              		.loc 1 680 25 view .LVU129
 477 0022 1343     		orrs	r3, r3, r2
 478 0024 4B60     		str	r3, [r1, #4]
 681:Drivers/STM32WBxx_HAL_Driver/Src/stm32wbxx_hal_ipcc.c ****   }
 682:Drivers/STM32WBxx_HAL_Driver/Src/stm32wbxx_hal_ipcc.c **** }
 479              		.loc 1 682 1 view .LVU130
 480 0026 7047     		bx	lr
 481              	.L35:
 482              		.align	2
 483              	.L34:
 484 0028 000C0058 		.word	1476398080
 485              		.cfi_endproc
 486              	.LFE963:
 488              		.section	.text.HAL_IPCC_DeActivateNotification,"ax",%progbits
 489              		.align	1
 490              		.global	HAL_IPCC_DeActivateNotification
ARM GAS  C:\Users\bku598\AppData\Local\Temp\ccYQV0lk.s 			page 23


 491              		.syntax unified
 492              		.thumb
 493              		.thumb_func
 495              	HAL_IPCC_DeActivateNotification:
 496              	.LVL43:
 497              	.LFB955:
 365:Drivers/STM32WBxx_HAL_Driver/Src/stm32wbxx_hal_ipcc.c ****   HAL_StatusTypeDef err = HAL_OK;
 498              		.loc 1 365 1 is_stmt 1 view -0
 499              		.cfi_startproc
 500              		@ args = 0, pretend = 0, frame = 0
 501              		@ frame_needed = 0, uses_anonymous_args = 0
 366:Drivers/STM32WBxx_HAL_Driver/Src/stm32wbxx_hal_ipcc.c **** 
 502              		.loc 1 366 3 view .LVU132
 369:Drivers/STM32WBxx_HAL_Driver/Src/stm32wbxx_hal_ipcc.c ****   {
 503              		.loc 1 369 3 view .LVU133
 369:Drivers/STM32WBxx_HAL_Driver/Src/stm32wbxx_hal_ipcc.c ****   {
 504              		.loc 1 369 6 is_stmt 0 view .LVU134
 505 0000 68B3     		cbz	r0, .L40
 365:Drivers/STM32WBxx_HAL_Driver/Src/stm32wbxx_hal_ipcc.c ****   HAL_StatusTypeDef err = HAL_OK;
 506              		.loc 1 365 1 view .LVU135
 507 0002 08B5     		push	{r3, lr}
 508              	.LCFI2:
 509              		.cfi_def_cfa_offset 8
 510              		.cfi_offset 3, -8
 511              		.cfi_offset 14, -4
 512 0004 8E46     		mov	lr, r1
 513 0006 8446     		mov	ip, r0
 372:Drivers/STM32WBxx_HAL_Driver/Src/stm32wbxx_hal_ipcc.c **** 
 514              		.loc 1 372 5 is_stmt 1 view .LVU136
 375:Drivers/STM32WBxx_HAL_Driver/Src/stm32wbxx_hal_ipcc.c ****     {
 515              		.loc 1 375 5 view .LVU137
 375:Drivers/STM32WBxx_HAL_Driver/Src/stm32wbxx_hal_ipcc.c ****     {
 516              		.loc 1 375 14 is_stmt 0 view .LVU138
 517 0008 90F83830 		ldrb	r3, [r0, #56]	@ zero_extendqisi2
 518 000c DBB2     		uxtb	r3, r3
 375:Drivers/STM32WBxx_HAL_Driver/Src/stm32wbxx_hal_ipcc.c ****     {
 519              		.loc 1 375 8 view .LVU139
 520 000e 012B     		cmp	r3, #1
 521 0010 01D0     		beq	.L46
 394:Drivers/STM32WBxx_HAL_Driver/Src/stm32wbxx_hal_ipcc.c ****     }
 522              		.loc 1 394 11 view .LVU140
 523 0012 0120     		movs	r0, #1
 524              	.LVL44:
 525              	.L37:
 401:Drivers/STM32WBxx_HAL_Driver/Src/stm32wbxx_hal_ipcc.c **** }
 526              		.loc 1 401 3 is_stmt 1 view .LVU141
 402:Drivers/STM32WBxx_HAL_Driver/Src/stm32wbxx_hal_ipcc.c **** 
 527              		.loc 1 402 1 is_stmt 0 view .LVU142
 528 0014 08BD     		pop	{r3, pc}
 529              	.LVL45:
 530              	.L46:
 378:Drivers/STM32WBxx_HAL_Driver/Src/stm32wbxx_hal_ipcc.c ****       {
 531              		.loc 1 378 7 is_stmt 1 view .LVU143
 378:Drivers/STM32WBxx_HAL_Driver/Src/stm32wbxx_hal_ipcc.c ****       {
 532              		.loc 1 378 10 is_stmt 0 view .LVU144
 533 0016 A2B9     		cbnz	r2, .L38
 380:Drivers/STM32WBxx_HAL_Driver/Src/stm32wbxx_hal_ipcc.c ****         hipcc->callbackRequest &= ~(IPCC_MR_CH1FM_Msk << (ChannelIndex & CHANNEL_INDEX_MASK));
ARM GAS  C:\Users\bku598\AppData\Local\Temp\ccYQV0lk.s 			page 24


 534              		.loc 1 380 9 is_stmt 1 view .LVU145
 380:Drivers/STM32WBxx_HAL_Driver/Src/stm32wbxx_hal_ipcc.c ****         hipcc->callbackRequest &= ~(IPCC_MR_CH1FM_Msk << (ChannelIndex & CHANNEL_INDEX_MASK));
 535              		.loc 1 380 48 is_stmt 0 view .LVU146
 536 0018 8B1D     		adds	r3, r1, #6
 537 001a 00EB8303 		add	r3, r0, r3, lsl #2
 538 001e 1149     		ldr	r1, .L47
 539              	.LVL46:
 380:Drivers/STM32WBxx_HAL_Driver/Src/stm32wbxx_hal_ipcc.c ****         hipcc->callbackRequest &= ~(IPCC_MR_CH1FM_Msk << (ChannelIndex & CHANNEL_INDEX_MASK));
 540              		.loc 1 380 48 view .LVU147
 541 0020 5960     		str	r1, [r3, #4]
 381:Drivers/STM32WBxx_HAL_Driver/Src/stm32wbxx_hal_ipcc.c ****       }
 542              		.loc 1 381 9 is_stmt 1 view .LVU148
 381:Drivers/STM32WBxx_HAL_Driver/Src/stm32wbxx_hal_ipcc.c ****       }
 543              		.loc 1 381 14 is_stmt 0 view .LVU149
 544 0022 436B     		ldr	r3, [r0, #52]
 381:Drivers/STM32WBxx_HAL_Driver/Src/stm32wbxx_hal_ipcc.c ****       }
 545              		.loc 1 381 72 view .LVU150
 546 0024 0EF00F00 		and	r0, lr, #15
 547              	.LVL47:
 381:Drivers/STM32WBxx_HAL_Driver/Src/stm32wbxx_hal_ipcc.c ****       }
 548              		.loc 1 381 55 view .LVU151
 549 0028 4FF48031 		mov	r1, #65536
 550 002c 8140     		lsls	r1, r1, r0
 381:Drivers/STM32WBxx_HAL_Driver/Src/stm32wbxx_hal_ipcc.c ****       }
 551              		.loc 1 381 32 view .LVU152
 552 002e 23EA0103 		bic	r3, r3, r1
 553 0032 CCF83430 		str	r3, [ip, #52]
 554              	.L39:
 390:Drivers/STM32WBxx_HAL_Driver/Src/stm32wbxx_hal_ipcc.c ****     }
 555              		.loc 1 390 7 is_stmt 1 view .LVU153
 556 0036 1146     		mov	r1, r2
 557 0038 7046     		mov	r0, lr
 558 003a FFF7FEFF 		bl	IPCC_MaskInterrupt
 559              	.LVL48:
 366:Drivers/STM32WBxx_HAL_Driver/Src/stm32wbxx_hal_ipcc.c **** 
 560              		.loc 1 366 21 is_stmt 0 view .LVU154
 561 003e 0020     		movs	r0, #0
 562 0040 E8E7     		b	.L37
 563              	.LVL49:
 564              	.L38:
 385:Drivers/STM32WBxx_HAL_Driver/Src/stm32wbxx_hal_ipcc.c ****         hipcc->callbackRequest &= ~(IPCC_MR_CH1OM_Msk << (ChannelIndex & CHANNEL_INDEX_MASK));
 565              		.loc 1 385 9 is_stmt 1 view .LVU155
 385:Drivers/STM32WBxx_HAL_Driver/Src/stm32wbxx_hal_ipcc.c ****         hipcc->callbackRequest &= ~(IPCC_MR_CH1OM_Msk << (ChannelIndex & CHANNEL_INDEX_MASK));
 566              		.loc 1 385 48 is_stmt 0 view .LVU156
 567 0042 00EB8103 		add	r3, r0, r1, lsl #2
 568 0046 0849     		ldr	r1, .L47+4
 569              	.LVL50:
 385:Drivers/STM32WBxx_HAL_Driver/Src/stm32wbxx_hal_ipcc.c ****         hipcc->callbackRequest &= ~(IPCC_MR_CH1OM_Msk << (ChannelIndex & CHANNEL_INDEX_MASK));
 570              		.loc 1 385 48 view .LVU157
 571 0048 5960     		str	r1, [r3, #4]
 386:Drivers/STM32WBxx_HAL_Driver/Src/stm32wbxx_hal_ipcc.c ****       }
 572              		.loc 1 386 9 is_stmt 1 view .LVU158
 386:Drivers/STM32WBxx_HAL_Driver/Src/stm32wbxx_hal_ipcc.c ****       }
 573              		.loc 1 386 14 is_stmt 0 view .LVU159
 574 004a 436B     		ldr	r3, [r0, #52]
 386:Drivers/STM32WBxx_HAL_Driver/Src/stm32wbxx_hal_ipcc.c ****       }
 575              		.loc 1 386 72 view .LVU160
ARM GAS  C:\Users\bku598\AppData\Local\Temp\ccYQV0lk.s 			page 25


 576 004c 0EF00F00 		and	r0, lr, #15
 577              	.LVL51:
 386:Drivers/STM32WBxx_HAL_Driver/Src/stm32wbxx_hal_ipcc.c ****       }
 578              		.loc 1 386 55 view .LVU161
 579 0050 0121     		movs	r1, #1
 580 0052 8140     		lsls	r1, r1, r0
 386:Drivers/STM32WBxx_HAL_Driver/Src/stm32wbxx_hal_ipcc.c ****       }
 581              		.loc 1 386 32 view .LVU162
 582 0054 23EA0103 		bic	r3, r3, r1
 583 0058 CCF83430 		str	r3, [ip, #52]
 584 005c EBE7     		b	.L39
 585              	.LVL52:
 586              	.L40:
 587              	.LCFI3:
 588              		.cfi_def_cfa_offset 0
 589              		.cfi_restore 3
 590              		.cfi_restore 14
 399:Drivers/STM32WBxx_HAL_Driver/Src/stm32wbxx_hal_ipcc.c ****   }
 591              		.loc 1 399 9 view .LVU163
 592 005e 0120     		movs	r0, #1
 593              	.LVL53:
 401:Drivers/STM32WBxx_HAL_Driver/Src/stm32wbxx_hal_ipcc.c **** }
 594              		.loc 1 401 3 is_stmt 1 view .LVU164
 402:Drivers/STM32WBxx_HAL_Driver/Src/stm32wbxx_hal_ipcc.c **** 
 595              		.loc 1 402 1 is_stmt 0 view .LVU165
 596 0060 7047     		bx	lr
 597              	.L48:
 598 0062 00BF     		.align	2
 599              	.L47:
 600 0064 00000000 		.word	HAL_IPCC_TxCallback
 601 0068 00000000 		.word	HAL_IPCC_RxCallback
 602              		.cfi_endproc
 603              	.LFE955:
 605              		.section	.text.IPCC_UnmaskInterrupt,"ax",%progbits
 606              		.align	1
 607              		.global	IPCC_UnmaskInterrupt
 608              		.syntax unified
 609              		.thumb
 610              		.thumb_func
 612              	IPCC_UnmaskInterrupt:
 613              	.LVL54:
 614              	.LFB964:
 683:Drivers/STM32WBxx_HAL_Driver/Src/stm32wbxx_hal_ipcc.c **** /**
 684:Drivers/STM32WBxx_HAL_Driver/Src/stm32wbxx_hal_ipcc.c ****   * @brief  Unmask IPCC interrupts.
 685:Drivers/STM32WBxx_HAL_Driver/Src/stm32wbxx_hal_ipcc.c ****   * @param  ChannelIndex Channel number
 686:Drivers/STM32WBxx_HAL_Driver/Src/stm32wbxx_hal_ipcc.c ****   *          This parameter can be one of the following values:
 687:Drivers/STM32WBxx_HAL_Driver/Src/stm32wbxx_hal_ipcc.c ****   *            @arg IPCC_CHANNEL_1: IPCC Channel 1
 688:Drivers/STM32WBxx_HAL_Driver/Src/stm32wbxx_hal_ipcc.c ****   *            @arg IPCC_CHANNEL_2: IPCC Channel 2
 689:Drivers/STM32WBxx_HAL_Driver/Src/stm32wbxx_hal_ipcc.c ****   *            @arg IPCC_CHANNEL_3: IPCC Channel 3
 690:Drivers/STM32WBxx_HAL_Driver/Src/stm32wbxx_hal_ipcc.c ****   *            @arg IPCC_CHANNEL_4: IPCC Channel 4
 691:Drivers/STM32WBxx_HAL_Driver/Src/stm32wbxx_hal_ipcc.c ****   *            @arg IPCC_CHANNEL_5: IPCC Channel 5
 692:Drivers/STM32WBxx_HAL_Driver/Src/stm32wbxx_hal_ipcc.c ****   *            @arg IPCC_CHANNEL_6: IPCC Channel 6
 693:Drivers/STM32WBxx_HAL_Driver/Src/stm32wbxx_hal_ipcc.c ****   * @param  ChannelDir Channel direction
 694:Drivers/STM32WBxx_HAL_Driver/Src/stm32wbxx_hal_ipcc.c ****   */
 695:Drivers/STM32WBxx_HAL_Driver/Src/stm32wbxx_hal_ipcc.c **** void IPCC_UnmaskInterrupt(uint32_t ChannelIndex, IPCC_CHANNELDirTypeDef ChannelDir)
 696:Drivers/STM32WBxx_HAL_Driver/Src/stm32wbxx_hal_ipcc.c **** {
 615              		.loc 1 696 1 is_stmt 1 view -0
ARM GAS  C:\Users\bku598\AppData\Local\Temp\ccYQV0lk.s 			page 26


 616              		.cfi_startproc
 617              		@ args = 0, pretend = 0, frame = 0
 618              		@ frame_needed = 0, uses_anonymous_args = 0
 619              		@ link register save eliminated.
 697:Drivers/STM32WBxx_HAL_Driver/Src/stm32wbxx_hal_ipcc.c ****   IPCC_CommonTypeDef *currentInstance = IPCC_C1;
 620              		.loc 1 697 3 view .LVU167
 698:Drivers/STM32WBxx_HAL_Driver/Src/stm32wbxx_hal_ipcc.c ****   if (ChannelDir == IPCC_CHANNEL_DIR_TX)
 621              		.loc 1 698 3 view .LVU168
 622              		.loc 1 698 6 is_stmt 0 view .LVU169
 623 0000 51B9     		cbnz	r1, .L50
 699:Drivers/STM32WBxx_HAL_Driver/Src/stm32wbxx_hal_ipcc.c ****   {
 700:Drivers/STM32WBxx_HAL_Driver/Src/stm32wbxx_hal_ipcc.c ****     /* Unmask interrupt */
 701:Drivers/STM32WBxx_HAL_Driver/Src/stm32wbxx_hal_ipcc.c ****     currentInstance->MR &= ~(IPCC_MR_CH1FM_Msk << (ChannelIndex & CHANNEL_INDEX_MASK));
 624              		.loc 1 701 5 is_stmt 1 view .LVU170
 625              		.loc 1 701 20 is_stmt 0 view .LVU171
 626 0002 0A49     		ldr	r1, .L52
 627              	.LVL55:
 628              		.loc 1 701 20 view .LVU172
 629 0004 4B68     		ldr	r3, [r1, #4]
 630              		.loc 1 701 65 view .LVU173
 631 0006 00F00F00 		and	r0, r0, #15
 632              	.LVL56:
 633              		.loc 1 701 48 view .LVU174
 634 000a 4FF48032 		mov	r2, #65536
 635 000e 8240     		lsls	r2, r2, r0
 636              		.loc 1 701 25 view .LVU175
 637 0010 23EA0203 		bic	r3, r3, r2
 638 0014 4B60     		str	r3, [r1, #4]
 639 0016 7047     		bx	lr
 640              	.LVL57:
 641              	.L50:
 702:Drivers/STM32WBxx_HAL_Driver/Src/stm32wbxx_hal_ipcc.c ****   }
 703:Drivers/STM32WBxx_HAL_Driver/Src/stm32wbxx_hal_ipcc.c ****   else
 704:Drivers/STM32WBxx_HAL_Driver/Src/stm32wbxx_hal_ipcc.c ****   {
 705:Drivers/STM32WBxx_HAL_Driver/Src/stm32wbxx_hal_ipcc.c ****     /* Unmask interrupt */
 706:Drivers/STM32WBxx_HAL_Driver/Src/stm32wbxx_hal_ipcc.c ****     currentInstance->MR &= ~(IPCC_MR_CH1OM_Msk << (ChannelIndex & CHANNEL_INDEX_MASK));
 642              		.loc 1 706 5 is_stmt 1 view .LVU176
 643              		.loc 1 706 20 is_stmt 0 view .LVU177
 644 0018 0449     		ldr	r1, .L52
 645              	.LVL58:
 646              		.loc 1 706 20 view .LVU178
 647 001a 4B68     		ldr	r3, [r1, #4]
 648              		.loc 1 706 65 view .LVU179
 649 001c 00F00F00 		and	r0, r0, #15
 650              	.LVL59:
 651              		.loc 1 706 48 view .LVU180
 652 0020 0122     		movs	r2, #1
 653 0022 8240     		lsls	r2, r2, r0
 654              		.loc 1 706 25 view .LVU181
 655 0024 23EA0203 		bic	r3, r3, r2
 656 0028 4B60     		str	r3, [r1, #4]
 707:Drivers/STM32WBxx_HAL_Driver/Src/stm32wbxx_hal_ipcc.c ****   }
 708:Drivers/STM32WBxx_HAL_Driver/Src/stm32wbxx_hal_ipcc.c **** }
 657              		.loc 1 708 1 view .LVU182
 658 002a 7047     		bx	lr
 659              	.L53:
 660              		.align	2
ARM GAS  C:\Users\bku598\AppData\Local\Temp\ccYQV0lk.s 			page 27


 661              	.L52:
 662 002c 000C0058 		.word	1476398080
 663              		.cfi_endproc
 664              	.LFE964:
 666              		.section	.text.HAL_IPCC_ActivateNotification,"ax",%progbits
 667              		.align	1
 668              		.global	HAL_IPCC_ActivateNotification
 669              		.syntax unified
 670              		.thumb
 671              		.thumb_func
 673              	HAL_IPCC_ActivateNotification:
 674              	.LVL60:
 675              	.LFB954:
 307:Drivers/STM32WBxx_HAL_Driver/Src/stm32wbxx_hal_ipcc.c ****   HAL_StatusTypeDef err = HAL_OK;
 676              		.loc 1 307 1 is_stmt 1 view -0
 677              		.cfi_startproc
 678              		@ args = 0, pretend = 0, frame = 0
 679              		@ frame_needed = 0, uses_anonymous_args = 0
 308:Drivers/STM32WBxx_HAL_Driver/Src/stm32wbxx_hal_ipcc.c **** 
 680              		.loc 1 308 3 view .LVU184
 311:Drivers/STM32WBxx_HAL_Driver/Src/stm32wbxx_hal_ipcc.c ****   {
 681              		.loc 1 311 3 view .LVU185
 311:Drivers/STM32WBxx_HAL_Driver/Src/stm32wbxx_hal_ipcc.c ****   {
 682              		.loc 1 311 6 is_stmt 0 view .LVU186
 683 0000 78B3     		cbz	r0, .L58
 307:Drivers/STM32WBxx_HAL_Driver/Src/stm32wbxx_hal_ipcc.c ****   HAL_StatusTypeDef err = HAL_OK;
 684              		.loc 1 307 1 view .LVU187
 685 0002 10B5     		push	{r4, lr}
 686              	.LCFI4:
 687              		.cfi_def_cfa_offset 8
 688              		.cfi_offset 4, -8
 689              		.cfi_offset 14, -4
 690 0004 0C46     		mov	r4, r1
 691 0006 8646     		mov	lr, r0
 314:Drivers/STM32WBxx_HAL_Driver/Src/stm32wbxx_hal_ipcc.c **** 
 692              		.loc 1 314 5 is_stmt 1 view .LVU188
 317:Drivers/STM32WBxx_HAL_Driver/Src/stm32wbxx_hal_ipcc.c ****     {
 693              		.loc 1 317 5 view .LVU189
 317:Drivers/STM32WBxx_HAL_Driver/Src/stm32wbxx_hal_ipcc.c ****     {
 694              		.loc 1 317 14 is_stmt 0 view .LVU190
 695 0008 90F838C0 		ldrb	ip, [r0, #56]	@ zero_extendqisi2
 696 000c 5FFA8CFC 		uxtb	ip, ip
 317:Drivers/STM32WBxx_HAL_Driver/Src/stm32wbxx_hal_ipcc.c ****     {
 697              		.loc 1 317 8 view .LVU191
 698 0010 BCF1010F 		cmp	ip, #1
 699 0014 01D0     		beq	.L65
 339:Drivers/STM32WBxx_HAL_Driver/Src/stm32wbxx_hal_ipcc.c ****     }
 700              		.loc 1 339 11 view .LVU192
 701 0016 0120     		movs	r0, #1
 702              	.LVL61:
 703              	.L55:
 346:Drivers/STM32WBxx_HAL_Driver/Src/stm32wbxx_hal_ipcc.c **** }
 704              		.loc 1 346 3 is_stmt 1 view .LVU193
 347:Drivers/STM32WBxx_HAL_Driver/Src/stm32wbxx_hal_ipcc.c **** 
 705              		.loc 1 347 1 is_stmt 0 view .LVU194
 706 0018 10BD     		pop	{r4, pc}
 707              	.LVL62:
ARM GAS  C:\Users\bku598\AppData\Local\Temp\ccYQV0lk.s 			page 28


 708              	.L65:
 320:Drivers/STM32WBxx_HAL_Driver/Src/stm32wbxx_hal_ipcc.c ****       {
 709              		.loc 1 320 7 is_stmt 1 view .LVU195
 320:Drivers/STM32WBxx_HAL_Driver/Src/stm32wbxx_hal_ipcc.c ****       {
 710              		.loc 1 320 10 is_stmt 0 view .LVU196
 711 001a 82B9     		cbnz	r2, .L56
 322:Drivers/STM32WBxx_HAL_Driver/Src/stm32wbxx_hal_ipcc.c ****         hipcc->callbackRequest |= (IPCC_MR_CH1FM_Msk << (ChannelIndex & CHANNEL_INDEX_MASK));
 712              		.loc 1 322 9 is_stmt 1 view .LVU197
 322:Drivers/STM32WBxx_HAL_Driver/Src/stm32wbxx_hal_ipcc.c ****         hipcc->callbackRequest |= (IPCC_MR_CH1FM_Msk << (ChannelIndex & CHANNEL_INDEX_MASK));
 713              		.loc 1 322 48 is_stmt 0 view .LVU198
 714 001c 0631     		adds	r1, r1, #6
 715              	.LVL63:
 322:Drivers/STM32WBxx_HAL_Driver/Src/stm32wbxx_hal_ipcc.c ****         hipcc->callbackRequest |= (IPCC_MR_CH1FM_Msk << (ChannelIndex & CHANNEL_INDEX_MASK));
 716              		.loc 1 322 48 view .LVU199
 717 001e 00EB8101 		add	r1, r0, r1, lsl #2
 718 0022 4B60     		str	r3, [r1, #4]
 323:Drivers/STM32WBxx_HAL_Driver/Src/stm32wbxx_hal_ipcc.c ****       }
 719              		.loc 1 323 9 is_stmt 1 view .LVU200
 323:Drivers/STM32WBxx_HAL_Driver/Src/stm32wbxx_hal_ipcc.c ****       }
 720              		.loc 1 323 14 is_stmt 0 view .LVU201
 721 0024 436B     		ldr	r3, [r0, #52]
 722              	.LVL64:
 323:Drivers/STM32WBxx_HAL_Driver/Src/stm32wbxx_hal_ipcc.c ****       }
 723              		.loc 1 323 71 view .LVU202
 724 0026 04F00F00 		and	r0, r4, #15
 725              	.LVL65:
 323:Drivers/STM32WBxx_HAL_Driver/Src/stm32wbxx_hal_ipcc.c ****       }
 726              		.loc 1 323 54 view .LVU203
 727 002a 4FF48031 		mov	r1, #65536
 728              	.LVL66:
 323:Drivers/STM32WBxx_HAL_Driver/Src/stm32wbxx_hal_ipcc.c ****       }
 729              		.loc 1 323 54 view .LVU204
 730 002e 8140     		lsls	r1, r1, r0
 323:Drivers/STM32WBxx_HAL_Driver/Src/stm32wbxx_hal_ipcc.c ****       }
 731              		.loc 1 323 32 view .LVU205
 732 0030 0B43     		orrs	r3, r3, r1
 733 0032 CEF83430 		str	r3, [lr, #52]
 734              	.LVL67:
 735              	.L57:
 332:Drivers/STM32WBxx_HAL_Driver/Src/stm32wbxx_hal_ipcc.c ****       {
 736              		.loc 1 332 7 is_stmt 1 view .LVU206
 332:Drivers/STM32WBxx_HAL_Driver/Src/stm32wbxx_hal_ipcc.c ****       {
 737              		.loc 1 332 10 is_stmt 0 view .LVU207
 738 0036 012A     		cmp	r2, #1
 739 0038 0DD0     		beq	.L66
 308:Drivers/STM32WBxx_HAL_Driver/Src/stm32wbxx_hal_ipcc.c **** 
 740              		.loc 1 308 21 view .LVU208
 741 003a 0020     		movs	r0, #0
 742 003c ECE7     		b	.L55
 743              	.LVL68:
 744              	.L56:
 327:Drivers/STM32WBxx_HAL_Driver/Src/stm32wbxx_hal_ipcc.c ****         hipcc->callbackRequest |= (IPCC_MR_CH1OM_Msk << (ChannelIndex & CHANNEL_INDEX_MASK));
 745              		.loc 1 327 9 is_stmt 1 view .LVU209
 327:Drivers/STM32WBxx_HAL_Driver/Src/stm32wbxx_hal_ipcc.c ****         hipcc->callbackRequest |= (IPCC_MR_CH1OM_Msk << (ChannelIndex & CHANNEL_INDEX_MASK));
 746              		.loc 1 327 48 is_stmt 0 view .LVU210
 747 003e 00EB8101 		add	r1, r0, r1, lsl #2
 748              	.LVL69:
ARM GAS  C:\Users\bku598\AppData\Local\Temp\ccYQV0lk.s 			page 29


 327:Drivers/STM32WBxx_HAL_Driver/Src/stm32wbxx_hal_ipcc.c ****         hipcc->callbackRequest |= (IPCC_MR_CH1OM_Msk << (ChannelIndex & CHANNEL_INDEX_MASK));
 749              		.loc 1 327 48 view .LVU211
 750 0042 4B60     		str	r3, [r1, #4]
 328:Drivers/STM32WBxx_HAL_Driver/Src/stm32wbxx_hal_ipcc.c ****       }
 751              		.loc 1 328 9 is_stmt 1 view .LVU212
 328:Drivers/STM32WBxx_HAL_Driver/Src/stm32wbxx_hal_ipcc.c ****       }
 752              		.loc 1 328 14 is_stmt 0 view .LVU213
 753 0044 436B     		ldr	r3, [r0, #52]
 754              	.LVL70:
 328:Drivers/STM32WBxx_HAL_Driver/Src/stm32wbxx_hal_ipcc.c ****       }
 755              		.loc 1 328 71 view .LVU214
 756 0046 04F00F00 		and	r0, r4, #15
 757              	.LVL71:
 328:Drivers/STM32WBxx_HAL_Driver/Src/stm32wbxx_hal_ipcc.c ****       }
 758              		.loc 1 328 54 view .LVU215
 759 004a 0121     		movs	r1, #1
 760              	.LVL72:
 328:Drivers/STM32WBxx_HAL_Driver/Src/stm32wbxx_hal_ipcc.c ****       }
 761              		.loc 1 328 54 view .LVU216
 762 004c 8140     		lsls	r1, r1, r0
 328:Drivers/STM32WBxx_HAL_Driver/Src/stm32wbxx_hal_ipcc.c ****       }
 763              		.loc 1 328 32 view .LVU217
 764 004e 0B43     		orrs	r3, r3, r1
 765 0050 CEF83430 		str	r3, [lr, #52]
 766              	.LVL73:
 328:Drivers/STM32WBxx_HAL_Driver/Src/stm32wbxx_hal_ipcc.c ****       }
 767              		.loc 1 328 32 view .LVU218
 768 0054 EFE7     		b	.L57
 769              	.L66:
 334:Drivers/STM32WBxx_HAL_Driver/Src/stm32wbxx_hal_ipcc.c ****       }
 770              		.loc 1 334 9 is_stmt 1 view .LVU219
 771 0056 1146     		mov	r1, r2
 772 0058 2046     		mov	r0, r4
 773 005a FFF7FEFF 		bl	IPCC_UnmaskInterrupt
 774              	.LVL74:
 308:Drivers/STM32WBxx_HAL_Driver/Src/stm32wbxx_hal_ipcc.c **** 
 775              		.loc 1 308 21 is_stmt 0 view .LVU220
 776 005e 0020     		movs	r0, #0
 777 0060 DAE7     		b	.L55
 778              	.LVL75:
 779              	.L58:
 780              	.LCFI5:
 781              		.cfi_def_cfa_offset 0
 782              		.cfi_restore 4
 783              		.cfi_restore 14
 344:Drivers/STM32WBxx_HAL_Driver/Src/stm32wbxx_hal_ipcc.c ****   }
 784              		.loc 1 344 9 view .LVU221
 785 0062 0120     		movs	r0, #1
 786              	.LVL76:
 346:Drivers/STM32WBxx_HAL_Driver/Src/stm32wbxx_hal_ipcc.c **** }
 787              		.loc 1 346 3 is_stmt 1 view .LVU222
 347:Drivers/STM32WBxx_HAL_Driver/Src/stm32wbxx_hal_ipcc.c **** 
 788              		.loc 1 347 1 is_stmt 0 view .LVU223
 789 0064 7047     		bx	lr
 790              		.cfi_endproc
 791              	.LFE954:
 793              		.section	.text.HAL_IPCC_NotifyCPU,"ax",%progbits
ARM GAS  C:\Users\bku598\AppData\Local\Temp\ccYQV0lk.s 			page 30


 794              		.align	1
 795              		.global	HAL_IPCC_NotifyCPU
 796              		.syntax unified
 797              		.thumb
 798              		.thumb_func
 800              	HAL_IPCC_NotifyCPU:
 801              	.LVL77:
 802              	.LFB957:
 457:Drivers/STM32WBxx_HAL_Driver/Src/stm32wbxx_hal_ipcc.c ****   HAL_StatusTypeDef err = HAL_OK;
 803              		.loc 1 457 1 is_stmt 1 view -0
 804              		.cfi_startproc
 805              		@ args = 0, pretend = 0, frame = 0
 806              		@ frame_needed = 0, uses_anonymous_args = 0
 458:Drivers/STM32WBxx_HAL_Driver/Src/stm32wbxx_hal_ipcc.c ****   uint32_t mask;
 807              		.loc 1 458 3 view .LVU225
 459:Drivers/STM32WBxx_HAL_Driver/Src/stm32wbxx_hal_ipcc.c ****   IPCC_CommonTypeDef *currentInstance = IPCC_C1;
 808              		.loc 1 459 3 view .LVU226
 460:Drivers/STM32WBxx_HAL_Driver/Src/stm32wbxx_hal_ipcc.c **** 
 809              		.loc 1 460 3 view .LVU227
 463:Drivers/STM32WBxx_HAL_Driver/Src/stm32wbxx_hal_ipcc.c **** 
 810              		.loc 1 463 3 view .LVU228
 466:Drivers/STM32WBxx_HAL_Driver/Src/stm32wbxx_hal_ipcc.c ****   {
 811              		.loc 1 466 3 view .LVU229
 466:Drivers/STM32WBxx_HAL_Driver/Src/stm32wbxx_hal_ipcc.c ****   {
 812              		.loc 1 466 12 is_stmt 0 view .LVU230
 813 0000 90F83830 		ldrb	r3, [r0, #56]	@ zero_extendqisi2
 814 0004 DBB2     		uxtb	r3, r3
 466:Drivers/STM32WBxx_HAL_Driver/Src/stm32wbxx_hal_ipcc.c ****   {
 815              		.loc 1 466 6 view .LVU231
 816 0006 012B     		cmp	r3, #1
 817 0008 01D0     		beq	.L77
 483:Drivers/STM32WBxx_HAL_Driver/Src/stm32wbxx_hal_ipcc.c ****   }
 818              		.loc 1 483 9 view .LVU232
 819 000a 0120     		movs	r0, #1
 820              	.LVL78:
 486:Drivers/STM32WBxx_HAL_Driver/Src/stm32wbxx_hal_ipcc.c **** }
 821              		.loc 1 486 3 is_stmt 1 view .LVU233
 487:Drivers/STM32WBxx_HAL_Driver/Src/stm32wbxx_hal_ipcc.c **** 
 822              		.loc 1 487 1 is_stmt 0 view .LVU234
 823 000c 7047     		bx	lr
 824              	.LVL79:
 825              	.L77:
 457:Drivers/STM32WBxx_HAL_Driver/Src/stm32wbxx_hal_ipcc.c ****   HAL_StatusTypeDef err = HAL_OK;
 826              		.loc 1 457 1 view .LVU235
 827 000e 10B5     		push	{r4, lr}
 828              	.LCFI6:
 829              		.cfi_def_cfa_offset 8
 830              		.cfi_offset 4, -8
 831              		.cfi_offset 14, -4
 832 0010 8C46     		mov	ip, r1
 469:Drivers/STM32WBxx_HAL_Driver/Src/stm32wbxx_hal_ipcc.c ****                              IPCC_SCR_CH1C)
 833              		.loc 1 469 5 is_stmt 1 view .LVU236
 469:Drivers/STM32WBxx_HAL_Driver/Src/stm32wbxx_hal_ipcc.c ****                              IPCC_SCR_CH1C)
 834              		.loc 1 469 20 is_stmt 0 view .LVU237
 835 0012 0C4B     		ldr	r3, .L79
 836 0014 9968     		ldr	r1, [r3, #8]
 837              	.LVL80:
ARM GAS  C:\Users\bku598\AppData\Local\Temp\ccYQV0lk.s 			page 31


 469:Drivers/STM32WBxx_HAL_Driver/Src/stm32wbxx_hal_ipcc.c ****                              IPCC_SCR_CH1C)
 838              		.loc 1 469 82 view .LVU238
 839 0016 62B9     		cbnz	r2, .L71
 469:Drivers/STM32WBxx_HAL_Driver/Src/stm32wbxx_hal_ipcc.c ****                              IPCC_SCR_CH1C)
 840              		.loc 1 469 82 discriminator 1 view .LVU239
 841 0018 4FF48033 		mov	r3, #65536
 842              	.L69:
 471:Drivers/STM32WBxx_HAL_Driver/Src/stm32wbxx_hal_ipcc.c **** 
 843              		.loc 1 471 46 view .LVU240
 844 001c 0CF00F04 		and	r4, ip, #15
 471:Drivers/STM32WBxx_HAL_Driver/Src/stm32wbxx_hal_ipcc.c **** 
 845              		.loc 1 471 29 view .LVU241
 846 0020 A340     		lsls	r3, r3, r4
 469:Drivers/STM32WBxx_HAL_Driver/Src/stm32wbxx_hal_ipcc.c ****                              IPCC_SCR_CH1C)
 847              		.loc 1 469 26 view .LVU242
 848 0022 1943     		orrs	r1, r1, r3
 849 0024 074C     		ldr	r4, .L79
 850 0026 A160     		str	r1, [r4, #8]
 474:Drivers/STM32WBxx_HAL_Driver/Src/stm32wbxx_hal_ipcc.c ****             IPCC_MR_CH1OM_Msk) << (ChannelIndex & CHANNEL_INDEX_MASK);
 851              		.loc 1 474 5 is_stmt 1 view .LVU243
 852              	.LVL81:
 476:Drivers/STM32WBxx_HAL_Driver/Src/stm32wbxx_hal_ipcc.c ****     {
 853              		.loc 1 476 5 view .LVU244
 476:Drivers/STM32WBxx_HAL_Driver/Src/stm32wbxx_hal_ipcc.c ****     {
 854              		.loc 1 476 15 is_stmt 0 view .LVU245
 855 0028 416B     		ldr	r1, [r0, #52]
 476:Drivers/STM32WBxx_HAL_Driver/Src/stm32wbxx_hal_ipcc.c ****     {
 856              		.loc 1 476 8 view .LVU246
 857 002a 8B43     		bics	r3, r3, r1
 858              	.LVL82:
 476:Drivers/STM32WBxx_HAL_Driver/Src/stm32wbxx_hal_ipcc.c ****     {
 859              		.loc 1 476 8 view .LVU247
 860 002c 03D0     		beq	.L78
 458:Drivers/STM32WBxx_HAL_Driver/Src/stm32wbxx_hal_ipcc.c ****   uint32_t mask;
 861              		.loc 1 458 21 view .LVU248
 862 002e 0020     		movs	r0, #0
 863              	.LVL83:
 864              	.L68:
 486:Drivers/STM32WBxx_HAL_Driver/Src/stm32wbxx_hal_ipcc.c **** }
 865              		.loc 1 486 3 is_stmt 1 view .LVU249
 487:Drivers/STM32WBxx_HAL_Driver/Src/stm32wbxx_hal_ipcc.c **** 
 866              		.loc 1 487 1 is_stmt 0 view .LVU250
 867 0030 10BD     		pop	{r4, pc}
 868              	.LVL84:
 869              	.L71:
 469:Drivers/STM32WBxx_HAL_Driver/Src/stm32wbxx_hal_ipcc.c ****                              IPCC_SCR_CH1C)
 870              		.loc 1 469 82 discriminator 2 view .LVU251
 871 0032 0123     		movs	r3, #1
 872 0034 F2E7     		b	.L69
 873              	.LVL85:
 874              	.L78:
 478:Drivers/STM32WBxx_HAL_Driver/Src/stm32wbxx_hal_ipcc.c ****     }
 875              		.loc 1 478 7 is_stmt 1 view .LVU252
 876 0036 1146     		mov	r1, r2
 877 0038 6046     		mov	r0, ip
 878              	.LVL86:
 478:Drivers/STM32WBxx_HAL_Driver/Src/stm32wbxx_hal_ipcc.c ****     }
ARM GAS  C:\Users\bku598\AppData\Local\Temp\ccYQV0lk.s 			page 32


 879              		.loc 1 478 7 is_stmt 0 view .LVU253
 880 003a FFF7FEFF 		bl	IPCC_UnmaskInterrupt
 881              	.LVL87:
 458:Drivers/STM32WBxx_HAL_Driver/Src/stm32wbxx_hal_ipcc.c ****   uint32_t mask;
 882              		.loc 1 458 21 view .LVU254
 883 003e 0020     		movs	r0, #0
 884 0040 F6E7     		b	.L68
 885              	.L80:
 886 0042 00BF     		.align	2
 887              	.L79:
 888 0044 000C0058 		.word	1476398080
 889              		.cfi_endproc
 890              	.LFE957:
 892              		.section	.text.IPCC_SetDefaultCallbacks,"ax",%progbits
 893              		.align	1
 894              		.global	IPCC_SetDefaultCallbacks
 895              		.syntax unified
 896              		.thumb
 897              		.thumb_func
 899              	IPCC_SetDefaultCallbacks:
 900              	.LVL88:
 901              	.LFB965:
 709:Drivers/STM32WBxx_HAL_Driver/Src/stm32wbxx_hal_ipcc.c **** 
 710:Drivers/STM32WBxx_HAL_Driver/Src/stm32wbxx_hal_ipcc.c **** /**
 711:Drivers/STM32WBxx_HAL_Driver/Src/stm32wbxx_hal_ipcc.c ****   * @brief Reset all callbacks of the handle to NULL.
 712:Drivers/STM32WBxx_HAL_Driver/Src/stm32wbxx_hal_ipcc.c ****   * @param  hipcc IPCC handle
 713:Drivers/STM32WBxx_HAL_Driver/Src/stm32wbxx_hal_ipcc.c ****   */
 714:Drivers/STM32WBxx_HAL_Driver/Src/stm32wbxx_hal_ipcc.c **** void IPCC_SetDefaultCallbacks(IPCC_HandleTypeDef *hipcc)
 715:Drivers/STM32WBxx_HAL_Driver/Src/stm32wbxx_hal_ipcc.c **** {
 902              		.loc 1 715 1 is_stmt 1 view -0
 903              		.cfi_startproc
 904              		@ args = 0, pretend = 0, frame = 0
 905              		@ frame_needed = 0, uses_anonymous_args = 0
 906              		@ link register save eliminated.
 716:Drivers/STM32WBxx_HAL_Driver/Src/stm32wbxx_hal_ipcc.c ****   uint32_t i;
 907              		.loc 1 716 3 view .LVU256
 717:Drivers/STM32WBxx_HAL_Driver/Src/stm32wbxx_hal_ipcc.c ****   /* Set all callbacks to default */
 718:Drivers/STM32WBxx_HAL_Driver/Src/stm32wbxx_hal_ipcc.c ****   for (i = 0; i < IPCC_CHANNEL_NUMBER; i++)
 908              		.loc 1 718 3 view .LVU257
 909              		.loc 1 718 10 is_stmt 0 view .LVU258
 910 0000 0023     		movs	r3, #0
 911              		.loc 1 718 3 view .LVU259
 912 0002 09E0     		b	.L82
 913              	.LVL89:
 914              	.L83:
 719:Drivers/STM32WBxx_HAL_Driver/Src/stm32wbxx_hal_ipcc.c ****   {
 720:Drivers/STM32WBxx_HAL_Driver/Src/stm32wbxx_hal_ipcc.c ****     hipcc->ChannelCallbackRx[i] = HAL_IPCC_RxCallback;
 915              		.loc 1 720 5 is_stmt 1 view .LVU260
 916              		.loc 1 720 33 is_stmt 0 view .LVU261
 917 0004 00EB8302 		add	r2, r0, r3, lsl #2
 918 0008 0549     		ldr	r1, .L84
 919 000a 5160     		str	r1, [r2, #4]
 721:Drivers/STM32WBxx_HAL_Driver/Src/stm32wbxx_hal_ipcc.c ****     hipcc->ChannelCallbackTx[i] = HAL_IPCC_TxCallback;
 920              		.loc 1 721 5 is_stmt 1 view .LVU262
 921              		.loc 1 721 33 is_stmt 0 view .LVU263
 922 000c 9A1D     		adds	r2, r3, #6
 923 000e 00EB8202 		add	r2, r0, r2, lsl #2
ARM GAS  C:\Users\bku598\AppData\Local\Temp\ccYQV0lk.s 			page 33


 924 0012 0449     		ldr	r1, .L84+4
 925 0014 5160     		str	r1, [r2, #4]
 718:Drivers/STM32WBxx_HAL_Driver/Src/stm32wbxx_hal_ipcc.c ****   {
 926              		.loc 1 718 41 is_stmt 1 discriminator 3 view .LVU264
 927 0016 0133     		adds	r3, r3, #1
 928              	.LVL90:
 929              	.L82:
 718:Drivers/STM32WBxx_HAL_Driver/Src/stm32wbxx_hal_ipcc.c ****   {
 930              		.loc 1 718 17 discriminator 1 view .LVU265
 931 0018 052B     		cmp	r3, #5
 932 001a F3D9     		bls	.L83
 722:Drivers/STM32WBxx_HAL_Driver/Src/stm32wbxx_hal_ipcc.c ****   }
 723:Drivers/STM32WBxx_HAL_Driver/Src/stm32wbxx_hal_ipcc.c **** }
 933              		.loc 1 723 1 is_stmt 0 view .LVU266
 934 001c 7047     		bx	lr
 935              	.L85:
 936 001e 00BF     		.align	2
 937              	.L84:
 938 0020 00000000 		.word	HAL_IPCC_RxCallback
 939 0024 00000000 		.word	HAL_IPCC_TxCallback
 940              		.cfi_endproc
 941              	.LFE965:
 943              		.section	.text.IPCC_Reset_Register,"ax",%progbits
 944              		.align	1
 945              		.global	IPCC_Reset_Register
 946              		.syntax unified
 947              		.thumb
 948              		.thumb_func
 950              	IPCC_Reset_Register:
 951              	.LVL91:
 952              	.LFB966:
 724:Drivers/STM32WBxx_HAL_Driver/Src/stm32wbxx_hal_ipcc.c **** 
 725:Drivers/STM32WBxx_HAL_Driver/Src/stm32wbxx_hal_ipcc.c **** /**
 726:Drivers/STM32WBxx_HAL_Driver/Src/stm32wbxx_hal_ipcc.c ****   * @brief Reset IPCC register to default value for the concerned instance.
 727:Drivers/STM32WBxx_HAL_Driver/Src/stm32wbxx_hal_ipcc.c ****   * @param  Instance pointer to register
 728:Drivers/STM32WBxx_HAL_Driver/Src/stm32wbxx_hal_ipcc.c ****   */
 729:Drivers/STM32WBxx_HAL_Driver/Src/stm32wbxx_hal_ipcc.c **** void IPCC_Reset_Register(IPCC_CommonTypeDef *Instance)
 730:Drivers/STM32WBxx_HAL_Driver/Src/stm32wbxx_hal_ipcc.c **** {
 953              		.loc 1 730 1 is_stmt 1 view -0
 954              		.cfi_startproc
 955              		@ args = 0, pretend = 0, frame = 0
 956              		@ frame_needed = 0, uses_anonymous_args = 0
 957              		@ link register save eliminated.
 731:Drivers/STM32WBxx_HAL_Driver/Src/stm32wbxx_hal_ipcc.c ****   /* Disable RX and TX interrupts */
 732:Drivers/STM32WBxx_HAL_Driver/Src/stm32wbxx_hal_ipcc.c ****   Instance->CR  = 0x00000000U;
 958              		.loc 1 732 3 view .LVU268
 959              		.loc 1 732 17 is_stmt 0 view .LVU269
 960 0000 0023     		movs	r3, #0
 961 0002 0360     		str	r3, [r0]
 733:Drivers/STM32WBxx_HAL_Driver/Src/stm32wbxx_hal_ipcc.c **** 
 734:Drivers/STM32WBxx_HAL_Driver/Src/stm32wbxx_hal_ipcc.c ****   /* Mask RX and TX interrupts */
 735:Drivers/STM32WBxx_HAL_Driver/Src/stm32wbxx_hal_ipcc.c ****   Instance->MR  = (IPCC_ALL_TX_BUF | IPCC_ALL_RX_BUF);
 962              		.loc 1 735 3 is_stmt 1 view .LVU270
 963              		.loc 1 735 17 is_stmt 0 view .LVU271
 964 0004 4FF03F13 		mov	r3, #4128831
 965 0008 4360     		str	r3, [r0, #4]
 736:Drivers/STM32WBxx_HAL_Driver/Src/stm32wbxx_hal_ipcc.c **** 
ARM GAS  C:\Users\bku598\AppData\Local\Temp\ccYQV0lk.s 			page 34


 737:Drivers/STM32WBxx_HAL_Driver/Src/stm32wbxx_hal_ipcc.c ****   /* Clear RX status */
 738:Drivers/STM32WBxx_HAL_Driver/Src/stm32wbxx_hal_ipcc.c ****   Instance->SCR = IPCC_ALL_RX_BUF;
 966              		.loc 1 738 3 is_stmt 1 view .LVU272
 967              		.loc 1 738 17 is_stmt 0 view .LVU273
 968 000a 3F23     		movs	r3, #63
 969 000c 8360     		str	r3, [r0, #8]
 739:Drivers/STM32WBxx_HAL_Driver/Src/stm32wbxx_hal_ipcc.c **** }
 970              		.loc 1 739 1 view .LVU274
 971 000e 7047     		bx	lr
 972              		.cfi_endproc
 973              	.LFE966:
 975              		.section	.text.HAL_IPCC_Init,"ax",%progbits
 976              		.align	1
 977              		.global	HAL_IPCC_Init
 978              		.syntax unified
 979              		.thumb
 980              		.thumb_func
 982              	HAL_IPCC_Init:
 983              	.LVL92:
 984              	.LFB950:
 127:Drivers/STM32WBxx_HAL_Driver/Src/stm32wbxx_hal_ipcc.c ****   HAL_StatusTypeDef err = HAL_OK;
 985              		.loc 1 127 1 is_stmt 1 view -0
 986              		.cfi_startproc
 987              		@ args = 0, pretend = 0, frame = 0
 988              		@ frame_needed = 0, uses_anonymous_args = 0
 128:Drivers/STM32WBxx_HAL_Driver/Src/stm32wbxx_hal_ipcc.c **** 
 989              		.loc 1 128 3 view .LVU276
 131:Drivers/STM32WBxx_HAL_Driver/Src/stm32wbxx_hal_ipcc.c ****   {
 990              		.loc 1 131 3 view .LVU277
 131:Drivers/STM32WBxx_HAL_Driver/Src/stm32wbxx_hal_ipcc.c ****   {
 991              		.loc 1 131 6 is_stmt 0 view .LVU278
 992 0000 C0B1     		cbz	r0, .L90
 127:Drivers/STM32WBxx_HAL_Driver/Src/stm32wbxx_hal_ipcc.c ****   HAL_StatusTypeDef err = HAL_OK;
 993              		.loc 1 127 1 view .LVU279
 994 0002 38B5     		push	{r3, r4, r5, lr}
 995              	.LCFI7:
 996              		.cfi_def_cfa_offset 16
 997              		.cfi_offset 3, -16
 998              		.cfi_offset 4, -12
 999              		.cfi_offset 5, -8
 1000              		.cfi_offset 14, -4
 1001 0004 0446     		mov	r4, r0
 1002              	.LBB2:
 134:Drivers/STM32WBxx_HAL_Driver/Src/stm32wbxx_hal_ipcc.c **** 
 1003              		.loc 1 134 5 is_stmt 1 view .LVU280
 136:Drivers/STM32WBxx_HAL_Driver/Src/stm32wbxx_hal_ipcc.c **** 
 1004              		.loc 1 136 5 view .LVU281
 1005              	.LVL93:
 138:Drivers/STM32WBxx_HAL_Driver/Src/stm32wbxx_hal_ipcc.c ****     {
 1006              		.loc 1 138 5 view .LVU282
 138:Drivers/STM32WBxx_HAL_Driver/Src/stm32wbxx_hal_ipcc.c ****     {
 1007              		.loc 1 138 14 is_stmt 0 view .LVU283
 1008 0006 90F83830 		ldrb	r3, [r0, #56]	@ zero_extendqisi2
 138:Drivers/STM32WBxx_HAL_Driver/Src/stm32wbxx_hal_ipcc.c ****     {
 1009              		.loc 1 138 8 view .LVU284
 1010 000a 83B1     		cbz	r3, .L95
 1011              	.LVL94:
ARM GAS  C:\Users\bku598\AppData\Local\Temp\ccYQV0lk.s 			page 35


 1012              	.L89:
 145:Drivers/STM32WBxx_HAL_Driver/Src/stm32wbxx_hal_ipcc.c **** 
 1013              		.loc 1 145 5 is_stmt 1 view .LVU285
 1014 000c 0A4D     		ldr	r5, .L96
 1015 000e 2846     		mov	r0, r5
 1016 0010 FFF7FEFF 		bl	IPCC_Reset_Register
 1017              	.LVL95:
 148:Drivers/STM32WBxx_HAL_Driver/Src/stm32wbxx_hal_ipcc.c **** 
 1018              		.loc 1 148 5 view .LVU286
 148:Drivers/STM32WBxx_HAL_Driver/Src/stm32wbxx_hal_ipcc.c **** 
 1019              		.loc 1 148 20 is_stmt 0 view .LVU287
 1020 0014 2B68     		ldr	r3, [r5]
 148:Drivers/STM32WBxx_HAL_Driver/Src/stm32wbxx_hal_ipcc.c **** 
 1021              		.loc 1 148 25 view .LVU288
 1022 0016 43F00113 		orr	r3, r3, #65537
 1023 001a 2B60     		str	r3, [r5]
 151:Drivers/STM32WBxx_HAL_Driver/Src/stm32wbxx_hal_ipcc.c **** 
 1024              		.loc 1 151 5 is_stmt 1 view .LVU289
 1025 001c 2046     		mov	r0, r4
 1026 001e FFF7FEFF 		bl	IPCC_SetDefaultCallbacks
 1027              	.LVL96:
 154:Drivers/STM32WBxx_HAL_Driver/Src/stm32wbxx_hal_ipcc.c **** 
 1028              		.loc 1 154 5 view .LVU290
 154:Drivers/STM32WBxx_HAL_Driver/Src/stm32wbxx_hal_ipcc.c **** 
 1029              		.loc 1 154 28 is_stmt 0 view .LVU291
 1030 0022 0020     		movs	r0, #0
 1031 0024 6063     		str	r0, [r4, #52]
 156:Drivers/STM32WBxx_HAL_Driver/Src/stm32wbxx_hal_ipcc.c ****   }
 1032              		.loc 1 156 5 is_stmt 1 view .LVU292
 156:Drivers/STM32WBxx_HAL_Driver/Src/stm32wbxx_hal_ipcc.c ****   }
 1033              		.loc 1 156 18 is_stmt 0 view .LVU293
 1034 0026 0123     		movs	r3, #1
 1035 0028 84F83830 		strb	r3, [r4, #56]
 1036              	.LVL97:
 156:Drivers/STM32WBxx_HAL_Driver/Src/stm32wbxx_hal_ipcc.c ****   }
 1037              		.loc 1 156 18 view .LVU294
 1038              	.LBE2:
 163:Drivers/STM32WBxx_HAL_Driver/Src/stm32wbxx_hal_ipcc.c **** }
 1039              		.loc 1 163 3 is_stmt 1 view .LVU295
 164:Drivers/STM32WBxx_HAL_Driver/Src/stm32wbxx_hal_ipcc.c **** 
 1040              		.loc 1 164 1 is_stmt 0 view .LVU296
 1041 002c 38BD     		pop	{r3, r4, r5, pc}
 1042              	.LVL98:
 1043              	.L95:
 1044              	.LBB3:
 141:Drivers/STM32WBxx_HAL_Driver/Src/stm32wbxx_hal_ipcc.c ****     }
 1045              		.loc 1 141 7 is_stmt 1 view .LVU297
 1046 002e FFF7FEFF 		bl	HAL_IPCC_MspInit
 1047              	.LVL99:
 141:Drivers/STM32WBxx_HAL_Driver/Src/stm32wbxx_hal_ipcc.c ****     }
 1048              		.loc 1 141 7 is_stmt 0 view .LVU298
 1049 0032 EBE7     		b	.L89
 1050              	.LVL100:
 1051              	.L90:
 1052              	.LCFI8:
 1053              		.cfi_def_cfa_offset 0
 1054              		.cfi_restore 3
ARM GAS  C:\Users\bku598\AppData\Local\Temp\ccYQV0lk.s 			page 36


 1055              		.cfi_restore 4
 1056              		.cfi_restore 5
 1057              		.cfi_restore 14
 141:Drivers/STM32WBxx_HAL_Driver/Src/stm32wbxx_hal_ipcc.c ****     }
 1058              		.loc 1 141 7 view .LVU299
 1059              	.LBE3:
 160:Drivers/STM32WBxx_HAL_Driver/Src/stm32wbxx_hal_ipcc.c ****   }
 1060              		.loc 1 160 9 view .LVU300
 1061 0034 0120     		movs	r0, #1
 1062              	.LVL101:
 163:Drivers/STM32WBxx_HAL_Driver/Src/stm32wbxx_hal_ipcc.c **** }
 1063              		.loc 1 163 3 is_stmt 1 view .LVU301
 164:Drivers/STM32WBxx_HAL_Driver/Src/stm32wbxx_hal_ipcc.c **** 
 1064              		.loc 1 164 1 is_stmt 0 view .LVU302
 1065 0036 7047     		bx	lr
 1066              	.L97:
 1067              		.align	2
 1068              	.L96:
 1069 0038 000C0058 		.word	1476398080
 1070              		.cfi_endproc
 1071              	.LFE950:
 1073              		.section	.text.HAL_IPCC_DeInit,"ax",%progbits
 1074              		.align	1
 1075              		.global	HAL_IPCC_DeInit
 1076              		.syntax unified
 1077              		.thumb
 1078              		.thumb_func
 1080              	HAL_IPCC_DeInit:
 1081              	.LVL102:
 1082              	.LFB951:
 172:Drivers/STM32WBxx_HAL_Driver/Src/stm32wbxx_hal_ipcc.c ****   HAL_StatusTypeDef err = HAL_OK;
 1083              		.loc 1 172 1 is_stmt 1 view -0
 1084              		.cfi_startproc
 1085              		@ args = 0, pretend = 0, frame = 0
 1086              		@ frame_needed = 0, uses_anonymous_args = 0
 173:Drivers/STM32WBxx_HAL_Driver/Src/stm32wbxx_hal_ipcc.c **** 
 1087              		.loc 1 173 3 view .LVU304
 176:Drivers/STM32WBxx_HAL_Driver/Src/stm32wbxx_hal_ipcc.c ****   {
 1088              		.loc 1 176 3 view .LVU305
 176:Drivers/STM32WBxx_HAL_Driver/Src/stm32wbxx_hal_ipcc.c ****   {
 1089              		.loc 1 176 6 is_stmt 0 view .LVU306
 1090 0000 98B1     		cbz	r0, .L100
 172:Drivers/STM32WBxx_HAL_Driver/Src/stm32wbxx_hal_ipcc.c ****   HAL_StatusTypeDef err = HAL_OK;
 1091              		.loc 1 172 1 view .LVU307
 1092 0002 38B5     		push	{r3, r4, r5, lr}
 1093              	.LCFI9:
 1094              		.cfi_def_cfa_offset 16
 1095              		.cfi_offset 3, -16
 1096              		.cfi_offset 4, -12
 1097              		.cfi_offset 5, -8
 1098              		.cfi_offset 14, -4
 1099 0004 0546     		mov	r5, r0
 1100              	.LBB4:
 178:Drivers/STM32WBxx_HAL_Driver/Src/stm32wbxx_hal_ipcc.c ****     IPCC_CommonTypeDef *currentInstance = IPCC_C1;
 1101              		.loc 1 178 5 is_stmt 1 view .LVU308
 179:Drivers/STM32WBxx_HAL_Driver/Src/stm32wbxx_hal_ipcc.c **** 
 1102              		.loc 1 179 5 view .LVU309
ARM GAS  C:\Users\bku598\AppData\Local\Temp\ccYQV0lk.s 			page 37


 1103              	.LVL103:
 182:Drivers/STM32WBxx_HAL_Driver/Src/stm32wbxx_hal_ipcc.c **** 
 1104              		.loc 1 182 5 view .LVU310
 182:Drivers/STM32WBxx_HAL_Driver/Src/stm32wbxx_hal_ipcc.c **** 
 1105              		.loc 1 182 18 is_stmt 0 view .LVU311
 1106 0006 0223     		movs	r3, #2
 1107 0008 80F83830 		strb	r3, [r0, #56]
 185:Drivers/STM32WBxx_HAL_Driver/Src/stm32wbxx_hal_ipcc.c **** 
 1108              		.loc 1 185 5 is_stmt 1 view .LVU312
 1109 000c 0848     		ldr	r0, .L105
 1110              	.LVL104:
 185:Drivers/STM32WBxx_HAL_Driver/Src/stm32wbxx_hal_ipcc.c **** 
 1111              		.loc 1 185 5 is_stmt 0 view .LVU313
 1112 000e FFF7FEFF 		bl	IPCC_Reset_Register
 1113              	.LVL105:
 188:Drivers/STM32WBxx_HAL_Driver/Src/stm32wbxx_hal_ipcc.c **** 
 1114              		.loc 1 188 5 is_stmt 1 view .LVU314
 1115 0012 2846     		mov	r0, r5
 1116 0014 FFF7FEFF 		bl	IPCC_SetDefaultCallbacks
 1117              	.LVL106:
 191:Drivers/STM32WBxx_HAL_Driver/Src/stm32wbxx_hal_ipcc.c **** 
 1118              		.loc 1 191 5 view .LVU315
 191:Drivers/STM32WBxx_HAL_Driver/Src/stm32wbxx_hal_ipcc.c **** 
 1119              		.loc 1 191 28 is_stmt 0 view .LVU316
 1120 0018 0024     		movs	r4, #0
 1121 001a 6C63     		str	r4, [r5, #52]
 194:Drivers/STM32WBxx_HAL_Driver/Src/stm32wbxx_hal_ipcc.c **** 
 1122              		.loc 1 194 5 is_stmt 1 view .LVU317
 1123 001c 2846     		mov	r0, r5
 1124 001e FFF7FEFF 		bl	HAL_IPCC_MspDeInit
 1125              	.LVL107:
 196:Drivers/STM32WBxx_HAL_Driver/Src/stm32wbxx_hal_ipcc.c ****   }
 1126              		.loc 1 196 5 view .LVU318
 196:Drivers/STM32WBxx_HAL_Driver/Src/stm32wbxx_hal_ipcc.c ****   }
 1127              		.loc 1 196 18 is_stmt 0 view .LVU319
 1128 0022 85F83840 		strb	r4, [r5, #56]
 1129              	.LBE4:
 173:Drivers/STM32WBxx_HAL_Driver/Src/stm32wbxx_hal_ipcc.c **** 
 1130              		.loc 1 173 21 view .LVU320
 1131 0026 2046     		mov	r0, r4
 1132              	.LVL108:
 203:Drivers/STM32WBxx_HAL_Driver/Src/stm32wbxx_hal_ipcc.c **** }
 1133              		.loc 1 203 3 is_stmt 1 view .LVU321
 204:Drivers/STM32WBxx_HAL_Driver/Src/stm32wbxx_hal_ipcc.c **** 
 1134              		.loc 1 204 1 is_stmt 0 view .LVU322
 1135 0028 38BD     		pop	{r3, r4, r5, pc}
 1136              	.LVL109:
 1137              	.L100:
 1138              	.LCFI10:
 1139              		.cfi_def_cfa_offset 0
 1140              		.cfi_restore 3
 1141              		.cfi_restore 4
 1142              		.cfi_restore 5
 1143              		.cfi_restore 14
 200:Drivers/STM32WBxx_HAL_Driver/Src/stm32wbxx_hal_ipcc.c ****   }
 1144              		.loc 1 200 9 view .LVU323
 1145 002a 0120     		movs	r0, #1
ARM GAS  C:\Users\bku598\AppData\Local\Temp\ccYQV0lk.s 			page 38


 1146              	.LVL110:
 203:Drivers/STM32WBxx_HAL_Driver/Src/stm32wbxx_hal_ipcc.c **** }
 1147              		.loc 1 203 3 is_stmt 1 view .LVU324
 204:Drivers/STM32WBxx_HAL_Driver/Src/stm32wbxx_hal_ipcc.c **** 
 1148              		.loc 1 204 1 is_stmt 0 view .LVU325
 1149 002c 7047     		bx	lr
 1150              	.L106:
 1151 002e 00BF     		.align	2
 1152              	.L105:
 1153 0030 000C0058 		.word	1476398080
 1154              		.cfi_endproc
 1155              	.LFE951:
 1157              		.text
 1158              	.Letext0:
 1159              		.file 2 "C:\\dev\\tools\\gcc-arm-none-eabi-13.3\\bin\\../lib/gcc/arm-none-eabi/13.3.1/../../../../
 1160              		.file 3 "C:\\dev\\tools\\gcc-arm-none-eabi-13.3\\bin\\../lib/gcc/arm-none-eabi/13.3.1/../../../../
 1161              		.file 4 "Drivers/CMSIS/Device/ST/STM32WBxx/Include/stm32wb55xx.h"
 1162              		.file 5 "Drivers/STM32WBxx_HAL_Driver/Inc/stm32wbxx_hal_def.h"
 1163              		.file 6 "Drivers/STM32WBxx_HAL_Driver/Inc/stm32wbxx_hal_ipcc.h"
ARM GAS  C:\Users\bku598\AppData\Local\Temp\ccYQV0lk.s 			page 39

