ARM GAS  C:\Users\bku598\AppData\Local\Temp\ccpE5VlW.s 			page 1


   1              		.cpu cortex-m4
   2              		.arch armv7e-m
   3              		.fpu fpv4-sp-d16
   4              		.eabi_attribute 27, 1
   5              		.eabi_attribute 28, 1
   6              		.eabi_attribute 20, 1
   7              		.eabi_attribute 21, 1
   8              		.eabi_attribute 23, 3
   9              		.eabi_attribute 24, 1
  10              		.eabi_attribute 25, 1
  11              		.eabi_attribute 26, 1
  12              		.eabi_attribute 30, 1
  13              		.eabi_attribute 34, 1
  14              		.eabi_attribute 18, 4
  15              		.file	"usbd_conf.c"
  16              		.text
  17              	.Ltext0:
  18              		.cfi_sections	.debug_frame
  19              		.file 1 "USB_Device/Target/usbd_conf.c"
  20              		.section	.text.USBD_Get_USB_Status,"ax",%progbits
  21              		.align	1
  22              		.syntax unified
  23              		.thumb
  24              		.thumb_func
  26              	USBD_Get_USB_Status:
  27              	.LVL0:
  28              	.LFB1447:
   1:USB_Device/Target/usbd_conf.c **** /* USER CODE BEGIN Header */
   2:USB_Device/Target/usbd_conf.c **** /**
   3:USB_Device/Target/usbd_conf.c ****   ******************************************************************************
   4:USB_Device/Target/usbd_conf.c ****   * @file           : Target/usbd_conf.c
   5:USB_Device/Target/usbd_conf.c ****   * @version        : v3.0_Cube
   6:USB_Device/Target/usbd_conf.c ****   * @brief          : This file implements the board support package for the USB device library
   7:USB_Device/Target/usbd_conf.c ****   ******************************************************************************
   8:USB_Device/Target/usbd_conf.c ****   * @attention
   9:USB_Device/Target/usbd_conf.c ****   *
  10:USB_Device/Target/usbd_conf.c ****   * Copyright (c) 2026 STMicroelectronics.
  11:USB_Device/Target/usbd_conf.c ****   * All rights reserved.
  12:USB_Device/Target/usbd_conf.c ****   *
  13:USB_Device/Target/usbd_conf.c ****   * This software is licensed under terms that can be found in the LICENSE file
  14:USB_Device/Target/usbd_conf.c ****   * in the root directory of this software component.
  15:USB_Device/Target/usbd_conf.c ****   * If no LICENSE file comes with this software, it is provided AS-IS.
  16:USB_Device/Target/usbd_conf.c ****   *
  17:USB_Device/Target/usbd_conf.c ****   ******************************************************************************
  18:USB_Device/Target/usbd_conf.c ****   */
  19:USB_Device/Target/usbd_conf.c **** /* USER CODE END Header */
  20:USB_Device/Target/usbd_conf.c **** 
  21:USB_Device/Target/usbd_conf.c **** /* Includes ------------------------------------------------------------------*/
  22:USB_Device/Target/usbd_conf.c **** #include "main.h"
  23:USB_Device/Target/usbd_conf.c **** #include "stm32wbxx.h"
  24:USB_Device/Target/usbd_conf.c **** #include "stm32wbxx_hal.h"
  25:USB_Device/Target/usbd_conf.c **** #include "usbd_def.h"
  26:USB_Device/Target/usbd_conf.c **** #include "usbd_core.h"
  27:USB_Device/Target/usbd_conf.c **** 
  28:USB_Device/Target/usbd_conf.c **** #include "usbd_cdc.h"
  29:USB_Device/Target/usbd_conf.c **** 
  30:USB_Device/Target/usbd_conf.c **** /* USER CODE BEGIN Includes */
ARM GAS  C:\Users\bku598\AppData\Local\Temp\ccpE5VlW.s 			page 2


  31:USB_Device/Target/usbd_conf.c **** 
  32:USB_Device/Target/usbd_conf.c **** /* USER CODE END Includes */
  33:USB_Device/Target/usbd_conf.c **** 
  34:USB_Device/Target/usbd_conf.c **** /* Private typedef -----------------------------------------------------------*/
  35:USB_Device/Target/usbd_conf.c **** /* Private define ------------------------------------------------------------*/
  36:USB_Device/Target/usbd_conf.c **** /* Private macro -------------------------------------------------------------*/
  37:USB_Device/Target/usbd_conf.c **** 
  38:USB_Device/Target/usbd_conf.c **** /* Private variables ---------------------------------------------------------*/
  39:USB_Device/Target/usbd_conf.c **** /* USER CODE BEGIN PV */
  40:USB_Device/Target/usbd_conf.c **** 
  41:USB_Device/Target/usbd_conf.c **** /* USER CODE END PV */
  42:USB_Device/Target/usbd_conf.c **** 
  43:USB_Device/Target/usbd_conf.c **** PCD_HandleTypeDef hpcd_USB_FS;
  44:USB_Device/Target/usbd_conf.c **** void Error_Handler(void);
  45:USB_Device/Target/usbd_conf.c **** 
  46:USB_Device/Target/usbd_conf.c **** /* USER CODE BEGIN 0 */
  47:USB_Device/Target/usbd_conf.c **** 
  48:USB_Device/Target/usbd_conf.c **** /* USER CODE END 0 */
  49:USB_Device/Target/usbd_conf.c **** 
  50:USB_Device/Target/usbd_conf.c **** /* Exported function prototypes ----------------------------------------------*/
  51:USB_Device/Target/usbd_conf.c **** 
  52:USB_Device/Target/usbd_conf.c **** /* USER CODE BEGIN PFP */
  53:USB_Device/Target/usbd_conf.c **** /* Private function prototypes -----------------------------------------------*/
  54:USB_Device/Target/usbd_conf.c **** 
  55:USB_Device/Target/usbd_conf.c **** /* USER CODE END PFP */
  56:USB_Device/Target/usbd_conf.c **** 
  57:USB_Device/Target/usbd_conf.c **** /* Private functions ---------------------------------------------------------*/
  58:USB_Device/Target/usbd_conf.c **** static USBD_StatusTypeDef USBD_Get_USB_Status(HAL_StatusTypeDef hal_status);
  59:USB_Device/Target/usbd_conf.c **** /* USER CODE BEGIN 1 */
  60:USB_Device/Target/usbd_conf.c **** static void SystemClockConfig_Resume(void);
  61:USB_Device/Target/usbd_conf.c **** 
  62:USB_Device/Target/usbd_conf.c **** /* USER CODE END 1 */
  63:USB_Device/Target/usbd_conf.c **** extern void SystemClock_Config(void);
  64:USB_Device/Target/usbd_conf.c **** 
  65:USB_Device/Target/usbd_conf.c **** /*******************************************************************************
  66:USB_Device/Target/usbd_conf.c ****                        LL Driver Callbacks (PCD -> USB Device Library)
  67:USB_Device/Target/usbd_conf.c **** *******************************************************************************/
  68:USB_Device/Target/usbd_conf.c **** /* MSP Init */
  69:USB_Device/Target/usbd_conf.c **** 
  70:USB_Device/Target/usbd_conf.c **** #if (USE_HAL_PCD_REGISTER_CALLBACKS == 1U)
  71:USB_Device/Target/usbd_conf.c **** static void HAL_PCD_MspInit(PCD_HandleTypeDef* pcdHandle)
  72:USB_Device/Target/usbd_conf.c **** #else
  73:USB_Device/Target/usbd_conf.c **** void HAL_PCD_MspInit(PCD_HandleTypeDef* pcdHandle)
  74:USB_Device/Target/usbd_conf.c **** #endif /* USE_HAL_PCD_REGISTER_CALLBACKS */
  75:USB_Device/Target/usbd_conf.c **** {
  76:USB_Device/Target/usbd_conf.c ****   GPIO_InitTypeDef GPIO_InitStruct = {0};
  77:USB_Device/Target/usbd_conf.c ****   RCC_PeriphCLKInitTypeDef PeriphClkInitStruct = {0};
  78:USB_Device/Target/usbd_conf.c ****   if(pcdHandle->Instance==USB)
  79:USB_Device/Target/usbd_conf.c ****   {
  80:USB_Device/Target/usbd_conf.c ****   /* USER CODE BEGIN USB_MspInit 0 */
  81:USB_Device/Target/usbd_conf.c **** 
  82:USB_Device/Target/usbd_conf.c ****   /* USER CODE END USB_MspInit 0 */
  83:USB_Device/Target/usbd_conf.c **** 
  84:USB_Device/Target/usbd_conf.c ****   /** Initializes the peripherals clock
  85:USB_Device/Target/usbd_conf.c ****   */
  86:USB_Device/Target/usbd_conf.c ****     PeriphClkInitStruct.PeriphClockSelection = RCC_PERIPHCLK_USB;
  87:USB_Device/Target/usbd_conf.c ****     PeriphClkInitStruct.UsbClockSelection = RCC_USBCLKSOURCE_HSI48;
ARM GAS  C:\Users\bku598\AppData\Local\Temp\ccpE5VlW.s 			page 3


  88:USB_Device/Target/usbd_conf.c ****     if (HAL_RCCEx_PeriphCLKConfig(&PeriphClkInitStruct) != HAL_OK)
  89:USB_Device/Target/usbd_conf.c ****     {
  90:USB_Device/Target/usbd_conf.c ****       Error_Handler();
  91:USB_Device/Target/usbd_conf.c ****     }
  92:USB_Device/Target/usbd_conf.c **** 
  93:USB_Device/Target/usbd_conf.c ****     __HAL_RCC_GPIOA_CLK_ENABLE();
  94:USB_Device/Target/usbd_conf.c ****     /**USB GPIO Configuration
  95:USB_Device/Target/usbd_conf.c ****     PA11     ------> USB_DM
  96:USB_Device/Target/usbd_conf.c ****     PA12     ------> USB_DP
  97:USB_Device/Target/usbd_conf.c ****     */
  98:USB_Device/Target/usbd_conf.c ****     GPIO_InitStruct.Pin = GPIO_PIN_11|GPIO_PIN_12;
  99:USB_Device/Target/usbd_conf.c ****     GPIO_InitStruct.Mode = GPIO_MODE_AF_PP;
 100:USB_Device/Target/usbd_conf.c ****     GPIO_InitStruct.Pull = GPIO_NOPULL;
 101:USB_Device/Target/usbd_conf.c ****     GPIO_InitStruct.Speed = GPIO_SPEED_FREQ_LOW;
 102:USB_Device/Target/usbd_conf.c ****     GPIO_InitStruct.Alternate = GPIO_AF10_USB;
 103:USB_Device/Target/usbd_conf.c ****     HAL_GPIO_Init(GPIOA, &GPIO_InitStruct);
 104:USB_Device/Target/usbd_conf.c **** 
 105:USB_Device/Target/usbd_conf.c ****     /* Peripheral clock enable */
 106:USB_Device/Target/usbd_conf.c ****     __HAL_RCC_USB_CLK_ENABLE();
 107:USB_Device/Target/usbd_conf.c **** 
 108:USB_Device/Target/usbd_conf.c ****     /* Peripheral interrupt init */
 109:USB_Device/Target/usbd_conf.c ****     HAL_NVIC_SetPriority(USB_LP_IRQn, 0, 0);
 110:USB_Device/Target/usbd_conf.c ****     HAL_NVIC_EnableIRQ(USB_LP_IRQn);
 111:USB_Device/Target/usbd_conf.c ****   /* USER CODE BEGIN USB_MspInit 1 */
 112:USB_Device/Target/usbd_conf.c **** 
 113:USB_Device/Target/usbd_conf.c ****   /* USER CODE END USB_MspInit 1 */
 114:USB_Device/Target/usbd_conf.c ****   }
 115:USB_Device/Target/usbd_conf.c **** }
 116:USB_Device/Target/usbd_conf.c **** 
 117:USB_Device/Target/usbd_conf.c **** #if (USE_HAL_PCD_REGISTER_CALLBACKS == 1U)
 118:USB_Device/Target/usbd_conf.c **** static void HAL_PCD_MspDeInit(PCD_HandleTypeDef* pcdHandle)
 119:USB_Device/Target/usbd_conf.c **** #else
 120:USB_Device/Target/usbd_conf.c **** void HAL_PCD_MspDeInit(PCD_HandleTypeDef* pcdHandle)
 121:USB_Device/Target/usbd_conf.c **** #endif /* USE_HAL_PCD_REGISTER_CALLBACKS */
 122:USB_Device/Target/usbd_conf.c **** {
 123:USB_Device/Target/usbd_conf.c ****   if(pcdHandle->Instance==USB)
 124:USB_Device/Target/usbd_conf.c ****   {
 125:USB_Device/Target/usbd_conf.c ****   /* USER CODE BEGIN USB_MspDeInit 0 */
 126:USB_Device/Target/usbd_conf.c **** 
 127:USB_Device/Target/usbd_conf.c ****   /* USER CODE END USB_MspDeInit 0 */
 128:USB_Device/Target/usbd_conf.c ****     /* Peripheral clock disable */
 129:USB_Device/Target/usbd_conf.c ****     __HAL_RCC_USB_CLK_DISABLE();
 130:USB_Device/Target/usbd_conf.c **** 
 131:USB_Device/Target/usbd_conf.c ****     /**USB GPIO Configuration
 132:USB_Device/Target/usbd_conf.c ****     PA11     ------> USB_DM
 133:USB_Device/Target/usbd_conf.c ****     PA12     ------> USB_DP
 134:USB_Device/Target/usbd_conf.c ****     */
 135:USB_Device/Target/usbd_conf.c ****     HAL_GPIO_DeInit(GPIOA, GPIO_PIN_11|GPIO_PIN_12);
 136:USB_Device/Target/usbd_conf.c **** 
 137:USB_Device/Target/usbd_conf.c ****     /* Peripheral interrupt Deinit*/
 138:USB_Device/Target/usbd_conf.c ****     HAL_NVIC_DisableIRQ(USB_LP_IRQn);
 139:USB_Device/Target/usbd_conf.c **** 
 140:USB_Device/Target/usbd_conf.c ****   /* USER CODE BEGIN USB_MspDeInit 1 */
 141:USB_Device/Target/usbd_conf.c **** 
 142:USB_Device/Target/usbd_conf.c ****   /* USER CODE END USB_MspDeInit 1 */
 143:USB_Device/Target/usbd_conf.c ****   }
 144:USB_Device/Target/usbd_conf.c **** }
ARM GAS  C:\Users\bku598\AppData\Local\Temp\ccpE5VlW.s 			page 4


 145:USB_Device/Target/usbd_conf.c **** 
 146:USB_Device/Target/usbd_conf.c **** /**
 147:USB_Device/Target/usbd_conf.c ****   * @brief  Setup stage callback
 148:USB_Device/Target/usbd_conf.c ****   * @param  hpcd: PCD handle
 149:USB_Device/Target/usbd_conf.c ****   * @retval None
 150:USB_Device/Target/usbd_conf.c ****   */
 151:USB_Device/Target/usbd_conf.c **** #if (USE_HAL_PCD_REGISTER_CALLBACKS == 1U)
 152:USB_Device/Target/usbd_conf.c **** static void PCD_SetupStageCallback(PCD_HandleTypeDef *hpcd)
 153:USB_Device/Target/usbd_conf.c **** #else
 154:USB_Device/Target/usbd_conf.c **** void HAL_PCD_SetupStageCallback(PCD_HandleTypeDef *hpcd)
 155:USB_Device/Target/usbd_conf.c **** #endif /* USE_HAL_PCD_REGISTER_CALLBACKS */
 156:USB_Device/Target/usbd_conf.c **** {
 157:USB_Device/Target/usbd_conf.c ****   /* USER CODE BEGIN HAL_PCD_SetupStageCallback_PreTreatment */
 158:USB_Device/Target/usbd_conf.c **** 
 159:USB_Device/Target/usbd_conf.c ****   /* USER CODE END  HAL_PCD_SetupStageCallback_PreTreatment */
 160:USB_Device/Target/usbd_conf.c ****   USBD_LL_SetupStage((USBD_HandleTypeDef*)hpcd->pData, (uint8_t *)hpcd->Setup);
 161:USB_Device/Target/usbd_conf.c ****   /* USER CODE BEGIN HAL_PCD_SetupStageCallback_PostTreatment */
 162:USB_Device/Target/usbd_conf.c **** 
 163:USB_Device/Target/usbd_conf.c ****   /* USER CODE END  HAL_PCD_SetupStageCallback_PostTreatment */
 164:USB_Device/Target/usbd_conf.c **** }
 165:USB_Device/Target/usbd_conf.c **** 
 166:USB_Device/Target/usbd_conf.c **** /**
 167:USB_Device/Target/usbd_conf.c ****   * @brief  Data Out stage callback.
 168:USB_Device/Target/usbd_conf.c ****   * @param  hpcd: PCD handle
 169:USB_Device/Target/usbd_conf.c ****   * @param  epnum: Endpoint number
 170:USB_Device/Target/usbd_conf.c ****   * @retval None
 171:USB_Device/Target/usbd_conf.c ****   */
 172:USB_Device/Target/usbd_conf.c **** #if (USE_HAL_PCD_REGISTER_CALLBACKS == 1U)
 173:USB_Device/Target/usbd_conf.c **** static void PCD_DataOutStageCallback(PCD_HandleTypeDef *hpcd, uint8_t epnum)
 174:USB_Device/Target/usbd_conf.c **** #else
 175:USB_Device/Target/usbd_conf.c **** void HAL_PCD_DataOutStageCallback(PCD_HandleTypeDef *hpcd, uint8_t epnum)
 176:USB_Device/Target/usbd_conf.c **** #endif /* USE_HAL_PCD_REGISTER_CALLBACKS */
 177:USB_Device/Target/usbd_conf.c **** {
 178:USB_Device/Target/usbd_conf.c ****   /* USER CODE BEGIN HAL_PCD_DataOutStageCallback_PreTreatment */
 179:USB_Device/Target/usbd_conf.c **** 
 180:USB_Device/Target/usbd_conf.c ****   /* USER CODE END HAL_PCD_DataOutStageCallback_PreTreatment */
 181:USB_Device/Target/usbd_conf.c ****   USBD_LL_DataOutStage((USBD_HandleTypeDef*)hpcd->pData, epnum, hpcd->OUT_ep[epnum].xfer_buff);
 182:USB_Device/Target/usbd_conf.c ****   /* USER CODE BEGIN HAL_PCD_DataOutStageCallback_PostTreatment */
 183:USB_Device/Target/usbd_conf.c **** 
 184:USB_Device/Target/usbd_conf.c ****   /* USER CODE END HAL_PCD_DataOutStageCallback_PostTreatment */
 185:USB_Device/Target/usbd_conf.c **** }
 186:USB_Device/Target/usbd_conf.c **** 
 187:USB_Device/Target/usbd_conf.c **** /**
 188:USB_Device/Target/usbd_conf.c ****   * @brief  Data In stage callback.
 189:USB_Device/Target/usbd_conf.c ****   * @param  hpcd: PCD handle
 190:USB_Device/Target/usbd_conf.c ****   * @param  epnum: Endpoint number
 191:USB_Device/Target/usbd_conf.c ****   * @retval None
 192:USB_Device/Target/usbd_conf.c ****   */
 193:USB_Device/Target/usbd_conf.c **** #if (USE_HAL_PCD_REGISTER_CALLBACKS == 1U)
 194:USB_Device/Target/usbd_conf.c **** static void PCD_DataInStageCallback(PCD_HandleTypeDef *hpcd, uint8_t epnum)
 195:USB_Device/Target/usbd_conf.c **** #else
 196:USB_Device/Target/usbd_conf.c **** void HAL_PCD_DataInStageCallback(PCD_HandleTypeDef *hpcd, uint8_t epnum)
 197:USB_Device/Target/usbd_conf.c **** #endif /* USE_HAL_PCD_REGISTER_CALLBACKS */
 198:USB_Device/Target/usbd_conf.c **** {
 199:USB_Device/Target/usbd_conf.c ****   /* USER CODE BEGIN HAL_PCD_DataInStageCallback_PreTreatment */
 200:USB_Device/Target/usbd_conf.c **** 
 201:USB_Device/Target/usbd_conf.c ****   /* USER CODE END HAL_PCD_DataInStageCallback_PreTreatment */
ARM GAS  C:\Users\bku598\AppData\Local\Temp\ccpE5VlW.s 			page 5


 202:USB_Device/Target/usbd_conf.c ****   USBD_LL_DataInStage((USBD_HandleTypeDef*)hpcd->pData, epnum, hpcd->IN_ep[epnum].xfer_buff);
 203:USB_Device/Target/usbd_conf.c ****   /* USER CODE BEGIN HAL_PCD_DataInStageCallback_PostTreatment  */
 204:USB_Device/Target/usbd_conf.c **** 
 205:USB_Device/Target/usbd_conf.c ****   /* USER CODE END HAL_PCD_DataInStageCallback_PostTreatment */
 206:USB_Device/Target/usbd_conf.c **** }
 207:USB_Device/Target/usbd_conf.c **** 
 208:USB_Device/Target/usbd_conf.c **** /**
 209:USB_Device/Target/usbd_conf.c ****   * @brief  SOF callback.
 210:USB_Device/Target/usbd_conf.c ****   * @param  hpcd: PCD handle
 211:USB_Device/Target/usbd_conf.c ****   * @retval None
 212:USB_Device/Target/usbd_conf.c ****   */
 213:USB_Device/Target/usbd_conf.c **** #if (USE_HAL_PCD_REGISTER_CALLBACKS == 1U)
 214:USB_Device/Target/usbd_conf.c **** static void PCD_SOFCallback(PCD_HandleTypeDef *hpcd)
 215:USB_Device/Target/usbd_conf.c **** #else
 216:USB_Device/Target/usbd_conf.c **** void HAL_PCD_SOFCallback(PCD_HandleTypeDef *hpcd)
 217:USB_Device/Target/usbd_conf.c **** #endif /* USE_HAL_PCD_REGISTER_CALLBACKS */
 218:USB_Device/Target/usbd_conf.c **** {
 219:USB_Device/Target/usbd_conf.c ****   /* USER CODE BEGIN HAL_PCD_SOFCallback_PreTreatment */
 220:USB_Device/Target/usbd_conf.c **** 
 221:USB_Device/Target/usbd_conf.c ****   /* USER CODE END HAL_PCD_SOFCallback_PreTreatment */
 222:USB_Device/Target/usbd_conf.c ****   USBD_LL_SOF((USBD_HandleTypeDef*)hpcd->pData);
 223:USB_Device/Target/usbd_conf.c ****   /* USER CODE BEGIN HAL_PCD_SOFCallback_PostTreatment */
 224:USB_Device/Target/usbd_conf.c **** 
 225:USB_Device/Target/usbd_conf.c ****   /* USER CODE END HAL_PCD_SOFCallback_PostTreatment */
 226:USB_Device/Target/usbd_conf.c **** }
 227:USB_Device/Target/usbd_conf.c **** 
 228:USB_Device/Target/usbd_conf.c **** /**
 229:USB_Device/Target/usbd_conf.c ****   * @brief  Reset callback.
 230:USB_Device/Target/usbd_conf.c ****   * @param  hpcd: PCD handle
 231:USB_Device/Target/usbd_conf.c ****   * @retval None
 232:USB_Device/Target/usbd_conf.c ****   */
 233:USB_Device/Target/usbd_conf.c **** #if (USE_HAL_PCD_REGISTER_CALLBACKS == 1U)
 234:USB_Device/Target/usbd_conf.c **** static void PCD_ResetCallback(PCD_HandleTypeDef *hpcd)
 235:USB_Device/Target/usbd_conf.c **** #else
 236:USB_Device/Target/usbd_conf.c **** void HAL_PCD_ResetCallback(PCD_HandleTypeDef *hpcd)
 237:USB_Device/Target/usbd_conf.c **** #endif /* USE_HAL_PCD_REGISTER_CALLBACKS */
 238:USB_Device/Target/usbd_conf.c **** {
 239:USB_Device/Target/usbd_conf.c ****   /* USER CODE BEGIN HAL_PCD_ResetCallback_PreTreatment */
 240:USB_Device/Target/usbd_conf.c **** 
 241:USB_Device/Target/usbd_conf.c ****   /* USER CODE END HAL_PCD_ResetCallback_PreTreatment */
 242:USB_Device/Target/usbd_conf.c ****   USBD_SpeedTypeDef speed = USBD_SPEED_FULL;
 243:USB_Device/Target/usbd_conf.c **** 
 244:USB_Device/Target/usbd_conf.c ****   if ( hpcd->Init.speed != PCD_SPEED_FULL)
 245:USB_Device/Target/usbd_conf.c ****   {
 246:USB_Device/Target/usbd_conf.c ****     Error_Handler();
 247:USB_Device/Target/usbd_conf.c ****   }
 248:USB_Device/Target/usbd_conf.c ****     /* Set Speed. */
 249:USB_Device/Target/usbd_conf.c ****   USBD_LL_SetSpeed((USBD_HandleTypeDef*)hpcd->pData, speed);
 250:USB_Device/Target/usbd_conf.c **** 
 251:USB_Device/Target/usbd_conf.c ****   /* Reset Device. */
 252:USB_Device/Target/usbd_conf.c ****   USBD_LL_Reset((USBD_HandleTypeDef*)hpcd->pData);
 253:USB_Device/Target/usbd_conf.c ****   /* USER CODE BEGIN HAL_PCD_ResetCallback_PostTreatment */
 254:USB_Device/Target/usbd_conf.c **** 
 255:USB_Device/Target/usbd_conf.c ****   /* USER CODE END HAL_PCD_ResetCallback_PostTreatment */
 256:USB_Device/Target/usbd_conf.c **** }
 257:USB_Device/Target/usbd_conf.c **** 
 258:USB_Device/Target/usbd_conf.c **** /**
ARM GAS  C:\Users\bku598\AppData\Local\Temp\ccpE5VlW.s 			page 6


 259:USB_Device/Target/usbd_conf.c ****   * @brief  Suspend callback.
 260:USB_Device/Target/usbd_conf.c ****   * When Low power mode is enabled the debug cannot be used (IAR, Keil doesn't support it)
 261:USB_Device/Target/usbd_conf.c ****   * @param  hpcd: PCD handle
 262:USB_Device/Target/usbd_conf.c ****   * @retval None
 263:USB_Device/Target/usbd_conf.c ****   */
 264:USB_Device/Target/usbd_conf.c **** #if (USE_HAL_PCD_REGISTER_CALLBACKS == 1U)
 265:USB_Device/Target/usbd_conf.c **** static void PCD_SuspendCallback(PCD_HandleTypeDef *hpcd)
 266:USB_Device/Target/usbd_conf.c **** #else
 267:USB_Device/Target/usbd_conf.c **** void HAL_PCD_SuspendCallback(PCD_HandleTypeDef *hpcd)
 268:USB_Device/Target/usbd_conf.c **** #endif /* USE_HAL_PCD_REGISTER_CALLBACKS */
 269:USB_Device/Target/usbd_conf.c **** {
 270:USB_Device/Target/usbd_conf.c ****   /* USER CODE BEGIN HAL_PCD_SuspendCallback_PreTreatment */
 271:USB_Device/Target/usbd_conf.c **** 
 272:USB_Device/Target/usbd_conf.c ****   /* USER CODE END HAL_PCD_SuspendCallback_PreTreatment */
 273:USB_Device/Target/usbd_conf.c ****   /* Inform USB library that core enters in suspend Mode. */
 274:USB_Device/Target/usbd_conf.c ****   USBD_LL_Suspend((USBD_HandleTypeDef*)hpcd->pData);
 275:USB_Device/Target/usbd_conf.c ****   /* Enter in STOP mode. */
 276:USB_Device/Target/usbd_conf.c ****   /* USER CODE BEGIN 2 */
 277:USB_Device/Target/usbd_conf.c ****   if (hpcd->Init.low_power_enable)
 278:USB_Device/Target/usbd_conf.c ****   {
 279:USB_Device/Target/usbd_conf.c ****     /* Set SLEEPDEEP bit and SleepOnExit of Cortex System Control Register. */
 280:USB_Device/Target/usbd_conf.c ****     SCB->SCR |= (uint32_t)((uint32_t)(SCB_SCR_SLEEPDEEP_Msk | SCB_SCR_SLEEPONEXIT_Msk));
 281:USB_Device/Target/usbd_conf.c ****   }
 282:USB_Device/Target/usbd_conf.c ****   /* USER CODE END 2 */
 283:USB_Device/Target/usbd_conf.c ****   /* USER CODE BEGIN HAL_PCD_SuspendCallback_PostTreatment */
 284:USB_Device/Target/usbd_conf.c **** 
 285:USB_Device/Target/usbd_conf.c ****   /* USER CODE END HAL_PCD_SuspendCallback_PostTreatment */
 286:USB_Device/Target/usbd_conf.c **** }
 287:USB_Device/Target/usbd_conf.c **** 
 288:USB_Device/Target/usbd_conf.c **** /**
 289:USB_Device/Target/usbd_conf.c ****   * @brief  Resume callback.
 290:USB_Device/Target/usbd_conf.c ****   * When Low power mode is enabled the debug cannot be used (IAR, Keil doesn't support it)
 291:USB_Device/Target/usbd_conf.c ****   * @param  hpcd: PCD handle
 292:USB_Device/Target/usbd_conf.c ****   * @retval None
 293:USB_Device/Target/usbd_conf.c ****   */
 294:USB_Device/Target/usbd_conf.c **** #if (USE_HAL_PCD_REGISTER_CALLBACKS == 1U)
 295:USB_Device/Target/usbd_conf.c **** static void PCD_ResumeCallback(PCD_HandleTypeDef *hpcd)
 296:USB_Device/Target/usbd_conf.c **** #else
 297:USB_Device/Target/usbd_conf.c **** void HAL_PCD_ResumeCallback(PCD_HandleTypeDef *hpcd)
 298:USB_Device/Target/usbd_conf.c **** #endif /* USE_HAL_PCD_REGISTER_CALLBACKS */
 299:USB_Device/Target/usbd_conf.c **** {
 300:USB_Device/Target/usbd_conf.c ****   /* USER CODE BEGIN HAL_PCD_ResumeCallback_PreTreatment */
 301:USB_Device/Target/usbd_conf.c **** 
 302:USB_Device/Target/usbd_conf.c ****   /* USER CODE END HAL_PCD_ResumeCallback_PreTreatment */
 303:USB_Device/Target/usbd_conf.c **** 
 304:USB_Device/Target/usbd_conf.c ****   /* USER CODE BEGIN 3 */
 305:USB_Device/Target/usbd_conf.c ****   if (hpcd->Init.low_power_enable)
 306:USB_Device/Target/usbd_conf.c ****   {
 307:USB_Device/Target/usbd_conf.c ****     /* Reset SLEEPDEEP bit of Cortex System Control Register. */
 308:USB_Device/Target/usbd_conf.c ****     SCB->SCR &= (uint32_t)~((uint32_t)(SCB_SCR_SLEEPDEEP_Msk | SCB_SCR_SLEEPONEXIT_Msk));
 309:USB_Device/Target/usbd_conf.c ****     SystemClockConfig_Resume();
 310:USB_Device/Target/usbd_conf.c ****   }
 311:USB_Device/Target/usbd_conf.c ****   /* USER CODE END 3 */
 312:USB_Device/Target/usbd_conf.c **** 
 313:USB_Device/Target/usbd_conf.c ****   USBD_LL_Resume((USBD_HandleTypeDef*)hpcd->pData);
 314:USB_Device/Target/usbd_conf.c ****   /* USER CODE BEGIN HAL_PCD_ResumeCallback_PostTreatment */
 315:USB_Device/Target/usbd_conf.c **** 
ARM GAS  C:\Users\bku598\AppData\Local\Temp\ccpE5VlW.s 			page 7


 316:USB_Device/Target/usbd_conf.c ****   /* USER CODE END HAL_PCD_ResumeCallback_PostTreatment */
 317:USB_Device/Target/usbd_conf.c **** }
 318:USB_Device/Target/usbd_conf.c **** 
 319:USB_Device/Target/usbd_conf.c **** /**
 320:USB_Device/Target/usbd_conf.c ****   * @brief  ISOOUTIncomplete callback.
 321:USB_Device/Target/usbd_conf.c ****   * @param  hpcd: PCD handle
 322:USB_Device/Target/usbd_conf.c ****   * @param  epnum: Endpoint number
 323:USB_Device/Target/usbd_conf.c ****   * @retval None
 324:USB_Device/Target/usbd_conf.c ****   */
 325:USB_Device/Target/usbd_conf.c **** #if (USE_HAL_PCD_REGISTER_CALLBACKS == 1U)
 326:USB_Device/Target/usbd_conf.c **** static void PCD_ISOOUTIncompleteCallback(PCD_HandleTypeDef *hpcd, uint8_t epnum)
 327:USB_Device/Target/usbd_conf.c **** #else
 328:USB_Device/Target/usbd_conf.c **** void HAL_PCD_ISOOUTIncompleteCallback(PCD_HandleTypeDef *hpcd, uint8_t epnum)
 329:USB_Device/Target/usbd_conf.c **** #endif /* USE_HAL_PCD_REGISTER_CALLBACKS */
 330:USB_Device/Target/usbd_conf.c **** {
 331:USB_Device/Target/usbd_conf.c ****   /* USER CODE BEGIN HAL_PCD_ISOOUTIncompleteCallback_PreTreatment */
 332:USB_Device/Target/usbd_conf.c **** 
 333:USB_Device/Target/usbd_conf.c ****   /* USER CODE END HAL_PCD_ISOOUTIncompleteCallback_PreTreatment */
 334:USB_Device/Target/usbd_conf.c ****   USBD_LL_IsoOUTIncomplete((USBD_HandleTypeDef*)hpcd->pData, epnum);
 335:USB_Device/Target/usbd_conf.c ****   /* USER CODE BEGIN HAL_PCD_ISOOUTIncompleteCallback_PostTreatment */
 336:USB_Device/Target/usbd_conf.c **** 
 337:USB_Device/Target/usbd_conf.c ****   /* USER CODE END HAL_PCD_ISOOUTIncompleteCallback_PostTreatment */
 338:USB_Device/Target/usbd_conf.c **** }
 339:USB_Device/Target/usbd_conf.c **** 
 340:USB_Device/Target/usbd_conf.c **** /**
 341:USB_Device/Target/usbd_conf.c ****   * @brief  ISOINIncomplete callback.
 342:USB_Device/Target/usbd_conf.c ****   * @param  hpcd: PCD handle
 343:USB_Device/Target/usbd_conf.c ****   * @param  epnum: Endpoint number
 344:USB_Device/Target/usbd_conf.c ****   * @retval None
 345:USB_Device/Target/usbd_conf.c ****   */
 346:USB_Device/Target/usbd_conf.c **** #if (USE_HAL_PCD_REGISTER_CALLBACKS == 1U)
 347:USB_Device/Target/usbd_conf.c **** static void PCD_ISOINIncompleteCallback(PCD_HandleTypeDef *hpcd, uint8_t epnum)
 348:USB_Device/Target/usbd_conf.c **** #else
 349:USB_Device/Target/usbd_conf.c **** void HAL_PCD_ISOINIncompleteCallback(PCD_HandleTypeDef *hpcd, uint8_t epnum)
 350:USB_Device/Target/usbd_conf.c **** #endif /* USE_HAL_PCD_REGISTER_CALLBACKS */
 351:USB_Device/Target/usbd_conf.c **** {
 352:USB_Device/Target/usbd_conf.c ****   /* USER CODE BEGIN HAL_PCD_ISOINIncompleteCallback_PreTreatment */
 353:USB_Device/Target/usbd_conf.c **** 
 354:USB_Device/Target/usbd_conf.c ****   /* USER CODE END HAL_PCD_ISOINIncompleteCallback_PreTreatment */
 355:USB_Device/Target/usbd_conf.c ****   USBD_LL_IsoINIncomplete((USBD_HandleTypeDef*)hpcd->pData, epnum);
 356:USB_Device/Target/usbd_conf.c ****   /* USER CODE BEGIN HAL_PCD_ISOINIncompleteCallback_PostTreatment */
 357:USB_Device/Target/usbd_conf.c **** 
 358:USB_Device/Target/usbd_conf.c ****   /* USER CODE END HAL_PCD_ISOINIncompleteCallback_PostTreatment */
 359:USB_Device/Target/usbd_conf.c **** }
 360:USB_Device/Target/usbd_conf.c **** 
 361:USB_Device/Target/usbd_conf.c **** /**
 362:USB_Device/Target/usbd_conf.c ****   * @brief  Connect callback.
 363:USB_Device/Target/usbd_conf.c ****   * @param  hpcd: PCD handle
 364:USB_Device/Target/usbd_conf.c ****   * @retval None
 365:USB_Device/Target/usbd_conf.c ****   */
 366:USB_Device/Target/usbd_conf.c **** #if (USE_HAL_PCD_REGISTER_CALLBACKS == 1U)
 367:USB_Device/Target/usbd_conf.c **** static void PCD_ConnectCallback(PCD_HandleTypeDef *hpcd)
 368:USB_Device/Target/usbd_conf.c **** #else
 369:USB_Device/Target/usbd_conf.c **** void HAL_PCD_ConnectCallback(PCD_HandleTypeDef *hpcd)
 370:USB_Device/Target/usbd_conf.c **** #endif /* USE_HAL_PCD_REGISTER_CALLBACKS */
 371:USB_Device/Target/usbd_conf.c **** {
 372:USB_Device/Target/usbd_conf.c ****   /* USER CODE BEGIN HAL_PCD_ConnectCallback_PreTreatment */
ARM GAS  C:\Users\bku598\AppData\Local\Temp\ccpE5VlW.s 			page 8


 373:USB_Device/Target/usbd_conf.c **** 
 374:USB_Device/Target/usbd_conf.c ****   /* USER CODE END HAL_PCD_ConnectCallback_PreTreatment */
 375:USB_Device/Target/usbd_conf.c ****   USBD_LL_DevConnected((USBD_HandleTypeDef*)hpcd->pData);
 376:USB_Device/Target/usbd_conf.c ****   /* USER CODE BEGIN HAL_PCD_ConnectCallback_PostTreatment */
 377:USB_Device/Target/usbd_conf.c **** 
 378:USB_Device/Target/usbd_conf.c ****   /* USER CODE END HAL_PCD_ConnectCallback_PostTreatment */
 379:USB_Device/Target/usbd_conf.c **** }
 380:USB_Device/Target/usbd_conf.c **** 
 381:USB_Device/Target/usbd_conf.c **** /**
 382:USB_Device/Target/usbd_conf.c ****   * @brief  Disconnect callback.
 383:USB_Device/Target/usbd_conf.c ****   * @param  hpcd: PCD handle
 384:USB_Device/Target/usbd_conf.c ****   * @retval None
 385:USB_Device/Target/usbd_conf.c ****   */
 386:USB_Device/Target/usbd_conf.c **** #if (USE_HAL_PCD_REGISTER_CALLBACKS == 1U)
 387:USB_Device/Target/usbd_conf.c **** static void PCD_DisconnectCallback(PCD_HandleTypeDef *hpcd)
 388:USB_Device/Target/usbd_conf.c **** #else
 389:USB_Device/Target/usbd_conf.c **** void HAL_PCD_DisconnectCallback(PCD_HandleTypeDef *hpcd)
 390:USB_Device/Target/usbd_conf.c **** #endif /* USE_HAL_PCD_REGISTER_CALLBACKS */
 391:USB_Device/Target/usbd_conf.c **** {
 392:USB_Device/Target/usbd_conf.c ****   /* USER CODE BEGIN HAL_PCD_DisconnectCallback_PreTreatment */
 393:USB_Device/Target/usbd_conf.c **** 
 394:USB_Device/Target/usbd_conf.c ****   /* USER CODE END HAL_PCD_DisconnectCallback_PreTreatment */
 395:USB_Device/Target/usbd_conf.c ****   USBD_LL_DevDisconnected((USBD_HandleTypeDef*)hpcd->pData);
 396:USB_Device/Target/usbd_conf.c ****   /* USER CODE BEGIN HAL_PCD_DisconnectCallback_PostTreatment */
 397:USB_Device/Target/usbd_conf.c **** 
 398:USB_Device/Target/usbd_conf.c ****   /* USER CODE END HAL_PCD_DisconnectCallback_PostTreatment */
 399:USB_Device/Target/usbd_conf.c **** }
 400:USB_Device/Target/usbd_conf.c **** 
 401:USB_Device/Target/usbd_conf.c ****   /* USER CODE BEGIN LowLevelInterface */
 402:USB_Device/Target/usbd_conf.c **** 
 403:USB_Device/Target/usbd_conf.c ****   /* USER CODE END LowLevelInterface */
 404:USB_Device/Target/usbd_conf.c **** 
 405:USB_Device/Target/usbd_conf.c **** /*******************************************************************************
 406:USB_Device/Target/usbd_conf.c ****                        LL Driver Interface (USB Device Library --> PCD)
 407:USB_Device/Target/usbd_conf.c **** *******************************************************************************/
 408:USB_Device/Target/usbd_conf.c **** 
 409:USB_Device/Target/usbd_conf.c **** /**
 410:USB_Device/Target/usbd_conf.c ****   * @brief  Initializes the low level portion of the device driver.
 411:USB_Device/Target/usbd_conf.c ****   * @param  pdev: Device handle
 412:USB_Device/Target/usbd_conf.c ****   * @retval USBD status
 413:USB_Device/Target/usbd_conf.c ****   */
 414:USB_Device/Target/usbd_conf.c **** USBD_StatusTypeDef USBD_LL_Init(USBD_HandleTypeDef *pdev)
 415:USB_Device/Target/usbd_conf.c **** {
 416:USB_Device/Target/usbd_conf.c ****   /* Init USB Ip. */
 417:USB_Device/Target/usbd_conf.c ****   hpcd_USB_FS.pData = pdev;
 418:USB_Device/Target/usbd_conf.c ****   /* Link the driver to the stack. */
 419:USB_Device/Target/usbd_conf.c ****   pdev->pData = &hpcd_USB_FS;
 420:USB_Device/Target/usbd_conf.c **** /* Enable USB power on Pwrctrl CR2 register. */
 421:USB_Device/Target/usbd_conf.c ****   HAL_PWREx_EnableVddUSB();
 422:USB_Device/Target/usbd_conf.c **** 
 423:USB_Device/Target/usbd_conf.c ****   hpcd_USB_FS.Instance = USB;
 424:USB_Device/Target/usbd_conf.c ****   hpcd_USB_FS.Init.dev_endpoints = 8;
 425:USB_Device/Target/usbd_conf.c ****   hpcd_USB_FS.Init.speed = PCD_SPEED_FULL;
 426:USB_Device/Target/usbd_conf.c ****   hpcd_USB_FS.Init.phy_itface = PCD_PHY_EMBEDDED;
 427:USB_Device/Target/usbd_conf.c ****   hpcd_USB_FS.Init.Sof_enable = DISABLE;
 428:USB_Device/Target/usbd_conf.c ****   hpcd_USB_FS.Init.low_power_enable = DISABLE;
 429:USB_Device/Target/usbd_conf.c ****   hpcd_USB_FS.Init.lpm_enable = DISABLE;
ARM GAS  C:\Users\bku598\AppData\Local\Temp\ccpE5VlW.s 			page 9


 430:USB_Device/Target/usbd_conf.c ****   hpcd_USB_FS.Init.battery_charging_enable = DISABLE;
 431:USB_Device/Target/usbd_conf.c **** 
 432:USB_Device/Target/usbd_conf.c ****   #if (USE_HAL_PCD_REGISTER_CALLBACKS == 1U)
 433:USB_Device/Target/usbd_conf.c ****   /* register Msp Callbacks (before the Init) */
 434:USB_Device/Target/usbd_conf.c ****   HAL_PCD_RegisterCallback(&hpcd_USB_FS, HAL_PCD_MSPINIT_CB_ID, PCD_MspInit);
 435:USB_Device/Target/usbd_conf.c ****   HAL_PCD_RegisterCallback(&hpcd_USB_FS, HAL_PCD_MSPDEINIT_CB_ID, PCD_MspDeInit);
 436:USB_Device/Target/usbd_conf.c ****   #endif /* USE_HAL_PCD_REGISTER_CALLBACKS */
 437:USB_Device/Target/usbd_conf.c **** 
 438:USB_Device/Target/usbd_conf.c ****   if (HAL_PCD_Init(&hpcd_USB_FS) != HAL_OK)
 439:USB_Device/Target/usbd_conf.c ****   {
 440:USB_Device/Target/usbd_conf.c ****     Error_Handler( );
 441:USB_Device/Target/usbd_conf.c ****   }
 442:USB_Device/Target/usbd_conf.c **** 
 443:USB_Device/Target/usbd_conf.c **** #if (USE_HAL_PCD_REGISTER_CALLBACKS == 1U)
 444:USB_Device/Target/usbd_conf.c ****   /* Register USB PCD CallBacks */
 445:USB_Device/Target/usbd_conf.c ****   HAL_PCD_RegisterCallback(&hpcd_USB_FS, HAL_PCD_SOF_CB_ID, PCD_SOFCallback);
 446:USB_Device/Target/usbd_conf.c ****   HAL_PCD_RegisterCallback(&hpcd_USB_FS, HAL_PCD_SETUPSTAGE_CB_ID, PCD_SetupStageCallback);
 447:USB_Device/Target/usbd_conf.c ****   HAL_PCD_RegisterCallback(&hpcd_USB_FS, HAL_PCD_RESET_CB_ID, PCD_ResetCallback);
 448:USB_Device/Target/usbd_conf.c ****   HAL_PCD_RegisterCallback(&hpcd_USB_FS, HAL_PCD_SUSPEND_CB_ID, PCD_SuspendCallback);
 449:USB_Device/Target/usbd_conf.c ****   HAL_PCD_RegisterCallback(&hpcd_USB_FS, HAL_PCD_RESUME_CB_ID, PCD_ResumeCallback);
 450:USB_Device/Target/usbd_conf.c ****   HAL_PCD_RegisterCallback(&hpcd_USB_FS, HAL_PCD_CONNECT_CB_ID, PCD_ConnectCallback);
 451:USB_Device/Target/usbd_conf.c ****   HAL_PCD_RegisterCallback(&hpcd_USB_FS, HAL_PCD_DISCONNECT_CB_ID, PCD_DisconnectCallback);
 452:USB_Device/Target/usbd_conf.c ****   /* USER CODE BEGIN RegisterCallBackFirstPart */
 453:USB_Device/Target/usbd_conf.c **** 
 454:USB_Device/Target/usbd_conf.c ****   /* USER CODE END RegisterCallBackFirstPart */
 455:USB_Device/Target/usbd_conf.c ****   HAL_PCD_RegisterDataOutStageCallback(&hpcd_USB_FS, PCD_DataOutStageCallback);
 456:USB_Device/Target/usbd_conf.c ****   HAL_PCD_RegisterDataInStageCallback(&hpcd_USB_FS, PCD_DataInStageCallback);
 457:USB_Device/Target/usbd_conf.c ****   HAL_PCD_RegisterIsoOutIncpltCallback(&hpcd_USB_FS, PCD_ISOOUTIncompleteCallback);
 458:USB_Device/Target/usbd_conf.c ****   HAL_PCD_RegisterIsoInIncpltCallback(&hpcd_USB_FS, PCD_ISOINIncompleteCallback);
 459:USB_Device/Target/usbd_conf.c ****   /* USER CODE BEGIN RegisterCallBackSecondPart */
 460:USB_Device/Target/usbd_conf.c **** 
 461:USB_Device/Target/usbd_conf.c ****   /* USER CODE END RegisterCallBackSecondPart */
 462:USB_Device/Target/usbd_conf.c **** #endif /* USE_HAL_PCD_REGISTER_CALLBACKS */
 463:USB_Device/Target/usbd_conf.c ****   /* USER CODE BEGIN EndPoint_Configuration */
 464:USB_Device/Target/usbd_conf.c ****   HAL_PCDEx_PMAConfig((PCD_HandleTypeDef*)pdev->pData , 0x00 , PCD_SNG_BUF, 0x18);
 465:USB_Device/Target/usbd_conf.c ****   HAL_PCDEx_PMAConfig((PCD_HandleTypeDef*)pdev->pData , 0x80 , PCD_SNG_BUF, 0x58);
 466:USB_Device/Target/usbd_conf.c ****   /* USER CODE END EndPoint_Configuration */
 467:USB_Device/Target/usbd_conf.c ****   /* USER CODE BEGIN EndPoint_Configuration_CDC */
 468:USB_Device/Target/usbd_conf.c ****   HAL_PCDEx_PMAConfig((PCD_HandleTypeDef*)pdev->pData , 0x81 , PCD_SNG_BUF, 0xC0);
 469:USB_Device/Target/usbd_conf.c ****   HAL_PCDEx_PMAConfig((PCD_HandleTypeDef*)pdev->pData , 0x01 , PCD_SNG_BUF, 0x110);
 470:USB_Device/Target/usbd_conf.c ****   HAL_PCDEx_PMAConfig((PCD_HandleTypeDef*)pdev->pData , 0x82 , PCD_SNG_BUF, 0x100);
 471:USB_Device/Target/usbd_conf.c ****   /* USER CODE END EndPoint_Configuration_CDC */
 472:USB_Device/Target/usbd_conf.c ****   return USBD_OK;
 473:USB_Device/Target/usbd_conf.c **** }
 474:USB_Device/Target/usbd_conf.c **** 
 475:USB_Device/Target/usbd_conf.c **** /**
 476:USB_Device/Target/usbd_conf.c ****   * @brief  De-Initializes the low level portion of the device driver.
 477:USB_Device/Target/usbd_conf.c ****   * @param  pdev: Device handle
 478:USB_Device/Target/usbd_conf.c ****   * @retval USBD status
 479:USB_Device/Target/usbd_conf.c ****   */
 480:USB_Device/Target/usbd_conf.c **** USBD_StatusTypeDef USBD_LL_DeInit(USBD_HandleTypeDef *pdev)
 481:USB_Device/Target/usbd_conf.c **** {
 482:USB_Device/Target/usbd_conf.c ****   HAL_StatusTypeDef hal_status = HAL_OK;
 483:USB_Device/Target/usbd_conf.c ****   USBD_StatusTypeDef usb_status = USBD_OK;
 484:USB_Device/Target/usbd_conf.c **** 
 485:USB_Device/Target/usbd_conf.c ****   hal_status = HAL_PCD_DeInit(pdev->pData);
 486:USB_Device/Target/usbd_conf.c **** 
ARM GAS  C:\Users\bku598\AppData\Local\Temp\ccpE5VlW.s 			page 10


 487:USB_Device/Target/usbd_conf.c ****   usb_status =  USBD_Get_USB_Status(hal_status);
 488:USB_Device/Target/usbd_conf.c **** 
 489:USB_Device/Target/usbd_conf.c ****   return usb_status;
 490:USB_Device/Target/usbd_conf.c **** }
 491:USB_Device/Target/usbd_conf.c **** 
 492:USB_Device/Target/usbd_conf.c **** /**
 493:USB_Device/Target/usbd_conf.c ****   * @brief  Starts the low level portion of the device driver.
 494:USB_Device/Target/usbd_conf.c ****   * @param  pdev: Device handle
 495:USB_Device/Target/usbd_conf.c ****   * @retval USBD status
 496:USB_Device/Target/usbd_conf.c ****   */
 497:USB_Device/Target/usbd_conf.c **** USBD_StatusTypeDef USBD_LL_Start(USBD_HandleTypeDef *pdev)
 498:USB_Device/Target/usbd_conf.c **** {
 499:USB_Device/Target/usbd_conf.c ****   HAL_StatusTypeDef hal_status = HAL_OK;
 500:USB_Device/Target/usbd_conf.c ****   USBD_StatusTypeDef usb_status = USBD_OK;
 501:USB_Device/Target/usbd_conf.c **** 
 502:USB_Device/Target/usbd_conf.c ****   hal_status = HAL_PCD_Start(pdev->pData);
 503:USB_Device/Target/usbd_conf.c **** 
 504:USB_Device/Target/usbd_conf.c ****   usb_status =  USBD_Get_USB_Status(hal_status);
 505:USB_Device/Target/usbd_conf.c **** 
 506:USB_Device/Target/usbd_conf.c ****   return usb_status;
 507:USB_Device/Target/usbd_conf.c **** }
 508:USB_Device/Target/usbd_conf.c **** 
 509:USB_Device/Target/usbd_conf.c **** /**
 510:USB_Device/Target/usbd_conf.c ****   * @brief  Stops the low level portion of the device driver.
 511:USB_Device/Target/usbd_conf.c ****   * @param  pdev: Device handle
 512:USB_Device/Target/usbd_conf.c ****   * @retval USBD status
 513:USB_Device/Target/usbd_conf.c ****   */
 514:USB_Device/Target/usbd_conf.c **** USBD_StatusTypeDef USBD_LL_Stop(USBD_HandleTypeDef *pdev)
 515:USB_Device/Target/usbd_conf.c **** {
 516:USB_Device/Target/usbd_conf.c ****   HAL_StatusTypeDef hal_status = HAL_OK;
 517:USB_Device/Target/usbd_conf.c ****   USBD_StatusTypeDef usb_status = USBD_OK;
 518:USB_Device/Target/usbd_conf.c **** 
 519:USB_Device/Target/usbd_conf.c ****   hal_status = HAL_PCD_Stop(pdev->pData);
 520:USB_Device/Target/usbd_conf.c **** 
 521:USB_Device/Target/usbd_conf.c ****   usb_status =  USBD_Get_USB_Status(hal_status);
 522:USB_Device/Target/usbd_conf.c **** 
 523:USB_Device/Target/usbd_conf.c ****   return usb_status;
 524:USB_Device/Target/usbd_conf.c **** }
 525:USB_Device/Target/usbd_conf.c **** 
 526:USB_Device/Target/usbd_conf.c **** /**
 527:USB_Device/Target/usbd_conf.c ****   * @brief  Opens an endpoint of the low level driver.
 528:USB_Device/Target/usbd_conf.c ****   * @param  pdev: Device handle
 529:USB_Device/Target/usbd_conf.c ****   * @param  ep_addr: Endpoint number
 530:USB_Device/Target/usbd_conf.c ****   * @param  ep_type: Endpoint type
 531:USB_Device/Target/usbd_conf.c ****   * @param  ep_mps: Endpoint max packet size
 532:USB_Device/Target/usbd_conf.c ****   * @retval USBD status
 533:USB_Device/Target/usbd_conf.c ****   */
 534:USB_Device/Target/usbd_conf.c **** USBD_StatusTypeDef USBD_LL_OpenEP(USBD_HandleTypeDef *pdev, uint8_t ep_addr, uint8_t ep_type, uint1
 535:USB_Device/Target/usbd_conf.c **** {
 536:USB_Device/Target/usbd_conf.c ****   HAL_StatusTypeDef hal_status = HAL_OK;
 537:USB_Device/Target/usbd_conf.c ****   USBD_StatusTypeDef usb_status = USBD_OK;
 538:USB_Device/Target/usbd_conf.c **** 
 539:USB_Device/Target/usbd_conf.c ****   hal_status = HAL_PCD_EP_Open(pdev->pData, ep_addr, ep_mps, ep_type);
 540:USB_Device/Target/usbd_conf.c **** 
 541:USB_Device/Target/usbd_conf.c ****   usb_status =  USBD_Get_USB_Status(hal_status);
 542:USB_Device/Target/usbd_conf.c **** 
 543:USB_Device/Target/usbd_conf.c ****   return usb_status;
ARM GAS  C:\Users\bku598\AppData\Local\Temp\ccpE5VlW.s 			page 11


 544:USB_Device/Target/usbd_conf.c **** }
 545:USB_Device/Target/usbd_conf.c **** 
 546:USB_Device/Target/usbd_conf.c **** /**
 547:USB_Device/Target/usbd_conf.c ****   * @brief  Closes an endpoint of the low level driver.
 548:USB_Device/Target/usbd_conf.c ****   * @param  pdev: Device handle
 549:USB_Device/Target/usbd_conf.c ****   * @param  ep_addr: Endpoint number
 550:USB_Device/Target/usbd_conf.c ****   * @retval USBD status
 551:USB_Device/Target/usbd_conf.c ****   */
 552:USB_Device/Target/usbd_conf.c **** USBD_StatusTypeDef USBD_LL_CloseEP(USBD_HandleTypeDef *pdev, uint8_t ep_addr)
 553:USB_Device/Target/usbd_conf.c **** {
 554:USB_Device/Target/usbd_conf.c ****   HAL_StatusTypeDef hal_status = HAL_OK;
 555:USB_Device/Target/usbd_conf.c ****   USBD_StatusTypeDef usb_status = USBD_OK;
 556:USB_Device/Target/usbd_conf.c **** 
 557:USB_Device/Target/usbd_conf.c ****   hal_status = HAL_PCD_EP_Close(pdev->pData, ep_addr);
 558:USB_Device/Target/usbd_conf.c **** 
 559:USB_Device/Target/usbd_conf.c ****   usb_status =  USBD_Get_USB_Status(hal_status);
 560:USB_Device/Target/usbd_conf.c **** 
 561:USB_Device/Target/usbd_conf.c ****   return usb_status;
 562:USB_Device/Target/usbd_conf.c **** }
 563:USB_Device/Target/usbd_conf.c **** 
 564:USB_Device/Target/usbd_conf.c **** /**
 565:USB_Device/Target/usbd_conf.c ****   * @brief  Flushes an endpoint of the Low Level Driver.
 566:USB_Device/Target/usbd_conf.c ****   * @param  pdev: Device handle
 567:USB_Device/Target/usbd_conf.c ****   * @param  ep_addr: Endpoint number
 568:USB_Device/Target/usbd_conf.c ****   * @retval USBD status
 569:USB_Device/Target/usbd_conf.c ****   */
 570:USB_Device/Target/usbd_conf.c **** USBD_StatusTypeDef USBD_LL_FlushEP(USBD_HandleTypeDef *pdev, uint8_t ep_addr)
 571:USB_Device/Target/usbd_conf.c **** {
 572:USB_Device/Target/usbd_conf.c ****   HAL_StatusTypeDef hal_status = HAL_OK;
 573:USB_Device/Target/usbd_conf.c ****   USBD_StatusTypeDef usb_status = USBD_OK;
 574:USB_Device/Target/usbd_conf.c **** 
 575:USB_Device/Target/usbd_conf.c ****   hal_status = HAL_PCD_EP_Flush(pdev->pData, ep_addr);
 576:USB_Device/Target/usbd_conf.c **** 
 577:USB_Device/Target/usbd_conf.c ****   usb_status =  USBD_Get_USB_Status(hal_status);
 578:USB_Device/Target/usbd_conf.c **** 
 579:USB_Device/Target/usbd_conf.c ****   return usb_status;
 580:USB_Device/Target/usbd_conf.c **** }
 581:USB_Device/Target/usbd_conf.c **** 
 582:USB_Device/Target/usbd_conf.c **** /**
 583:USB_Device/Target/usbd_conf.c ****   * @brief  Sets a Stall condition on an endpoint of the Low Level Driver.
 584:USB_Device/Target/usbd_conf.c ****   * @param  pdev: Device handle
 585:USB_Device/Target/usbd_conf.c ****   * @param  ep_addr: Endpoint number
 586:USB_Device/Target/usbd_conf.c ****   * @retval USBD status
 587:USB_Device/Target/usbd_conf.c ****   */
 588:USB_Device/Target/usbd_conf.c **** USBD_StatusTypeDef USBD_LL_StallEP(USBD_HandleTypeDef *pdev, uint8_t ep_addr)
 589:USB_Device/Target/usbd_conf.c **** {
 590:USB_Device/Target/usbd_conf.c ****   HAL_StatusTypeDef hal_status = HAL_OK;
 591:USB_Device/Target/usbd_conf.c ****   USBD_StatusTypeDef usb_status = USBD_OK;
 592:USB_Device/Target/usbd_conf.c **** 
 593:USB_Device/Target/usbd_conf.c ****   hal_status = HAL_PCD_EP_SetStall(pdev->pData, ep_addr);
 594:USB_Device/Target/usbd_conf.c **** 
 595:USB_Device/Target/usbd_conf.c ****   usb_status =  USBD_Get_USB_Status(hal_status);
 596:USB_Device/Target/usbd_conf.c **** 
 597:USB_Device/Target/usbd_conf.c ****   return usb_status;
 598:USB_Device/Target/usbd_conf.c **** }
 599:USB_Device/Target/usbd_conf.c **** 
 600:USB_Device/Target/usbd_conf.c **** /**
ARM GAS  C:\Users\bku598\AppData\Local\Temp\ccpE5VlW.s 			page 12


 601:USB_Device/Target/usbd_conf.c ****   * @brief  Clears a Stall condition on an endpoint of the Low Level Driver.
 602:USB_Device/Target/usbd_conf.c ****   * @param  pdev: Device handle
 603:USB_Device/Target/usbd_conf.c ****   * @param  ep_addr: Endpoint number
 604:USB_Device/Target/usbd_conf.c ****   * @retval USBD status
 605:USB_Device/Target/usbd_conf.c ****   */
 606:USB_Device/Target/usbd_conf.c **** USBD_StatusTypeDef USBD_LL_ClearStallEP(USBD_HandleTypeDef *pdev, uint8_t ep_addr)
 607:USB_Device/Target/usbd_conf.c **** {
 608:USB_Device/Target/usbd_conf.c ****   HAL_StatusTypeDef hal_status = HAL_OK;
 609:USB_Device/Target/usbd_conf.c ****   USBD_StatusTypeDef usb_status = USBD_OK;
 610:USB_Device/Target/usbd_conf.c **** 
 611:USB_Device/Target/usbd_conf.c ****   hal_status = HAL_PCD_EP_ClrStall(pdev->pData, ep_addr);
 612:USB_Device/Target/usbd_conf.c **** 
 613:USB_Device/Target/usbd_conf.c ****   usb_status =  USBD_Get_USB_Status(hal_status);
 614:USB_Device/Target/usbd_conf.c **** 
 615:USB_Device/Target/usbd_conf.c ****   return usb_status;
 616:USB_Device/Target/usbd_conf.c **** }
 617:USB_Device/Target/usbd_conf.c **** 
 618:USB_Device/Target/usbd_conf.c **** /**
 619:USB_Device/Target/usbd_conf.c ****   * @brief  Returns Stall condition.
 620:USB_Device/Target/usbd_conf.c ****   * @param  pdev: Device handle
 621:USB_Device/Target/usbd_conf.c ****   * @param  ep_addr: Endpoint number
 622:USB_Device/Target/usbd_conf.c ****   * @retval Stall (1: Yes, 0: No)
 623:USB_Device/Target/usbd_conf.c ****   */
 624:USB_Device/Target/usbd_conf.c **** uint8_t USBD_LL_IsStallEP(USBD_HandleTypeDef *pdev, uint8_t ep_addr)
 625:USB_Device/Target/usbd_conf.c **** {
 626:USB_Device/Target/usbd_conf.c ****   PCD_HandleTypeDef *hpcd = (PCD_HandleTypeDef*) pdev->pData;
 627:USB_Device/Target/usbd_conf.c **** 
 628:USB_Device/Target/usbd_conf.c ****   if((ep_addr & 0x80) == 0x80)
 629:USB_Device/Target/usbd_conf.c ****   {
 630:USB_Device/Target/usbd_conf.c ****     return hpcd->IN_ep[ep_addr & 0x7F].is_stall;
 631:USB_Device/Target/usbd_conf.c ****   }
 632:USB_Device/Target/usbd_conf.c ****   else
 633:USB_Device/Target/usbd_conf.c ****   {
 634:USB_Device/Target/usbd_conf.c ****     return hpcd->OUT_ep[ep_addr & 0x7F].is_stall;
 635:USB_Device/Target/usbd_conf.c ****   }
 636:USB_Device/Target/usbd_conf.c **** }
 637:USB_Device/Target/usbd_conf.c **** 
 638:USB_Device/Target/usbd_conf.c **** /**
 639:USB_Device/Target/usbd_conf.c ****   * @brief  Assigns a USB address to the device.
 640:USB_Device/Target/usbd_conf.c ****   * @param  pdev: Device handle
 641:USB_Device/Target/usbd_conf.c ****   * @param  dev_addr: Device address
 642:USB_Device/Target/usbd_conf.c ****   * @retval USBD status
 643:USB_Device/Target/usbd_conf.c ****   */
 644:USB_Device/Target/usbd_conf.c **** USBD_StatusTypeDef USBD_LL_SetUSBAddress(USBD_HandleTypeDef *pdev, uint8_t dev_addr)
 645:USB_Device/Target/usbd_conf.c **** {
 646:USB_Device/Target/usbd_conf.c ****   HAL_StatusTypeDef hal_status = HAL_OK;
 647:USB_Device/Target/usbd_conf.c ****   USBD_StatusTypeDef usb_status = USBD_OK;
 648:USB_Device/Target/usbd_conf.c **** 
 649:USB_Device/Target/usbd_conf.c ****   hal_status = HAL_PCD_SetAddress(pdev->pData, dev_addr);
 650:USB_Device/Target/usbd_conf.c **** 
 651:USB_Device/Target/usbd_conf.c ****   usb_status =  USBD_Get_USB_Status(hal_status);
 652:USB_Device/Target/usbd_conf.c **** 
 653:USB_Device/Target/usbd_conf.c ****   return usb_status;
 654:USB_Device/Target/usbd_conf.c **** }
 655:USB_Device/Target/usbd_conf.c **** 
 656:USB_Device/Target/usbd_conf.c **** /**
 657:USB_Device/Target/usbd_conf.c ****   * @brief  Transmits data over an endpoint.
ARM GAS  C:\Users\bku598\AppData\Local\Temp\ccpE5VlW.s 			page 13


 658:USB_Device/Target/usbd_conf.c ****   * @param  pdev: Device handle
 659:USB_Device/Target/usbd_conf.c ****   * @param  ep_addr: Endpoint number
 660:USB_Device/Target/usbd_conf.c ****   * @param  pbuf: Pointer to data to be sent
 661:USB_Device/Target/usbd_conf.c ****   * @param  size: Data size
 662:USB_Device/Target/usbd_conf.c ****   * @retval USBD status
 663:USB_Device/Target/usbd_conf.c ****   */
 664:USB_Device/Target/usbd_conf.c **** USBD_StatusTypeDef USBD_LL_Transmit(USBD_HandleTypeDef *pdev, uint8_t ep_addr, uint8_t *pbuf, uint3
 665:USB_Device/Target/usbd_conf.c **** {
 666:USB_Device/Target/usbd_conf.c ****   HAL_StatusTypeDef hal_status = HAL_OK;
 667:USB_Device/Target/usbd_conf.c ****   USBD_StatusTypeDef usb_status = USBD_OK;
 668:USB_Device/Target/usbd_conf.c **** 
 669:USB_Device/Target/usbd_conf.c ****   hal_status = HAL_PCD_EP_Transmit(pdev->pData, ep_addr, pbuf, size);
 670:USB_Device/Target/usbd_conf.c **** 
 671:USB_Device/Target/usbd_conf.c ****   usb_status =  USBD_Get_USB_Status(hal_status);
 672:USB_Device/Target/usbd_conf.c **** 
 673:USB_Device/Target/usbd_conf.c ****   return usb_status;
 674:USB_Device/Target/usbd_conf.c **** }
 675:USB_Device/Target/usbd_conf.c **** 
 676:USB_Device/Target/usbd_conf.c **** /**
 677:USB_Device/Target/usbd_conf.c ****   * @brief  Prepares an endpoint for reception.
 678:USB_Device/Target/usbd_conf.c ****   * @param  pdev: Device handle
 679:USB_Device/Target/usbd_conf.c ****   * @param  ep_addr: Endpoint number
 680:USB_Device/Target/usbd_conf.c ****   * @param  pbuf: Pointer to data to be received
 681:USB_Device/Target/usbd_conf.c ****   * @param  size: Data size
 682:USB_Device/Target/usbd_conf.c ****   * @retval USBD status
 683:USB_Device/Target/usbd_conf.c ****   */
 684:USB_Device/Target/usbd_conf.c **** USBD_StatusTypeDef USBD_LL_PrepareReceive(USBD_HandleTypeDef *pdev, uint8_t ep_addr, uint8_t *pbuf,
 685:USB_Device/Target/usbd_conf.c **** {
 686:USB_Device/Target/usbd_conf.c ****   HAL_StatusTypeDef hal_status = HAL_OK;
 687:USB_Device/Target/usbd_conf.c ****   USBD_StatusTypeDef usb_status = USBD_OK;
 688:USB_Device/Target/usbd_conf.c **** 
 689:USB_Device/Target/usbd_conf.c ****   hal_status = HAL_PCD_EP_Receive(pdev->pData, ep_addr, pbuf, size);
 690:USB_Device/Target/usbd_conf.c **** 
 691:USB_Device/Target/usbd_conf.c ****   usb_status =  USBD_Get_USB_Status(hal_status);
 692:USB_Device/Target/usbd_conf.c **** 
 693:USB_Device/Target/usbd_conf.c ****   return usb_status;
 694:USB_Device/Target/usbd_conf.c **** }
 695:USB_Device/Target/usbd_conf.c **** 
 696:USB_Device/Target/usbd_conf.c **** /**
 697:USB_Device/Target/usbd_conf.c ****   * @brief  Returns the last transferred packet size.
 698:USB_Device/Target/usbd_conf.c ****   * @param  pdev: Device handle
 699:USB_Device/Target/usbd_conf.c ****   * @param  ep_addr: Endpoint number
 700:USB_Device/Target/usbd_conf.c ****   * @retval Received Data Size
 701:USB_Device/Target/usbd_conf.c ****   */
 702:USB_Device/Target/usbd_conf.c **** uint32_t USBD_LL_GetRxDataSize(USBD_HandleTypeDef *pdev, uint8_t ep_addr)
 703:USB_Device/Target/usbd_conf.c **** {
 704:USB_Device/Target/usbd_conf.c ****   return HAL_PCD_EP_GetRxCount((PCD_HandleTypeDef*) pdev->pData, ep_addr);
 705:USB_Device/Target/usbd_conf.c **** }
 706:USB_Device/Target/usbd_conf.c **** 
 707:USB_Device/Target/usbd_conf.c **** /**
 708:USB_Device/Target/usbd_conf.c ****   * @brief  Delays routine for the USB Device Library.
 709:USB_Device/Target/usbd_conf.c ****   * @param  Delay: Delay in ms
 710:USB_Device/Target/usbd_conf.c ****   * @retval None
 711:USB_Device/Target/usbd_conf.c ****   */
 712:USB_Device/Target/usbd_conf.c **** void USBD_LL_Delay(uint32_t Delay)
 713:USB_Device/Target/usbd_conf.c **** {
 714:USB_Device/Target/usbd_conf.c ****   HAL_Delay(Delay);
ARM GAS  C:\Users\bku598\AppData\Local\Temp\ccpE5VlW.s 			page 14


 715:USB_Device/Target/usbd_conf.c **** }
 716:USB_Device/Target/usbd_conf.c **** 
 717:USB_Device/Target/usbd_conf.c **** /**
 718:USB_Device/Target/usbd_conf.c ****   * @brief  Static single allocation.
 719:USB_Device/Target/usbd_conf.c ****   * @param  size: Size of allocated memory
 720:USB_Device/Target/usbd_conf.c ****   * @retval None
 721:USB_Device/Target/usbd_conf.c ****   */
 722:USB_Device/Target/usbd_conf.c **** void *USBD_static_malloc(uint32_t size)
 723:USB_Device/Target/usbd_conf.c **** {
 724:USB_Device/Target/usbd_conf.c ****   UNUSED(size);
 725:USB_Device/Target/usbd_conf.c ****   static uint32_t mem[(sizeof(USBD_CDC_HandleTypeDef)/4)+1];/* On 32-bit boundary */
 726:USB_Device/Target/usbd_conf.c ****   return mem;
 727:USB_Device/Target/usbd_conf.c **** }
 728:USB_Device/Target/usbd_conf.c **** 
 729:USB_Device/Target/usbd_conf.c **** /**
 730:USB_Device/Target/usbd_conf.c ****   * @brief  Dummy memory free
 731:USB_Device/Target/usbd_conf.c ****   * @param  p: Pointer to allocated  memory address
 732:USB_Device/Target/usbd_conf.c ****   * @retval None
 733:USB_Device/Target/usbd_conf.c ****   */
 734:USB_Device/Target/usbd_conf.c **** void USBD_static_free(void *p)
 735:USB_Device/Target/usbd_conf.c **** {
 736:USB_Device/Target/usbd_conf.c ****   UNUSED(p);
 737:USB_Device/Target/usbd_conf.c **** }
 738:USB_Device/Target/usbd_conf.c **** 
 739:USB_Device/Target/usbd_conf.c **** /* USER CODE BEGIN 5 */
 740:USB_Device/Target/usbd_conf.c **** /**
 741:USB_Device/Target/usbd_conf.c ****   * @brief  Configures system clock after wake-up from USB resume callBack:
 742:USB_Device/Target/usbd_conf.c ****   *         enable HSI, PLL and select PLL as system clock source.
 743:USB_Device/Target/usbd_conf.c ****   * @retval None
 744:USB_Device/Target/usbd_conf.c ****   */
 745:USB_Device/Target/usbd_conf.c **** static void SystemClockConfig_Resume(void)
 746:USB_Device/Target/usbd_conf.c **** {
 747:USB_Device/Target/usbd_conf.c ****   SystemClock_Config();
 748:USB_Device/Target/usbd_conf.c **** }
 749:USB_Device/Target/usbd_conf.c **** /* USER CODE END 5 */
 750:USB_Device/Target/usbd_conf.c **** 
 751:USB_Device/Target/usbd_conf.c **** /**
 752:USB_Device/Target/usbd_conf.c ****   * @brief  Returns the USB status depending on the HAL status:
 753:USB_Device/Target/usbd_conf.c ****   * @param  hal_status: HAL status
 754:USB_Device/Target/usbd_conf.c ****   * @retval USB status
 755:USB_Device/Target/usbd_conf.c ****   */
 756:USB_Device/Target/usbd_conf.c **** USBD_StatusTypeDef USBD_Get_USB_Status(HAL_StatusTypeDef hal_status)
 757:USB_Device/Target/usbd_conf.c **** {
  29              		.loc 1 757 1 view -0
  30              		.cfi_startproc
  31              		@ args = 0, pretend = 0, frame = 0
  32              		@ frame_needed = 0, uses_anonymous_args = 0
  33              		@ link register save eliminated.
 758:USB_Device/Target/usbd_conf.c ****   USBD_StatusTypeDef usb_status = USBD_OK;
  34              		.loc 1 758 3 view .LVU1
 759:USB_Device/Target/usbd_conf.c **** 
 760:USB_Device/Target/usbd_conf.c ****   switch (hal_status)
  35              		.loc 1 760 3 view .LVU2
  36 0000 0328     		cmp	r0, #3
  37 0002 05D8     		bhi	.L7
  38 0004 DFE800F0 		tbb	[pc, r0]
  39              	.L4:
ARM GAS  C:\Users\bku598\AppData\Local\Temp\ccpE5VlW.s 			page 15


  40 0008 05       		.byte	(.L2-.L4)/2
  41 0009 04       		.byte	(.L7-.L4)/2
  42 000a 02       		.byte	(.L5-.L4)/2
  43 000b 05       		.byte	(.L2-.L4)/2
  44              		.p2align 1
  45              	.L5:
 761:USB_Device/Target/usbd_conf.c ****   {
 762:USB_Device/Target/usbd_conf.c ****     case HAL_OK :
 763:USB_Device/Target/usbd_conf.c ****       usb_status = USBD_OK;
 764:USB_Device/Target/usbd_conf.c ****     break;
 765:USB_Device/Target/usbd_conf.c ****     case HAL_ERROR :
 766:USB_Device/Target/usbd_conf.c ****       usb_status = USBD_FAIL;
 767:USB_Device/Target/usbd_conf.c ****     break;
 768:USB_Device/Target/usbd_conf.c ****     case HAL_BUSY :
 769:USB_Device/Target/usbd_conf.c ****       usb_status = USBD_BUSY;
  46              		.loc 1 769 7 view .LVU3
  47              	.LVL1:
 770:USB_Device/Target/usbd_conf.c ****     break;
  48              		.loc 1 770 5 view .LVU4
 769:USB_Device/Target/usbd_conf.c ****     break;
  49              		.loc 1 769 18 is_stmt 0 view .LVU5
  50 000c 0120     		movs	r0, #1
  51              	.LVL2:
  52              		.loc 1 770 5 view .LVU6
  53 000e 7047     		bx	lr
  54              	.LVL3:
  55              	.L7:
 766:USB_Device/Target/usbd_conf.c ****     break;
  56              		.loc 1 766 18 view .LVU7
  57 0010 0320     		movs	r0, #3
  58              	.LVL4:
  59              	.L2:
 771:USB_Device/Target/usbd_conf.c ****     case HAL_TIMEOUT :
 772:USB_Device/Target/usbd_conf.c ****       usb_status = USBD_FAIL;
 773:USB_Device/Target/usbd_conf.c ****     break;
 774:USB_Device/Target/usbd_conf.c ****     default :
 775:USB_Device/Target/usbd_conf.c ****       usb_status = USBD_FAIL;
 776:USB_Device/Target/usbd_conf.c ****     break;
 777:USB_Device/Target/usbd_conf.c ****   }
 778:USB_Device/Target/usbd_conf.c ****   return usb_status;
  60              		.loc 1 778 3 is_stmt 1 view .LVU8
 779:USB_Device/Target/usbd_conf.c **** }
  61              		.loc 1 779 1 is_stmt 0 view .LVU9
  62 0012 7047     		bx	lr
  63              		.cfi_endproc
  64              	.LFE1447:
  66              		.section	.text.SystemClockConfig_Resume,"ax",%progbits
  67              		.align	1
  68              		.syntax unified
  69              		.thumb
  70              		.thumb_func
  72              	SystemClockConfig_Resume:
  73              	.LFB1446:
 746:USB_Device/Target/usbd_conf.c ****   SystemClock_Config();
  74              		.loc 1 746 1 is_stmt 1 view -0
  75              		.cfi_startproc
  76              		@ args = 0, pretend = 0, frame = 0
ARM GAS  C:\Users\bku598\AppData\Local\Temp\ccpE5VlW.s 			page 16


  77              		@ frame_needed = 0, uses_anonymous_args = 0
  78 0000 08B5     		push	{r3, lr}
  79              	.LCFI0:
  80              		.cfi_def_cfa_offset 8
  81              		.cfi_offset 3, -8
  82              		.cfi_offset 14, -4
 747:USB_Device/Target/usbd_conf.c **** }
  83              		.loc 1 747 3 view .LVU11
  84 0002 FFF7FEFF 		bl	SystemClock_Config
  85              	.LVL5:
 748:USB_Device/Target/usbd_conf.c **** /* USER CODE END 5 */
  86              		.loc 1 748 1 is_stmt 0 view .LVU12
  87 0006 08BD     		pop	{r3, pc}
  88              		.cfi_endproc
  89              	.LFE1446:
  91              		.section	.text.HAL_PCD_MspInit,"ax",%progbits
  92              		.align	1
  93              		.global	HAL_PCD_MspInit
  94              		.syntax unified
  95              		.thumb
  96              		.thumb_func
  98              	HAL_PCD_MspInit:
  99              	.LVL6:
 100              	.LFB1416:
  75:USB_Device/Target/usbd_conf.c ****   GPIO_InitTypeDef GPIO_InitStruct = {0};
 101              		.loc 1 75 1 is_stmt 1 view -0
 102              		.cfi_startproc
 103              		@ args = 0, pretend = 0, frame = 112
 104              		@ frame_needed = 0, uses_anonymous_args = 0
  75:USB_Device/Target/usbd_conf.c ****   GPIO_InitTypeDef GPIO_InitStruct = {0};
 105              		.loc 1 75 1 is_stmt 0 view .LVU14
 106 0000 30B5     		push	{r4, r5, lr}
 107              	.LCFI1:
 108              		.cfi_def_cfa_offset 12
 109              		.cfi_offset 4, -12
 110              		.cfi_offset 5, -8
 111              		.cfi_offset 14, -4
 112 0002 9DB0     		sub	sp, sp, #116
 113              	.LCFI2:
 114              		.cfi_def_cfa_offset 128
 115 0004 0446     		mov	r4, r0
  76:USB_Device/Target/usbd_conf.c ****   RCC_PeriphCLKInitTypeDef PeriphClkInitStruct = {0};
 116              		.loc 1 76 3 is_stmt 1 view .LVU15
  76:USB_Device/Target/usbd_conf.c ****   RCC_PeriphCLKInitTypeDef PeriphClkInitStruct = {0};
 117              		.loc 1 76 20 is_stmt 0 view .LVU16
 118 0006 0021     		movs	r1, #0
 119 0008 1791     		str	r1, [sp, #92]
 120 000a 1891     		str	r1, [sp, #96]
 121 000c 1991     		str	r1, [sp, #100]
 122 000e 1A91     		str	r1, [sp, #104]
 123 0010 1B91     		str	r1, [sp, #108]
  77:USB_Device/Target/usbd_conf.c ****   if(pcdHandle->Instance==USB)
 124              		.loc 1 77 3 is_stmt 1 view .LVU17
  77:USB_Device/Target/usbd_conf.c ****   if(pcdHandle->Instance==USB)
 125              		.loc 1 77 28 is_stmt 0 view .LVU18
 126 0012 5022     		movs	r2, #80
 127 0014 03A8     		add	r0, sp, #12
ARM GAS  C:\Users\bku598\AppData\Local\Temp\ccpE5VlW.s 			page 17


 128              	.LVL7:
  77:USB_Device/Target/usbd_conf.c ****   if(pcdHandle->Instance==USB)
 129              		.loc 1 77 28 view .LVU19
 130 0016 FFF7FEFF 		bl	memset
 131              	.LVL8:
  78:USB_Device/Target/usbd_conf.c ****   {
 132              		.loc 1 78 3 is_stmt 1 view .LVU20
  78:USB_Device/Target/usbd_conf.c ****   {
 133              		.loc 1 78 15 is_stmt 0 view .LVU21
 134 001a 2268     		ldr	r2, [r4]
  78:USB_Device/Target/usbd_conf.c ****   {
 135              		.loc 1 78 5 view .LVU22
 136 001c 1D4B     		ldr	r3, .L16
 137 001e 9A42     		cmp	r2, r3
 138 0020 01D0     		beq	.L14
 139              	.LVL9:
 140              	.L10:
 115:USB_Device/Target/usbd_conf.c **** 
 141              		.loc 1 115 1 view .LVU23
 142 0022 1DB0     		add	sp, sp, #116
 143              	.LCFI3:
 144              		.cfi_remember_state
 145              		.cfi_def_cfa_offset 12
 146              		@ sp needed
 147 0024 30BD     		pop	{r4, r5, pc}
 148              	.LVL10:
 149              	.L14:
 150              	.LCFI4:
 151              		.cfi_restore_state
  86:USB_Device/Target/usbd_conf.c ****     PeriphClkInitStruct.UsbClockSelection = RCC_USBCLKSOURCE_HSI48;
 152              		.loc 1 86 5 is_stmt 1 view .LVU24
  86:USB_Device/Target/usbd_conf.c ****     PeriphClkInitStruct.UsbClockSelection = RCC_USBCLKSOURCE_HSI48;
 153              		.loc 1 86 46 is_stmt 0 view .LVU25
 154 0026 4FF48073 		mov	r3, #256
 155 002a 0393     		str	r3, [sp, #12]
  87:USB_Device/Target/usbd_conf.c ****     if (HAL_RCCEx_PeriphCLKConfig(&PeriphClkInitStruct) != HAL_OK)
 156              		.loc 1 87 5 is_stmt 1 view .LVU26
  88:USB_Device/Target/usbd_conf.c ****     {
 157              		.loc 1 88 5 view .LVU27
  88:USB_Device/Target/usbd_conf.c ****     {
 158              		.loc 1 88 9 is_stmt 0 view .LVU28
 159 002c 03A8     		add	r0, sp, #12
 160 002e FFF7FEFF 		bl	HAL_RCCEx_PeriphCLKConfig
 161              	.LVL11:
  88:USB_Device/Target/usbd_conf.c ****     {
 162              		.loc 1 88 8 discriminator 1 view .LVU29
 163 0032 58BB     		cbnz	r0, .L15
 164              	.L12:
  93:USB_Device/Target/usbd_conf.c ****     /**USB GPIO Configuration
 165              		.loc 1 93 5 is_stmt 1 view .LVU30
 166              	.LVL12:
 167              	.LBB8:
 168              	.LBI8:
 169              		.file 2 "Drivers/STM32WBxx_HAL_Driver/Inc/stm32wbxx_ll_bus.h"
   1:Drivers/STM32WBxx_HAL_Driver/Inc/stm32wbxx_ll_bus.h **** /**
   2:Drivers/STM32WBxx_HAL_Driver/Inc/stm32wbxx_ll_bus.h ****   ******************************************************************************
   3:Drivers/STM32WBxx_HAL_Driver/Inc/stm32wbxx_ll_bus.h ****   * @file    stm32wbxx_ll_bus.h
ARM GAS  C:\Users\bku598\AppData\Local\Temp\ccpE5VlW.s 			page 18


   4:Drivers/STM32WBxx_HAL_Driver/Inc/stm32wbxx_ll_bus.h ****   * @author  MCD Application Team
   5:Drivers/STM32WBxx_HAL_Driver/Inc/stm32wbxx_ll_bus.h ****   * @brief   Header file of BUS LL module.
   6:Drivers/STM32WBxx_HAL_Driver/Inc/stm32wbxx_ll_bus.h ****   ******************************************************************************
   7:Drivers/STM32WBxx_HAL_Driver/Inc/stm32wbxx_ll_bus.h ****   * @attention
   8:Drivers/STM32WBxx_HAL_Driver/Inc/stm32wbxx_ll_bus.h ****   *
   9:Drivers/STM32WBxx_HAL_Driver/Inc/stm32wbxx_ll_bus.h ****   * Copyright (c) 2019 STMicroelectronics.
  10:Drivers/STM32WBxx_HAL_Driver/Inc/stm32wbxx_ll_bus.h ****   * All rights reserved.
  11:Drivers/STM32WBxx_HAL_Driver/Inc/stm32wbxx_ll_bus.h ****   *
  12:Drivers/STM32WBxx_HAL_Driver/Inc/stm32wbxx_ll_bus.h ****   * This software is licensed under terms that can be found in the LICENSE file
  13:Drivers/STM32WBxx_HAL_Driver/Inc/stm32wbxx_ll_bus.h ****   * in the root directory of this software component.
  14:Drivers/STM32WBxx_HAL_Driver/Inc/stm32wbxx_ll_bus.h ****   * If no LICENSE file comes with this software, it is provided AS-IS.
  15:Drivers/STM32WBxx_HAL_Driver/Inc/stm32wbxx_ll_bus.h ****   *
  16:Drivers/STM32WBxx_HAL_Driver/Inc/stm32wbxx_ll_bus.h ****   ******************************************************************************
  17:Drivers/STM32WBxx_HAL_Driver/Inc/stm32wbxx_ll_bus.h ****   @verbatim
  18:Drivers/STM32WBxx_HAL_Driver/Inc/stm32wbxx_ll_bus.h ****                       ##### RCC Limitations #####
  19:Drivers/STM32WBxx_HAL_Driver/Inc/stm32wbxx_ll_bus.h ****   ==============================================================================
  20:Drivers/STM32WBxx_HAL_Driver/Inc/stm32wbxx_ll_bus.h ****     [..]
  21:Drivers/STM32WBxx_HAL_Driver/Inc/stm32wbxx_ll_bus.h ****       A delay between an RCC peripheral clock enable and the effective peripheral
  22:Drivers/STM32WBxx_HAL_Driver/Inc/stm32wbxx_ll_bus.h ****       enabling should be taken into account in order to manage the peripheral read/write
  23:Drivers/STM32WBxx_HAL_Driver/Inc/stm32wbxx_ll_bus.h ****       from/to registers.
  24:Drivers/STM32WBxx_HAL_Driver/Inc/stm32wbxx_ll_bus.h ****       (+) This delay depends on the peripheral mapping.
  25:Drivers/STM32WBxx_HAL_Driver/Inc/stm32wbxx_ll_bus.h ****         (++) AHB & APB peripherals, 1 dummy read is necessary
  26:Drivers/STM32WBxx_HAL_Driver/Inc/stm32wbxx_ll_bus.h **** 
  27:Drivers/STM32WBxx_HAL_Driver/Inc/stm32wbxx_ll_bus.h ****     [..]
  28:Drivers/STM32WBxx_HAL_Driver/Inc/stm32wbxx_ll_bus.h ****       Workarounds:
  29:Drivers/STM32WBxx_HAL_Driver/Inc/stm32wbxx_ll_bus.h ****       (#) For AHB & APB peripherals, a dummy read to the peripheral register has been
  30:Drivers/STM32WBxx_HAL_Driver/Inc/stm32wbxx_ll_bus.h ****           inserted in each LL_{BUS}_GRP{x}_EnableClock() function.
  31:Drivers/STM32WBxx_HAL_Driver/Inc/stm32wbxx_ll_bus.h **** 
  32:Drivers/STM32WBxx_HAL_Driver/Inc/stm32wbxx_ll_bus.h ****   @endverbatim
  33:Drivers/STM32WBxx_HAL_Driver/Inc/stm32wbxx_ll_bus.h ****   ******************************************************************************
  34:Drivers/STM32WBxx_HAL_Driver/Inc/stm32wbxx_ll_bus.h ****   */
  35:Drivers/STM32WBxx_HAL_Driver/Inc/stm32wbxx_ll_bus.h **** 
  36:Drivers/STM32WBxx_HAL_Driver/Inc/stm32wbxx_ll_bus.h **** /* Define to prevent recursive inclusion -------------------------------------*/
  37:Drivers/STM32WBxx_HAL_Driver/Inc/stm32wbxx_ll_bus.h **** #ifndef STM32WBxx_LL_BUS_H
  38:Drivers/STM32WBxx_HAL_Driver/Inc/stm32wbxx_ll_bus.h **** #define STM32WBxx_LL_BUS_H
  39:Drivers/STM32WBxx_HAL_Driver/Inc/stm32wbxx_ll_bus.h **** 
  40:Drivers/STM32WBxx_HAL_Driver/Inc/stm32wbxx_ll_bus.h **** #ifdef __cplusplus
  41:Drivers/STM32WBxx_HAL_Driver/Inc/stm32wbxx_ll_bus.h **** extern "C" {
  42:Drivers/STM32WBxx_HAL_Driver/Inc/stm32wbxx_ll_bus.h **** #endif
  43:Drivers/STM32WBxx_HAL_Driver/Inc/stm32wbxx_ll_bus.h **** 
  44:Drivers/STM32WBxx_HAL_Driver/Inc/stm32wbxx_ll_bus.h **** /* Includes ------------------------------------------------------------------*/
  45:Drivers/STM32WBxx_HAL_Driver/Inc/stm32wbxx_ll_bus.h **** #include "stm32wbxx.h"
  46:Drivers/STM32WBxx_HAL_Driver/Inc/stm32wbxx_ll_bus.h **** 
  47:Drivers/STM32WBxx_HAL_Driver/Inc/stm32wbxx_ll_bus.h **** /** @addtogroup STM32WBxx_LL_Driver
  48:Drivers/STM32WBxx_HAL_Driver/Inc/stm32wbxx_ll_bus.h ****   * @{
  49:Drivers/STM32WBxx_HAL_Driver/Inc/stm32wbxx_ll_bus.h ****   */
  50:Drivers/STM32WBxx_HAL_Driver/Inc/stm32wbxx_ll_bus.h **** 
  51:Drivers/STM32WBxx_HAL_Driver/Inc/stm32wbxx_ll_bus.h **** #if defined(RCC)
  52:Drivers/STM32WBxx_HAL_Driver/Inc/stm32wbxx_ll_bus.h **** 
  53:Drivers/STM32WBxx_HAL_Driver/Inc/stm32wbxx_ll_bus.h **** /** @defgroup BUS_LL BUS
  54:Drivers/STM32WBxx_HAL_Driver/Inc/stm32wbxx_ll_bus.h ****   * @{
  55:Drivers/STM32WBxx_HAL_Driver/Inc/stm32wbxx_ll_bus.h ****   */
  56:Drivers/STM32WBxx_HAL_Driver/Inc/stm32wbxx_ll_bus.h **** 
  57:Drivers/STM32WBxx_HAL_Driver/Inc/stm32wbxx_ll_bus.h **** /* Private types -------------------------------------------------------------*/
  58:Drivers/STM32WBxx_HAL_Driver/Inc/stm32wbxx_ll_bus.h **** /* Private variables ---------------------------------------------------------*/
  59:Drivers/STM32WBxx_HAL_Driver/Inc/stm32wbxx_ll_bus.h **** 
  60:Drivers/STM32WBxx_HAL_Driver/Inc/stm32wbxx_ll_bus.h **** /* Private constants ---------------------------------------------------------*/
ARM GAS  C:\Users\bku598\AppData\Local\Temp\ccpE5VlW.s 			page 19


  61:Drivers/STM32WBxx_HAL_Driver/Inc/stm32wbxx_ll_bus.h **** 
  62:Drivers/STM32WBxx_HAL_Driver/Inc/stm32wbxx_ll_bus.h **** /* Private macros ------------------------------------------------------------*/
  63:Drivers/STM32WBxx_HAL_Driver/Inc/stm32wbxx_ll_bus.h **** 
  64:Drivers/STM32WBxx_HAL_Driver/Inc/stm32wbxx_ll_bus.h **** /* Exported types ------------------------------------------------------------*/
  65:Drivers/STM32WBxx_HAL_Driver/Inc/stm32wbxx_ll_bus.h **** 
  66:Drivers/STM32WBxx_HAL_Driver/Inc/stm32wbxx_ll_bus.h **** /* Exported constants --------------------------------------------------------*/
  67:Drivers/STM32WBxx_HAL_Driver/Inc/stm32wbxx_ll_bus.h **** /** @defgroup BUS_LL_Exported_Constants BUS Exported Constants
  68:Drivers/STM32WBxx_HAL_Driver/Inc/stm32wbxx_ll_bus.h ****   * @{
  69:Drivers/STM32WBxx_HAL_Driver/Inc/stm32wbxx_ll_bus.h ****   */
  70:Drivers/STM32WBxx_HAL_Driver/Inc/stm32wbxx_ll_bus.h **** 
  71:Drivers/STM32WBxx_HAL_Driver/Inc/stm32wbxx_ll_bus.h **** /** @defgroup BUS_LL_EC_AHB1_GRP1_PERIPH  AHB1 GRP1 PERIPH
  72:Drivers/STM32WBxx_HAL_Driver/Inc/stm32wbxx_ll_bus.h ****   * @{
  73:Drivers/STM32WBxx_HAL_Driver/Inc/stm32wbxx_ll_bus.h ****   */
  74:Drivers/STM32WBxx_HAL_Driver/Inc/stm32wbxx_ll_bus.h **** #define LL_AHB1_GRP1_PERIPH_ALL            (0xFFFFFFFFU)
  75:Drivers/STM32WBxx_HAL_Driver/Inc/stm32wbxx_ll_bus.h **** 
  76:Drivers/STM32WBxx_HAL_Driver/Inc/stm32wbxx_ll_bus.h **** #define LL_AHB1_GRP1_PERIPH_DMA1           RCC_AHB1ENR_DMA1EN
  77:Drivers/STM32WBxx_HAL_Driver/Inc/stm32wbxx_ll_bus.h **** #if defined(DMA2)
  78:Drivers/STM32WBxx_HAL_Driver/Inc/stm32wbxx_ll_bus.h **** #define LL_AHB1_GRP1_PERIPH_DMA2           RCC_AHB1ENR_DMA2EN
  79:Drivers/STM32WBxx_HAL_Driver/Inc/stm32wbxx_ll_bus.h **** #endif /* DMA2 */
  80:Drivers/STM32WBxx_HAL_Driver/Inc/stm32wbxx_ll_bus.h **** #define LL_AHB1_GRP1_PERIPH_DMAMUX1        RCC_AHB1ENR_DMAMUX1EN
  81:Drivers/STM32WBxx_HAL_Driver/Inc/stm32wbxx_ll_bus.h **** #define LL_AHB1_GRP1_PERIPH_SRAM1          RCC_AHB1SMENR_SRAM1SMEN
  82:Drivers/STM32WBxx_HAL_Driver/Inc/stm32wbxx_ll_bus.h **** #define LL_AHB1_GRP1_PERIPH_CRC            RCC_AHB1ENR_CRCEN
  83:Drivers/STM32WBxx_HAL_Driver/Inc/stm32wbxx_ll_bus.h **** #if defined(TSC)
  84:Drivers/STM32WBxx_HAL_Driver/Inc/stm32wbxx_ll_bus.h **** #define LL_AHB1_GRP1_PERIPH_TSC            RCC_AHB1ENR_TSCEN
  85:Drivers/STM32WBxx_HAL_Driver/Inc/stm32wbxx_ll_bus.h **** #endif /* TSC */
  86:Drivers/STM32WBxx_HAL_Driver/Inc/stm32wbxx_ll_bus.h **** /**
  87:Drivers/STM32WBxx_HAL_Driver/Inc/stm32wbxx_ll_bus.h ****   * @}
  88:Drivers/STM32WBxx_HAL_Driver/Inc/stm32wbxx_ll_bus.h ****   */
  89:Drivers/STM32WBxx_HAL_Driver/Inc/stm32wbxx_ll_bus.h **** 
  90:Drivers/STM32WBxx_HAL_Driver/Inc/stm32wbxx_ll_bus.h **** /** @defgroup BUS_LL_EC_AHB2_GRP1_PERIPH  AHB2 GRP1 PERIPH
  91:Drivers/STM32WBxx_HAL_Driver/Inc/stm32wbxx_ll_bus.h ****   * @{
  92:Drivers/STM32WBxx_HAL_Driver/Inc/stm32wbxx_ll_bus.h ****   */
  93:Drivers/STM32WBxx_HAL_Driver/Inc/stm32wbxx_ll_bus.h **** #define LL_AHB2_GRP1_PERIPH_ALL            (0xFFFFFFFFU)
  94:Drivers/STM32WBxx_HAL_Driver/Inc/stm32wbxx_ll_bus.h **** 
  95:Drivers/STM32WBxx_HAL_Driver/Inc/stm32wbxx_ll_bus.h **** #define LL_AHB2_GRP1_PERIPH_GPIOA          RCC_AHB2ENR_GPIOAEN
  96:Drivers/STM32WBxx_HAL_Driver/Inc/stm32wbxx_ll_bus.h **** #define LL_AHB2_GRP1_PERIPH_GPIOB          RCC_AHB2ENR_GPIOBEN
  97:Drivers/STM32WBxx_HAL_Driver/Inc/stm32wbxx_ll_bus.h **** #define LL_AHB2_GRP1_PERIPH_GPIOC          RCC_AHB2ENR_GPIOCEN
  98:Drivers/STM32WBxx_HAL_Driver/Inc/stm32wbxx_ll_bus.h **** #if defined(GPIOD)
  99:Drivers/STM32WBxx_HAL_Driver/Inc/stm32wbxx_ll_bus.h **** #define LL_AHB2_GRP1_PERIPH_GPIOD          RCC_AHB2ENR_GPIODEN
 100:Drivers/STM32WBxx_HAL_Driver/Inc/stm32wbxx_ll_bus.h **** #endif /* GPIOD */
 101:Drivers/STM32WBxx_HAL_Driver/Inc/stm32wbxx_ll_bus.h **** #define LL_AHB2_GRP1_PERIPH_GPIOE          RCC_AHB2ENR_GPIOEEN
 102:Drivers/STM32WBxx_HAL_Driver/Inc/stm32wbxx_ll_bus.h **** #define LL_AHB2_GRP1_PERIPH_GPIOH          RCC_AHB2ENR_GPIOHEN
 103:Drivers/STM32WBxx_HAL_Driver/Inc/stm32wbxx_ll_bus.h **** #if defined(ADC_SUPPORT_5_MSPS)
 104:Drivers/STM32WBxx_HAL_Driver/Inc/stm32wbxx_ll_bus.h **** #define LL_AHB2_GRP1_PERIPH_ADC            RCC_AHB2ENR_ADCEN
 105:Drivers/STM32WBxx_HAL_Driver/Inc/stm32wbxx_ll_bus.h **** #endif /* ADC_SUPPORT_5_MSPS */
 106:Drivers/STM32WBxx_HAL_Driver/Inc/stm32wbxx_ll_bus.h **** #if defined(AES1)
 107:Drivers/STM32WBxx_HAL_Driver/Inc/stm32wbxx_ll_bus.h **** #define LL_AHB2_GRP1_PERIPH_AES1           RCC_AHB2ENR_AES1EN
 108:Drivers/STM32WBxx_HAL_Driver/Inc/stm32wbxx_ll_bus.h **** #endif /* AES1 */
 109:Drivers/STM32WBxx_HAL_Driver/Inc/stm32wbxx_ll_bus.h **** /**
 110:Drivers/STM32WBxx_HAL_Driver/Inc/stm32wbxx_ll_bus.h ****   * @}
 111:Drivers/STM32WBxx_HAL_Driver/Inc/stm32wbxx_ll_bus.h ****   */
 112:Drivers/STM32WBxx_HAL_Driver/Inc/stm32wbxx_ll_bus.h **** 
 113:Drivers/STM32WBxx_HAL_Driver/Inc/stm32wbxx_ll_bus.h **** /** @defgroup BUS_LL_EC_AHB3_GRP1_PERIPH  AHB3 GRP1 PERIPH
 114:Drivers/STM32WBxx_HAL_Driver/Inc/stm32wbxx_ll_bus.h ****   * @{
 115:Drivers/STM32WBxx_HAL_Driver/Inc/stm32wbxx_ll_bus.h ****   */
 116:Drivers/STM32WBxx_HAL_Driver/Inc/stm32wbxx_ll_bus.h **** #define LL_AHB3_GRP1_PERIPH_ALL            (0xFFFFFFFFU)
 117:Drivers/STM32WBxx_HAL_Driver/Inc/stm32wbxx_ll_bus.h **** #if defined(QUADSPI)
ARM GAS  C:\Users\bku598\AppData\Local\Temp\ccpE5VlW.s 			page 20


 118:Drivers/STM32WBxx_HAL_Driver/Inc/stm32wbxx_ll_bus.h **** #define LL_AHB3_GRP1_PERIPH_QUADSPI        RCC_AHB3ENR_QUADSPIEN
 119:Drivers/STM32WBxx_HAL_Driver/Inc/stm32wbxx_ll_bus.h **** #endif /* QUADSPI */
 120:Drivers/STM32WBxx_HAL_Driver/Inc/stm32wbxx_ll_bus.h **** #define LL_AHB3_GRP1_PERIPH_PKA            RCC_AHB3ENR_PKAEN
 121:Drivers/STM32WBxx_HAL_Driver/Inc/stm32wbxx_ll_bus.h **** #define LL_AHB3_GRP1_PERIPH_AES2           RCC_AHB3ENR_AES2EN
 122:Drivers/STM32WBxx_HAL_Driver/Inc/stm32wbxx_ll_bus.h **** #define LL_AHB3_GRP1_PERIPH_RNG            RCC_AHB3ENR_RNGEN
 123:Drivers/STM32WBxx_HAL_Driver/Inc/stm32wbxx_ll_bus.h **** #define LL_AHB3_GRP1_PERIPH_HSEM           RCC_AHB3ENR_HSEMEN
 124:Drivers/STM32WBxx_HAL_Driver/Inc/stm32wbxx_ll_bus.h **** #define LL_AHB3_GRP1_PERIPH_IPCC           RCC_AHB3ENR_IPCCEN
 125:Drivers/STM32WBxx_HAL_Driver/Inc/stm32wbxx_ll_bus.h **** #define LL_AHB3_GRP1_PERIPH_SRAM2          RCC_AHB3SMENR_SRAM2SMEN
 126:Drivers/STM32WBxx_HAL_Driver/Inc/stm32wbxx_ll_bus.h **** #define LL_AHB3_GRP1_PERIPH_FLASH          RCC_AHB3ENR_FLASHEN
 127:Drivers/STM32WBxx_HAL_Driver/Inc/stm32wbxx_ll_bus.h **** /**
 128:Drivers/STM32WBxx_HAL_Driver/Inc/stm32wbxx_ll_bus.h ****   * @}
 129:Drivers/STM32WBxx_HAL_Driver/Inc/stm32wbxx_ll_bus.h ****   */
 130:Drivers/STM32WBxx_HAL_Driver/Inc/stm32wbxx_ll_bus.h **** 
 131:Drivers/STM32WBxx_HAL_Driver/Inc/stm32wbxx_ll_bus.h **** /** @defgroup BUS_LL_EC_APB1_GRP1_PERIPH  APB1 GRP1 PERIPH
 132:Drivers/STM32WBxx_HAL_Driver/Inc/stm32wbxx_ll_bus.h ****   * @{
 133:Drivers/STM32WBxx_HAL_Driver/Inc/stm32wbxx_ll_bus.h ****   */
 134:Drivers/STM32WBxx_HAL_Driver/Inc/stm32wbxx_ll_bus.h **** #define LL_APB1_GRP1_PERIPH_ALL            (0xFFFFFFFFU)
 135:Drivers/STM32WBxx_HAL_Driver/Inc/stm32wbxx_ll_bus.h **** #define LL_APB1_GRP1_PERIPH_TIM2           RCC_APB1ENR1_TIM2EN
 136:Drivers/STM32WBxx_HAL_Driver/Inc/stm32wbxx_ll_bus.h **** #if defined(LCD)
 137:Drivers/STM32WBxx_HAL_Driver/Inc/stm32wbxx_ll_bus.h **** #define LL_APB1_GRP1_PERIPH_LCD            RCC_APB1ENR1_LCDEN
 138:Drivers/STM32WBxx_HAL_Driver/Inc/stm32wbxx_ll_bus.h **** #endif /* LCD */
 139:Drivers/STM32WBxx_HAL_Driver/Inc/stm32wbxx_ll_bus.h **** #define LL_APB1_GRP1_PERIPH_RTCAPB         RCC_APB1ENR1_RTCAPBEN
 140:Drivers/STM32WBxx_HAL_Driver/Inc/stm32wbxx_ll_bus.h **** #define LL_APB1_GRP1_PERIPH_WWDG           RCC_APB1ENR1_WWDGEN
 141:Drivers/STM32WBxx_HAL_Driver/Inc/stm32wbxx_ll_bus.h **** #if defined(SPI2)
 142:Drivers/STM32WBxx_HAL_Driver/Inc/stm32wbxx_ll_bus.h **** #define LL_APB1_GRP1_PERIPH_SPI2           RCC_APB1ENR1_SPI2EN
 143:Drivers/STM32WBxx_HAL_Driver/Inc/stm32wbxx_ll_bus.h **** #endif /* SPI2 */
 144:Drivers/STM32WBxx_HAL_Driver/Inc/stm32wbxx_ll_bus.h **** #define LL_APB1_GRP1_PERIPH_I2C1           RCC_APB1ENR1_I2C1EN
 145:Drivers/STM32WBxx_HAL_Driver/Inc/stm32wbxx_ll_bus.h **** #if defined(I2C3)
 146:Drivers/STM32WBxx_HAL_Driver/Inc/stm32wbxx_ll_bus.h **** #define LL_APB1_GRP1_PERIPH_I2C3           RCC_APB1ENR1_I2C3EN
 147:Drivers/STM32WBxx_HAL_Driver/Inc/stm32wbxx_ll_bus.h **** #endif /* I2C3 */
 148:Drivers/STM32WBxx_HAL_Driver/Inc/stm32wbxx_ll_bus.h **** #if defined(CRS)
 149:Drivers/STM32WBxx_HAL_Driver/Inc/stm32wbxx_ll_bus.h **** #define LL_APB1_GRP1_PERIPH_CRS            RCC_APB1ENR1_CRSEN
 150:Drivers/STM32WBxx_HAL_Driver/Inc/stm32wbxx_ll_bus.h **** #endif /* CRS */
 151:Drivers/STM32WBxx_HAL_Driver/Inc/stm32wbxx_ll_bus.h **** #if defined(USB)
 152:Drivers/STM32WBxx_HAL_Driver/Inc/stm32wbxx_ll_bus.h **** #define LL_APB1_GRP1_PERIPH_USB            RCC_APB1ENR1_USBEN
 153:Drivers/STM32WBxx_HAL_Driver/Inc/stm32wbxx_ll_bus.h **** #endif /* USB */
 154:Drivers/STM32WBxx_HAL_Driver/Inc/stm32wbxx_ll_bus.h **** #define LL_APB1_GRP1_PERIPH_LPTIM1         RCC_APB1ENR1_LPTIM1EN
 155:Drivers/STM32WBxx_HAL_Driver/Inc/stm32wbxx_ll_bus.h **** /**
 156:Drivers/STM32WBxx_HAL_Driver/Inc/stm32wbxx_ll_bus.h ****   * @}
 157:Drivers/STM32WBxx_HAL_Driver/Inc/stm32wbxx_ll_bus.h ****   */
 158:Drivers/STM32WBxx_HAL_Driver/Inc/stm32wbxx_ll_bus.h **** 
 159:Drivers/STM32WBxx_HAL_Driver/Inc/stm32wbxx_ll_bus.h **** 
 160:Drivers/STM32WBxx_HAL_Driver/Inc/stm32wbxx_ll_bus.h **** /** @defgroup BUS_LL_EC_APB1_GRP2_PERIPH  APB1 GRP2 PERIPH
 161:Drivers/STM32WBxx_HAL_Driver/Inc/stm32wbxx_ll_bus.h ****   * @{
 162:Drivers/STM32WBxx_HAL_Driver/Inc/stm32wbxx_ll_bus.h ****   */
 163:Drivers/STM32WBxx_HAL_Driver/Inc/stm32wbxx_ll_bus.h **** #define LL_APB1_GRP2_PERIPH_ALL            (0xFFFFFFFFU)
 164:Drivers/STM32WBxx_HAL_Driver/Inc/stm32wbxx_ll_bus.h **** 
 165:Drivers/STM32WBxx_HAL_Driver/Inc/stm32wbxx_ll_bus.h **** #if defined(LPUART1)
 166:Drivers/STM32WBxx_HAL_Driver/Inc/stm32wbxx_ll_bus.h **** #define LL_APB1_GRP2_PERIPH_LPUART1        RCC_APB1ENR2_LPUART1EN
 167:Drivers/STM32WBxx_HAL_Driver/Inc/stm32wbxx_ll_bus.h **** #endif /* LPUART1 */
 168:Drivers/STM32WBxx_HAL_Driver/Inc/stm32wbxx_ll_bus.h **** #define LL_APB1_GRP2_PERIPH_LPTIM2         RCC_APB1ENR2_LPTIM2EN
 169:Drivers/STM32WBxx_HAL_Driver/Inc/stm32wbxx_ll_bus.h **** /**
 170:Drivers/STM32WBxx_HAL_Driver/Inc/stm32wbxx_ll_bus.h ****   * @}
 171:Drivers/STM32WBxx_HAL_Driver/Inc/stm32wbxx_ll_bus.h ****   */
 172:Drivers/STM32WBxx_HAL_Driver/Inc/stm32wbxx_ll_bus.h **** 
 173:Drivers/STM32WBxx_HAL_Driver/Inc/stm32wbxx_ll_bus.h **** /** @defgroup BUS_LL_EC_APB2_GRP1_PERIPH  APB2 GRP1 PERIPH
 174:Drivers/STM32WBxx_HAL_Driver/Inc/stm32wbxx_ll_bus.h ****   * @{
ARM GAS  C:\Users\bku598\AppData\Local\Temp\ccpE5VlW.s 			page 21


 175:Drivers/STM32WBxx_HAL_Driver/Inc/stm32wbxx_ll_bus.h ****   */
 176:Drivers/STM32WBxx_HAL_Driver/Inc/stm32wbxx_ll_bus.h **** #define LL_APB2_GRP1_PERIPH_ALL            (0xFFFFFFFFU)
 177:Drivers/STM32WBxx_HAL_Driver/Inc/stm32wbxx_ll_bus.h **** 
 178:Drivers/STM32WBxx_HAL_Driver/Inc/stm32wbxx_ll_bus.h **** #if defined(ADC_SUPPORT_2_5_MSPS)
 179:Drivers/STM32WBxx_HAL_Driver/Inc/stm32wbxx_ll_bus.h **** #define LL_APB2_GRP1_PERIPH_ADC            RCC_APB2ENR_ADCEN
 180:Drivers/STM32WBxx_HAL_Driver/Inc/stm32wbxx_ll_bus.h **** #endif /* ADC_SUPPORT_2_5_MSPS */
 181:Drivers/STM32WBxx_HAL_Driver/Inc/stm32wbxx_ll_bus.h **** #define LL_APB2_GRP1_PERIPH_TIM1           RCC_APB2ENR_TIM1EN
 182:Drivers/STM32WBxx_HAL_Driver/Inc/stm32wbxx_ll_bus.h **** #define LL_APB2_GRP1_PERIPH_SPI1           RCC_APB2ENR_SPI1EN
 183:Drivers/STM32WBxx_HAL_Driver/Inc/stm32wbxx_ll_bus.h **** #define LL_APB2_GRP1_PERIPH_USART1         RCC_APB2ENR_USART1EN
 184:Drivers/STM32WBxx_HAL_Driver/Inc/stm32wbxx_ll_bus.h **** #if defined(TIM16)
 185:Drivers/STM32WBxx_HAL_Driver/Inc/stm32wbxx_ll_bus.h **** #define LL_APB2_GRP1_PERIPH_TIM16          RCC_APB2ENR_TIM16EN
 186:Drivers/STM32WBxx_HAL_Driver/Inc/stm32wbxx_ll_bus.h **** #endif /* TIM16 */
 187:Drivers/STM32WBxx_HAL_Driver/Inc/stm32wbxx_ll_bus.h **** #if defined(TIM17)
 188:Drivers/STM32WBxx_HAL_Driver/Inc/stm32wbxx_ll_bus.h **** #define LL_APB2_GRP1_PERIPH_TIM17          RCC_APB2ENR_TIM17EN
 189:Drivers/STM32WBxx_HAL_Driver/Inc/stm32wbxx_ll_bus.h **** #endif /* TIM17 */
 190:Drivers/STM32WBxx_HAL_Driver/Inc/stm32wbxx_ll_bus.h **** #if defined(SAI1)
 191:Drivers/STM32WBxx_HAL_Driver/Inc/stm32wbxx_ll_bus.h **** #define LL_APB2_GRP1_PERIPH_SAI1           RCC_APB2ENR_SAI1EN
 192:Drivers/STM32WBxx_HAL_Driver/Inc/stm32wbxx_ll_bus.h **** #endif /* SAI1 */
 193:Drivers/STM32WBxx_HAL_Driver/Inc/stm32wbxx_ll_bus.h **** /**
 194:Drivers/STM32WBxx_HAL_Driver/Inc/stm32wbxx_ll_bus.h ****   * @}
 195:Drivers/STM32WBxx_HAL_Driver/Inc/stm32wbxx_ll_bus.h ****   */
 196:Drivers/STM32WBxx_HAL_Driver/Inc/stm32wbxx_ll_bus.h **** 
 197:Drivers/STM32WBxx_HAL_Driver/Inc/stm32wbxx_ll_bus.h **** /** @defgroup BUS_LL_EC_APB3_GRP1_PERIPH  APB3 GRP1 PERIPH
 198:Drivers/STM32WBxx_HAL_Driver/Inc/stm32wbxx_ll_bus.h ****   * @{
 199:Drivers/STM32WBxx_HAL_Driver/Inc/stm32wbxx_ll_bus.h ****   */
 200:Drivers/STM32WBxx_HAL_Driver/Inc/stm32wbxx_ll_bus.h **** #define LL_APB3_GRP1_PERIPH_ALL            (0xFFFFFFFFU)
 201:Drivers/STM32WBxx_HAL_Driver/Inc/stm32wbxx_ll_bus.h **** #define LL_APB3_GRP1_PERIPH_RF             RCC_APB3RSTR_RFRST
 202:Drivers/STM32WBxx_HAL_Driver/Inc/stm32wbxx_ll_bus.h **** /**
 203:Drivers/STM32WBxx_HAL_Driver/Inc/stm32wbxx_ll_bus.h ****   * @}
 204:Drivers/STM32WBxx_HAL_Driver/Inc/stm32wbxx_ll_bus.h ****   */
 205:Drivers/STM32WBxx_HAL_Driver/Inc/stm32wbxx_ll_bus.h **** 
 206:Drivers/STM32WBxx_HAL_Driver/Inc/stm32wbxx_ll_bus.h **** 
 207:Drivers/STM32WBxx_HAL_Driver/Inc/stm32wbxx_ll_bus.h **** /** @defgroup BUS_LL_EC_C2_AHB1_GRP1_PERIPH  C2 AHB1 GRP1 PERIPH
 208:Drivers/STM32WBxx_HAL_Driver/Inc/stm32wbxx_ll_bus.h ****   * @{
 209:Drivers/STM32WBxx_HAL_Driver/Inc/stm32wbxx_ll_bus.h ****   */
 210:Drivers/STM32WBxx_HAL_Driver/Inc/stm32wbxx_ll_bus.h **** #define LL_C2_AHB1_GRP1_PERIPH_DMA1         RCC_C2AHB1ENR_DMA1EN
 211:Drivers/STM32WBxx_HAL_Driver/Inc/stm32wbxx_ll_bus.h **** #if defined(DMA2)
 212:Drivers/STM32WBxx_HAL_Driver/Inc/stm32wbxx_ll_bus.h **** #define LL_C2_AHB1_GRP1_PERIPH_DMA2         RCC_C2AHB1ENR_DMA2EN
 213:Drivers/STM32WBxx_HAL_Driver/Inc/stm32wbxx_ll_bus.h **** #endif /* DMA2 */
 214:Drivers/STM32WBxx_HAL_Driver/Inc/stm32wbxx_ll_bus.h **** #define LL_C2_AHB1_GRP1_PERIPH_DMAMUX1      RCC_C2AHB1ENR_DMAMUX1EN
 215:Drivers/STM32WBxx_HAL_Driver/Inc/stm32wbxx_ll_bus.h **** #define LL_C2_AHB1_GRP1_PERIPH_SRAM1        RCC_C2AHB1ENR_SRAM1EN
 216:Drivers/STM32WBxx_HAL_Driver/Inc/stm32wbxx_ll_bus.h **** #define LL_C2_AHB1_GRP1_PERIPH_CRC          RCC_C2AHB1ENR_CRCEN
 217:Drivers/STM32WBxx_HAL_Driver/Inc/stm32wbxx_ll_bus.h **** #if defined(TSC)
 218:Drivers/STM32WBxx_HAL_Driver/Inc/stm32wbxx_ll_bus.h **** #define LL_C2_AHB1_GRP1_PERIPH_TSC          RCC_C2AHB1ENR_TSCEN
 219:Drivers/STM32WBxx_HAL_Driver/Inc/stm32wbxx_ll_bus.h **** #endif /* TSC */
 220:Drivers/STM32WBxx_HAL_Driver/Inc/stm32wbxx_ll_bus.h **** /**
 221:Drivers/STM32WBxx_HAL_Driver/Inc/stm32wbxx_ll_bus.h ****   * @}
 222:Drivers/STM32WBxx_HAL_Driver/Inc/stm32wbxx_ll_bus.h ****   */
 223:Drivers/STM32WBxx_HAL_Driver/Inc/stm32wbxx_ll_bus.h **** 
 224:Drivers/STM32WBxx_HAL_Driver/Inc/stm32wbxx_ll_bus.h **** 
 225:Drivers/STM32WBxx_HAL_Driver/Inc/stm32wbxx_ll_bus.h **** /** @defgroup BUS_LL_EC_C2_AHB2_GRP1_PERIPH  C2 AHB2 GRP1 PERIPH
 226:Drivers/STM32WBxx_HAL_Driver/Inc/stm32wbxx_ll_bus.h ****   * @{
 227:Drivers/STM32WBxx_HAL_Driver/Inc/stm32wbxx_ll_bus.h ****   */
 228:Drivers/STM32WBxx_HAL_Driver/Inc/stm32wbxx_ll_bus.h **** #define LL_C2_AHB2_GRP1_PERIPH_GPIOA        RCC_C2AHB2ENR_GPIOAEN
 229:Drivers/STM32WBxx_HAL_Driver/Inc/stm32wbxx_ll_bus.h **** #define LL_C2_AHB2_GRP1_PERIPH_GPIOB        RCC_C2AHB2ENR_GPIOBEN
 230:Drivers/STM32WBxx_HAL_Driver/Inc/stm32wbxx_ll_bus.h **** #define LL_C2_AHB2_GRP1_PERIPH_GPIOC        RCC_C2AHB2ENR_GPIOCEN
 231:Drivers/STM32WBxx_HAL_Driver/Inc/stm32wbxx_ll_bus.h **** #if defined(GPIOD)
ARM GAS  C:\Users\bku598\AppData\Local\Temp\ccpE5VlW.s 			page 22


 232:Drivers/STM32WBxx_HAL_Driver/Inc/stm32wbxx_ll_bus.h **** #define LL_C2_AHB2_GRP1_PERIPH_GPIOD        RCC_C2AHB2ENR_GPIODEN
 233:Drivers/STM32WBxx_HAL_Driver/Inc/stm32wbxx_ll_bus.h **** #endif /* GPIOD */
 234:Drivers/STM32WBxx_HAL_Driver/Inc/stm32wbxx_ll_bus.h **** #define LL_C2_AHB2_GRP1_PERIPH_GPIOE        RCC_C2AHB2ENR_GPIOEEN
 235:Drivers/STM32WBxx_HAL_Driver/Inc/stm32wbxx_ll_bus.h **** #define LL_C2_AHB2_GRP1_PERIPH_GPIOH        RCC_C2AHB2ENR_GPIOHEN
 236:Drivers/STM32WBxx_HAL_Driver/Inc/stm32wbxx_ll_bus.h **** #if defined(ADC_SUPPORT_5_MSPS)
 237:Drivers/STM32WBxx_HAL_Driver/Inc/stm32wbxx_ll_bus.h **** #define LL_C2_AHB2_GRP1_PERIPH_ADC          RCC_C2AHB2ENR_ADCEN
 238:Drivers/STM32WBxx_HAL_Driver/Inc/stm32wbxx_ll_bus.h **** #endif /* ADC_SUPPORT_5_MSPS */
 239:Drivers/STM32WBxx_HAL_Driver/Inc/stm32wbxx_ll_bus.h **** #if defined(AES1)
 240:Drivers/STM32WBxx_HAL_Driver/Inc/stm32wbxx_ll_bus.h **** #define LL_C2_AHB2_GRP1_PERIPH_AES1         RCC_C2AHB2ENR_AES1EN
 241:Drivers/STM32WBxx_HAL_Driver/Inc/stm32wbxx_ll_bus.h **** #endif /* AES1 */
 242:Drivers/STM32WBxx_HAL_Driver/Inc/stm32wbxx_ll_bus.h **** /**
 243:Drivers/STM32WBxx_HAL_Driver/Inc/stm32wbxx_ll_bus.h ****   * @}
 244:Drivers/STM32WBxx_HAL_Driver/Inc/stm32wbxx_ll_bus.h ****   */
 245:Drivers/STM32WBxx_HAL_Driver/Inc/stm32wbxx_ll_bus.h **** 
 246:Drivers/STM32WBxx_HAL_Driver/Inc/stm32wbxx_ll_bus.h **** 
 247:Drivers/STM32WBxx_HAL_Driver/Inc/stm32wbxx_ll_bus.h **** /** @defgroup BUS_LL_EC_C2_AHB3_GRP1_PERIPH  C2 AHB3 GRP1 PERIPH
 248:Drivers/STM32WBxx_HAL_Driver/Inc/stm32wbxx_ll_bus.h ****   * @{
 249:Drivers/STM32WBxx_HAL_Driver/Inc/stm32wbxx_ll_bus.h ****   */
 250:Drivers/STM32WBxx_HAL_Driver/Inc/stm32wbxx_ll_bus.h **** #define LL_C2_AHB3_GRP1_PERIPH_PKA          RCC_C2AHB3ENR_PKAEN
 251:Drivers/STM32WBxx_HAL_Driver/Inc/stm32wbxx_ll_bus.h **** #define LL_C2_AHB3_GRP1_PERIPH_AES2         RCC_C2AHB3ENR_AES2EN
 252:Drivers/STM32WBxx_HAL_Driver/Inc/stm32wbxx_ll_bus.h **** #define LL_C2_AHB3_GRP1_PERIPH_RNG          RCC_C2AHB3ENR_RNGEN
 253:Drivers/STM32WBxx_HAL_Driver/Inc/stm32wbxx_ll_bus.h **** #define LL_C2_AHB3_GRP1_PERIPH_HSEM         RCC_C2AHB3ENR_HSEMEN
 254:Drivers/STM32WBxx_HAL_Driver/Inc/stm32wbxx_ll_bus.h **** #define LL_C2_AHB3_GRP1_PERIPH_IPCC         RCC_C2AHB3ENR_IPCCEN
 255:Drivers/STM32WBxx_HAL_Driver/Inc/stm32wbxx_ll_bus.h **** #define LL_C2_AHB3_GRP1_PERIPH_FLASH        RCC_C2AHB3ENR_FLASHEN
 256:Drivers/STM32WBxx_HAL_Driver/Inc/stm32wbxx_ll_bus.h **** #define LL_C2_AHB3_GRP1_PERIPH_SRAM2        RCC_C2AHB3SMENR_SRAM2SMEN
 257:Drivers/STM32WBxx_HAL_Driver/Inc/stm32wbxx_ll_bus.h **** /**
 258:Drivers/STM32WBxx_HAL_Driver/Inc/stm32wbxx_ll_bus.h ****   * @}
 259:Drivers/STM32WBxx_HAL_Driver/Inc/stm32wbxx_ll_bus.h ****   */
 260:Drivers/STM32WBxx_HAL_Driver/Inc/stm32wbxx_ll_bus.h **** 
 261:Drivers/STM32WBxx_HAL_Driver/Inc/stm32wbxx_ll_bus.h **** 
 262:Drivers/STM32WBxx_HAL_Driver/Inc/stm32wbxx_ll_bus.h **** /** @defgroup BUS_LL_EC_C2_APB1_GRP1_PERIPH  C2 APB1 GRP1 PERIPH
 263:Drivers/STM32WBxx_HAL_Driver/Inc/stm32wbxx_ll_bus.h ****   * @{
 264:Drivers/STM32WBxx_HAL_Driver/Inc/stm32wbxx_ll_bus.h ****   */
 265:Drivers/STM32WBxx_HAL_Driver/Inc/stm32wbxx_ll_bus.h **** #define LL_C2_APB1_GRP1_PERIPH_TIM2         RCC_C2APB1ENR1_TIM2EN
 266:Drivers/STM32WBxx_HAL_Driver/Inc/stm32wbxx_ll_bus.h **** #if defined(LCD)
 267:Drivers/STM32WBxx_HAL_Driver/Inc/stm32wbxx_ll_bus.h **** #define LL_C2_APB1_GRP1_PERIPH_LCD          RCC_C2APB1ENR1_LCDEN
 268:Drivers/STM32WBxx_HAL_Driver/Inc/stm32wbxx_ll_bus.h **** #endif /* LCD */
 269:Drivers/STM32WBxx_HAL_Driver/Inc/stm32wbxx_ll_bus.h **** #define LL_C2_APB1_GRP1_PERIPH_RTCAPB       RCC_C2APB1ENR1_RTCAPBEN
 270:Drivers/STM32WBxx_HAL_Driver/Inc/stm32wbxx_ll_bus.h **** #if defined(SPI2)
 271:Drivers/STM32WBxx_HAL_Driver/Inc/stm32wbxx_ll_bus.h **** #define LL_C2_APB1_GRP1_PERIPH_SPI2         RCC_C2APB1ENR1_SPI2EN
 272:Drivers/STM32WBxx_HAL_Driver/Inc/stm32wbxx_ll_bus.h **** #endif /* SPI2 */
 273:Drivers/STM32WBxx_HAL_Driver/Inc/stm32wbxx_ll_bus.h **** #define LL_C2_APB1_GRP1_PERIPH_I2C1         RCC_C2APB1ENR1_I2C1EN
 274:Drivers/STM32WBxx_HAL_Driver/Inc/stm32wbxx_ll_bus.h **** #if defined(I2C3)
 275:Drivers/STM32WBxx_HAL_Driver/Inc/stm32wbxx_ll_bus.h **** #define LL_C2_APB1_GRP1_PERIPH_I2C3         RCC_C2APB1ENR1_I2C3EN
 276:Drivers/STM32WBxx_HAL_Driver/Inc/stm32wbxx_ll_bus.h **** #define LL_C2_APB1_GRP1_PERIPH_CRS          RCC_C2APB1ENR1_CRSEN
 277:Drivers/STM32WBxx_HAL_Driver/Inc/stm32wbxx_ll_bus.h **** #define LL_C2_APB1_GRP1_PERIPH_USB          RCC_C2APB1ENR1_USBEN
 278:Drivers/STM32WBxx_HAL_Driver/Inc/stm32wbxx_ll_bus.h **** #endif /* I2C3 */
 279:Drivers/STM32WBxx_HAL_Driver/Inc/stm32wbxx_ll_bus.h **** #define LL_C2_APB1_GRP1_PERIPH_LPTIM1       RCC_C2APB1ENR1_LPTIM1EN
 280:Drivers/STM32WBxx_HAL_Driver/Inc/stm32wbxx_ll_bus.h **** /**
 281:Drivers/STM32WBxx_HAL_Driver/Inc/stm32wbxx_ll_bus.h ****   * @}
 282:Drivers/STM32WBxx_HAL_Driver/Inc/stm32wbxx_ll_bus.h ****   */
 283:Drivers/STM32WBxx_HAL_Driver/Inc/stm32wbxx_ll_bus.h **** 
 284:Drivers/STM32WBxx_HAL_Driver/Inc/stm32wbxx_ll_bus.h **** 
 285:Drivers/STM32WBxx_HAL_Driver/Inc/stm32wbxx_ll_bus.h **** /** @defgroup BUS_LL_EC_C2_APB1_GRP2_PERIPH  C2 APB1 GRP2 PERIPH
 286:Drivers/STM32WBxx_HAL_Driver/Inc/stm32wbxx_ll_bus.h ****   * @{
 287:Drivers/STM32WBxx_HAL_Driver/Inc/stm32wbxx_ll_bus.h ****   */
 288:Drivers/STM32WBxx_HAL_Driver/Inc/stm32wbxx_ll_bus.h **** #if defined(LPUART1)
ARM GAS  C:\Users\bku598\AppData\Local\Temp\ccpE5VlW.s 			page 23


 289:Drivers/STM32WBxx_HAL_Driver/Inc/stm32wbxx_ll_bus.h **** #define LL_C2_APB1_GRP2_PERIPH_LPUART1      RCC_C2APB1ENR2_LPUART1EN
 290:Drivers/STM32WBxx_HAL_Driver/Inc/stm32wbxx_ll_bus.h **** #endif /* LPUART1 */
 291:Drivers/STM32WBxx_HAL_Driver/Inc/stm32wbxx_ll_bus.h **** #define LL_C2_APB1_GRP2_PERIPH_LPTIM2       RCC_C2APB1ENR2_LPTIM2EN
 292:Drivers/STM32WBxx_HAL_Driver/Inc/stm32wbxx_ll_bus.h **** /**
 293:Drivers/STM32WBxx_HAL_Driver/Inc/stm32wbxx_ll_bus.h ****   * @}
 294:Drivers/STM32WBxx_HAL_Driver/Inc/stm32wbxx_ll_bus.h ****   */
 295:Drivers/STM32WBxx_HAL_Driver/Inc/stm32wbxx_ll_bus.h **** 
 296:Drivers/STM32WBxx_HAL_Driver/Inc/stm32wbxx_ll_bus.h **** 
 297:Drivers/STM32WBxx_HAL_Driver/Inc/stm32wbxx_ll_bus.h **** /** @defgroup BUS_LL_EC_C2_APB2_GRP1_PERIPH  C2 APB2 GRP1 PERIPH
 298:Drivers/STM32WBxx_HAL_Driver/Inc/stm32wbxx_ll_bus.h ****   * @{
 299:Drivers/STM32WBxx_HAL_Driver/Inc/stm32wbxx_ll_bus.h ****   */
 300:Drivers/STM32WBxx_HAL_Driver/Inc/stm32wbxx_ll_bus.h **** #if defined(ADC_SUPPORT_2_5_MSPS)
 301:Drivers/STM32WBxx_HAL_Driver/Inc/stm32wbxx_ll_bus.h **** #define LL_C2_APB2_GRP1_PERIPH_ADC          RCC_C2APB2ENR_ADCEN
 302:Drivers/STM32WBxx_HAL_Driver/Inc/stm32wbxx_ll_bus.h **** #endif /* ADC_SUPPORT_5_MSPS */
 303:Drivers/STM32WBxx_HAL_Driver/Inc/stm32wbxx_ll_bus.h **** #define LL_C2_APB2_GRP1_PERIPH_TIM1         RCC_C2APB2ENR_TIM1EN
 304:Drivers/STM32WBxx_HAL_Driver/Inc/stm32wbxx_ll_bus.h **** #define LL_C2_APB2_GRP1_PERIPH_SPI1         RCC_C2APB2ENR_SPI1EN
 305:Drivers/STM32WBxx_HAL_Driver/Inc/stm32wbxx_ll_bus.h **** #define LL_C2_APB2_GRP1_PERIPH_USART1       RCC_C2APB2ENR_USART1EN
 306:Drivers/STM32WBxx_HAL_Driver/Inc/stm32wbxx_ll_bus.h **** #if defined(TIM16)
 307:Drivers/STM32WBxx_HAL_Driver/Inc/stm32wbxx_ll_bus.h **** #define LL_C2_APB2_GRP1_PERIPH_TIM16        RCC_C2APB2ENR_TIM16EN
 308:Drivers/STM32WBxx_HAL_Driver/Inc/stm32wbxx_ll_bus.h **** #endif /* TIM16 */
 309:Drivers/STM32WBxx_HAL_Driver/Inc/stm32wbxx_ll_bus.h **** #if defined(TIM17)
 310:Drivers/STM32WBxx_HAL_Driver/Inc/stm32wbxx_ll_bus.h **** #define LL_C2_APB2_GRP1_PERIPH_TIM17        RCC_C2APB2ENR_TIM17EN
 311:Drivers/STM32WBxx_HAL_Driver/Inc/stm32wbxx_ll_bus.h **** #endif /* TIM17 */
 312:Drivers/STM32WBxx_HAL_Driver/Inc/stm32wbxx_ll_bus.h **** #if defined(SAI1)
 313:Drivers/STM32WBxx_HAL_Driver/Inc/stm32wbxx_ll_bus.h **** #define LL_C2_APB2_GRP1_PERIPH_SAI1         RCC_C2APB2ENR_SAI1EN
 314:Drivers/STM32WBxx_HAL_Driver/Inc/stm32wbxx_ll_bus.h **** #endif /* SAI1 */
 315:Drivers/STM32WBxx_HAL_Driver/Inc/stm32wbxx_ll_bus.h **** /**
 316:Drivers/STM32WBxx_HAL_Driver/Inc/stm32wbxx_ll_bus.h ****   * @}
 317:Drivers/STM32WBxx_HAL_Driver/Inc/stm32wbxx_ll_bus.h ****   */
 318:Drivers/STM32WBxx_HAL_Driver/Inc/stm32wbxx_ll_bus.h **** 
 319:Drivers/STM32WBxx_HAL_Driver/Inc/stm32wbxx_ll_bus.h **** 
 320:Drivers/STM32WBxx_HAL_Driver/Inc/stm32wbxx_ll_bus.h **** /** @defgroup BUS_LL_EC_C2_APB3_GRP1_PERIPH  C2 APB3 GRP1 PERIPH
 321:Drivers/STM32WBxx_HAL_Driver/Inc/stm32wbxx_ll_bus.h ****   * @{
 322:Drivers/STM32WBxx_HAL_Driver/Inc/stm32wbxx_ll_bus.h ****   */
 323:Drivers/STM32WBxx_HAL_Driver/Inc/stm32wbxx_ll_bus.h **** #define LL_C2_APB3_GRP1_PERIPH_BLE          RCC_C2APB3ENR_BLEEN
 324:Drivers/STM32WBxx_HAL_Driver/Inc/stm32wbxx_ll_bus.h **** #if defined(RCC_802_SUPPORT)
 325:Drivers/STM32WBxx_HAL_Driver/Inc/stm32wbxx_ll_bus.h **** #define LL_C2_APB3_GRP1_PERIPH_802          RCC_C2APB3ENR_802EN
 326:Drivers/STM32WBxx_HAL_Driver/Inc/stm32wbxx_ll_bus.h **** #endif /* RCC_802_SUPPORT */
 327:Drivers/STM32WBxx_HAL_Driver/Inc/stm32wbxx_ll_bus.h **** /**
 328:Drivers/STM32WBxx_HAL_Driver/Inc/stm32wbxx_ll_bus.h ****   * @}
 329:Drivers/STM32WBxx_HAL_Driver/Inc/stm32wbxx_ll_bus.h ****   */
 330:Drivers/STM32WBxx_HAL_Driver/Inc/stm32wbxx_ll_bus.h **** 
 331:Drivers/STM32WBxx_HAL_Driver/Inc/stm32wbxx_ll_bus.h **** 
 332:Drivers/STM32WBxx_HAL_Driver/Inc/stm32wbxx_ll_bus.h **** /**
 333:Drivers/STM32WBxx_HAL_Driver/Inc/stm32wbxx_ll_bus.h ****   * @}
 334:Drivers/STM32WBxx_HAL_Driver/Inc/stm32wbxx_ll_bus.h ****   */
 335:Drivers/STM32WBxx_HAL_Driver/Inc/stm32wbxx_ll_bus.h **** 
 336:Drivers/STM32WBxx_HAL_Driver/Inc/stm32wbxx_ll_bus.h **** /* Exported macro ------------------------------------------------------------*/
 337:Drivers/STM32WBxx_HAL_Driver/Inc/stm32wbxx_ll_bus.h **** 
 338:Drivers/STM32WBxx_HAL_Driver/Inc/stm32wbxx_ll_bus.h **** /* Exported functions --------------------------------------------------------*/
 339:Drivers/STM32WBxx_HAL_Driver/Inc/stm32wbxx_ll_bus.h **** 
 340:Drivers/STM32WBxx_HAL_Driver/Inc/stm32wbxx_ll_bus.h **** /** @defgroup BUS_LL_Exported_Functions BUS Exported Functions
 341:Drivers/STM32WBxx_HAL_Driver/Inc/stm32wbxx_ll_bus.h ****   * @{
 342:Drivers/STM32WBxx_HAL_Driver/Inc/stm32wbxx_ll_bus.h ****   */
 343:Drivers/STM32WBxx_HAL_Driver/Inc/stm32wbxx_ll_bus.h **** 
 344:Drivers/STM32WBxx_HAL_Driver/Inc/stm32wbxx_ll_bus.h **** /** @defgroup BUS_LL_EF_AHB1 AHB1
 345:Drivers/STM32WBxx_HAL_Driver/Inc/stm32wbxx_ll_bus.h ****   * @{
ARM GAS  C:\Users\bku598\AppData\Local\Temp\ccpE5VlW.s 			page 24


 346:Drivers/STM32WBxx_HAL_Driver/Inc/stm32wbxx_ll_bus.h ****   */
 347:Drivers/STM32WBxx_HAL_Driver/Inc/stm32wbxx_ll_bus.h **** 
 348:Drivers/STM32WBxx_HAL_Driver/Inc/stm32wbxx_ll_bus.h **** /**
 349:Drivers/STM32WBxx_HAL_Driver/Inc/stm32wbxx_ll_bus.h ****   * @brief  Enable AHB1 peripherals clock.
 350:Drivers/STM32WBxx_HAL_Driver/Inc/stm32wbxx_ll_bus.h ****   * @rmtoll AHB1ENR      DMA1EN        LL_AHB1_GRP1_EnableClock\n
 351:Drivers/STM32WBxx_HAL_Driver/Inc/stm32wbxx_ll_bus.h ****   *         AHB1ENR      DMA2EN        LL_AHB1_GRP1_EnableClock\n
 352:Drivers/STM32WBxx_HAL_Driver/Inc/stm32wbxx_ll_bus.h ****   *         AHB1ENR      DMAMUX1EN      LL_AHB1_GRP1_EnableClock\n
 353:Drivers/STM32WBxx_HAL_Driver/Inc/stm32wbxx_ll_bus.h ****   *         AHB1ENR      CRCEN         LL_AHB1_GRP1_EnableClock\n
 354:Drivers/STM32WBxx_HAL_Driver/Inc/stm32wbxx_ll_bus.h ****   *         AHB1ENR      TSCEN         LL_AHB1_GRP1_EnableClock
 355:Drivers/STM32WBxx_HAL_Driver/Inc/stm32wbxx_ll_bus.h ****   * @param  Periphs This parameter can be a combination of the following values:
 356:Drivers/STM32WBxx_HAL_Driver/Inc/stm32wbxx_ll_bus.h ****   *         @arg @ref LL_AHB1_GRP1_PERIPH_DMA1
 357:Drivers/STM32WBxx_HAL_Driver/Inc/stm32wbxx_ll_bus.h ****   *         @arg @ref LL_AHB1_GRP1_PERIPH_DMA2 (*)
 358:Drivers/STM32WBxx_HAL_Driver/Inc/stm32wbxx_ll_bus.h ****   *         @arg @ref LL_AHB1_GRP1_PERIPH_DMAMUX1
 359:Drivers/STM32WBxx_HAL_Driver/Inc/stm32wbxx_ll_bus.h ****   *         @arg @ref LL_AHB1_GRP1_PERIPH_CRC
 360:Drivers/STM32WBxx_HAL_Driver/Inc/stm32wbxx_ll_bus.h ****   *         @arg @ref LL_AHB1_GRP1_PERIPH_TSC
 361:Drivers/STM32WBxx_HAL_Driver/Inc/stm32wbxx_ll_bus.h ****   * @note  (*) Not supported by all the devices
 362:Drivers/STM32WBxx_HAL_Driver/Inc/stm32wbxx_ll_bus.h ****   * @retval None
 363:Drivers/STM32WBxx_HAL_Driver/Inc/stm32wbxx_ll_bus.h ****   */
 364:Drivers/STM32WBxx_HAL_Driver/Inc/stm32wbxx_ll_bus.h **** __STATIC_INLINE void LL_AHB1_GRP1_EnableClock(uint32_t Periphs)
 365:Drivers/STM32WBxx_HAL_Driver/Inc/stm32wbxx_ll_bus.h **** {
 366:Drivers/STM32WBxx_HAL_Driver/Inc/stm32wbxx_ll_bus.h ****   __IO uint32_t tmpreg;
 367:Drivers/STM32WBxx_HAL_Driver/Inc/stm32wbxx_ll_bus.h ****   SET_BIT(RCC->AHB1ENR, Periphs);
 368:Drivers/STM32WBxx_HAL_Driver/Inc/stm32wbxx_ll_bus.h ****   /* Delay after an RCC peripheral clock enabling */
 369:Drivers/STM32WBxx_HAL_Driver/Inc/stm32wbxx_ll_bus.h ****   tmpreg = READ_BIT(RCC->AHB1ENR, Periphs);
 370:Drivers/STM32WBxx_HAL_Driver/Inc/stm32wbxx_ll_bus.h ****   (void)tmpreg;
 371:Drivers/STM32WBxx_HAL_Driver/Inc/stm32wbxx_ll_bus.h **** }
 372:Drivers/STM32WBxx_HAL_Driver/Inc/stm32wbxx_ll_bus.h **** 
 373:Drivers/STM32WBxx_HAL_Driver/Inc/stm32wbxx_ll_bus.h **** /**
 374:Drivers/STM32WBxx_HAL_Driver/Inc/stm32wbxx_ll_bus.h ****   * @brief  Check if AHB1 peripheral clock is enabled or not
 375:Drivers/STM32WBxx_HAL_Driver/Inc/stm32wbxx_ll_bus.h ****   * @rmtoll AHB1ENR      DMA1EN        LL_AHB1_GRP1_IsEnabledClock\n
 376:Drivers/STM32WBxx_HAL_Driver/Inc/stm32wbxx_ll_bus.h ****   *         AHB1ENR      DMA2EN        LL_AHB1_GRP1_IsEnabledClock\n
 377:Drivers/STM32WBxx_HAL_Driver/Inc/stm32wbxx_ll_bus.h ****   *         AHB1ENR      DMAMUX1EN      LL_AHB1_GRP1_IsEnabledClock\n
 378:Drivers/STM32WBxx_HAL_Driver/Inc/stm32wbxx_ll_bus.h ****   *         AHB1ENR      CRCEN         LL_AHB1_GRP1_IsEnabledClock\n
 379:Drivers/STM32WBxx_HAL_Driver/Inc/stm32wbxx_ll_bus.h ****   *         AHB1ENR      TSCEN         LL_AHB1_GRP1_IsEnabledClock
 380:Drivers/STM32WBxx_HAL_Driver/Inc/stm32wbxx_ll_bus.h ****   * @param  Periphs This parameter can be a combination of the following values:
 381:Drivers/STM32WBxx_HAL_Driver/Inc/stm32wbxx_ll_bus.h ****   *         @arg @ref LL_AHB1_GRP1_PERIPH_DMA1
 382:Drivers/STM32WBxx_HAL_Driver/Inc/stm32wbxx_ll_bus.h ****   *         @arg @ref LL_AHB1_GRP1_PERIPH_DMA2 (*)
 383:Drivers/STM32WBxx_HAL_Driver/Inc/stm32wbxx_ll_bus.h ****   *         @arg @ref LL_AHB1_GRP1_PERIPH_DMAMUX1
 384:Drivers/STM32WBxx_HAL_Driver/Inc/stm32wbxx_ll_bus.h ****   *         @arg @ref LL_AHB1_GRP1_PERIPH_CRC
 385:Drivers/STM32WBxx_HAL_Driver/Inc/stm32wbxx_ll_bus.h ****   *         @arg @ref LL_AHB1_GRP1_PERIPH_TSC
 386:Drivers/STM32WBxx_HAL_Driver/Inc/stm32wbxx_ll_bus.h ****   * @note  (*) Not supported by all the devices
 387:Drivers/STM32WBxx_HAL_Driver/Inc/stm32wbxx_ll_bus.h ****   * @retval uint32_t
 388:Drivers/STM32WBxx_HAL_Driver/Inc/stm32wbxx_ll_bus.h ****   */
 389:Drivers/STM32WBxx_HAL_Driver/Inc/stm32wbxx_ll_bus.h **** __STATIC_INLINE uint32_t LL_AHB1_GRP1_IsEnabledClock(uint32_t Periphs)
 390:Drivers/STM32WBxx_HAL_Driver/Inc/stm32wbxx_ll_bus.h **** {
 391:Drivers/STM32WBxx_HAL_Driver/Inc/stm32wbxx_ll_bus.h ****   return ((READ_BIT(RCC->AHB1ENR, Periphs) == (Periphs)) ? 1UL : 0UL);
 392:Drivers/STM32WBxx_HAL_Driver/Inc/stm32wbxx_ll_bus.h **** }
 393:Drivers/STM32WBxx_HAL_Driver/Inc/stm32wbxx_ll_bus.h **** 
 394:Drivers/STM32WBxx_HAL_Driver/Inc/stm32wbxx_ll_bus.h **** /**
 395:Drivers/STM32WBxx_HAL_Driver/Inc/stm32wbxx_ll_bus.h ****   * @brief  Disable AHB1 peripherals clock.
 396:Drivers/STM32WBxx_HAL_Driver/Inc/stm32wbxx_ll_bus.h ****   * @rmtoll AHB1ENR      DMA1EN        LL_AHB1_GRP1_DisableClock\n
 397:Drivers/STM32WBxx_HAL_Driver/Inc/stm32wbxx_ll_bus.h ****   *         AHB1ENR      DMA2EN        LL_AHB1_GRP1_DisableClock\n
 398:Drivers/STM32WBxx_HAL_Driver/Inc/stm32wbxx_ll_bus.h ****   *         AHB1ENR      DMAMUX1EN      LL_AHB1_GRP1_DisableClock\n
 399:Drivers/STM32WBxx_HAL_Driver/Inc/stm32wbxx_ll_bus.h ****   *         AHB1ENR      CRCEN         LL_AHB1_GRP1_DisableClock\n
 400:Drivers/STM32WBxx_HAL_Driver/Inc/stm32wbxx_ll_bus.h ****   *         AHB1ENR      TSCEN         LL_AHB1_GRP1_DisableClock
 401:Drivers/STM32WBxx_HAL_Driver/Inc/stm32wbxx_ll_bus.h ****   * @param  Periphs This parameter can be a combination of the following values:
 402:Drivers/STM32WBxx_HAL_Driver/Inc/stm32wbxx_ll_bus.h ****   *         @arg @ref LL_AHB1_GRP1_PERIPH_DMA1
ARM GAS  C:\Users\bku598\AppData\Local\Temp\ccpE5VlW.s 			page 25


 403:Drivers/STM32WBxx_HAL_Driver/Inc/stm32wbxx_ll_bus.h ****   *         @arg @ref LL_AHB1_GRP1_PERIPH_DMA2 (*)
 404:Drivers/STM32WBxx_HAL_Driver/Inc/stm32wbxx_ll_bus.h ****   *         @arg @ref LL_AHB1_GRP1_PERIPH_DMAMUX1
 405:Drivers/STM32WBxx_HAL_Driver/Inc/stm32wbxx_ll_bus.h ****   *         @arg @ref LL_AHB1_GRP1_PERIPH_CRC
 406:Drivers/STM32WBxx_HAL_Driver/Inc/stm32wbxx_ll_bus.h ****   *         @arg @ref LL_AHB1_GRP1_PERIPH_TSC
 407:Drivers/STM32WBxx_HAL_Driver/Inc/stm32wbxx_ll_bus.h ****   * @note  (*) Not supported by all the devices
 408:Drivers/STM32WBxx_HAL_Driver/Inc/stm32wbxx_ll_bus.h ****   * @retval None
 409:Drivers/STM32WBxx_HAL_Driver/Inc/stm32wbxx_ll_bus.h ****   */
 410:Drivers/STM32WBxx_HAL_Driver/Inc/stm32wbxx_ll_bus.h **** __STATIC_INLINE void LL_AHB1_GRP1_DisableClock(uint32_t Periphs)
 411:Drivers/STM32WBxx_HAL_Driver/Inc/stm32wbxx_ll_bus.h **** {
 412:Drivers/STM32WBxx_HAL_Driver/Inc/stm32wbxx_ll_bus.h ****   CLEAR_BIT(RCC->AHB1ENR, Periphs);
 413:Drivers/STM32WBxx_HAL_Driver/Inc/stm32wbxx_ll_bus.h **** }
 414:Drivers/STM32WBxx_HAL_Driver/Inc/stm32wbxx_ll_bus.h **** 
 415:Drivers/STM32WBxx_HAL_Driver/Inc/stm32wbxx_ll_bus.h **** /**
 416:Drivers/STM32WBxx_HAL_Driver/Inc/stm32wbxx_ll_bus.h ****   * @brief  Force AHB1 peripherals reset.
 417:Drivers/STM32WBxx_HAL_Driver/Inc/stm32wbxx_ll_bus.h ****   * @rmtoll AHB1RSTR     DMA1RST       LL_AHB1_GRP1_ForceReset\n
 418:Drivers/STM32WBxx_HAL_Driver/Inc/stm32wbxx_ll_bus.h ****   *         AHB1RSTR     DMA2RST       LL_AHB1_GRP1_ForceReset\n
 419:Drivers/STM32WBxx_HAL_Driver/Inc/stm32wbxx_ll_bus.h ****   *         AHB1RSTR     DMAMUX1RST     LL_AHB1_GRP1_ForceReset\n
 420:Drivers/STM32WBxx_HAL_Driver/Inc/stm32wbxx_ll_bus.h ****   *         AHB1RSTR     CRCRST        LL_AHB1_GRP1_ForceReset\n
 421:Drivers/STM32WBxx_HAL_Driver/Inc/stm32wbxx_ll_bus.h ****   *         AHB1RSTR     TSCRST        LL_AHB1_GRP1_ForceReset
 422:Drivers/STM32WBxx_HAL_Driver/Inc/stm32wbxx_ll_bus.h ****   * @param  Periphs This parameter can be a combination of the following values:
 423:Drivers/STM32WBxx_HAL_Driver/Inc/stm32wbxx_ll_bus.h ****   *         @arg @ref LL_AHB1_GRP1_PERIPH_ALL
 424:Drivers/STM32WBxx_HAL_Driver/Inc/stm32wbxx_ll_bus.h ****   *         @arg @ref LL_AHB1_GRP1_PERIPH_DMA1
 425:Drivers/STM32WBxx_HAL_Driver/Inc/stm32wbxx_ll_bus.h ****   *         @arg @ref LL_AHB1_GRP1_PERIPH_DMA2 (*)
 426:Drivers/STM32WBxx_HAL_Driver/Inc/stm32wbxx_ll_bus.h ****   *         @arg @ref LL_AHB1_GRP1_PERIPH_DMAMUX1
 427:Drivers/STM32WBxx_HAL_Driver/Inc/stm32wbxx_ll_bus.h ****   *         @arg @ref LL_AHB1_GRP1_PERIPH_CRC
 428:Drivers/STM32WBxx_HAL_Driver/Inc/stm32wbxx_ll_bus.h ****   *         @arg @ref LL_AHB1_GRP1_PERIPH_TSC
 429:Drivers/STM32WBxx_HAL_Driver/Inc/stm32wbxx_ll_bus.h ****   * @note  (*) Not supported by all the devices
 430:Drivers/STM32WBxx_HAL_Driver/Inc/stm32wbxx_ll_bus.h ****   * @retval None
 431:Drivers/STM32WBxx_HAL_Driver/Inc/stm32wbxx_ll_bus.h ****   */
 432:Drivers/STM32WBxx_HAL_Driver/Inc/stm32wbxx_ll_bus.h **** __STATIC_INLINE void LL_AHB1_GRP1_ForceReset(uint32_t Periphs)
 433:Drivers/STM32WBxx_HAL_Driver/Inc/stm32wbxx_ll_bus.h **** {
 434:Drivers/STM32WBxx_HAL_Driver/Inc/stm32wbxx_ll_bus.h ****   SET_BIT(RCC->AHB1RSTR, Periphs);
 435:Drivers/STM32WBxx_HAL_Driver/Inc/stm32wbxx_ll_bus.h **** }
 436:Drivers/STM32WBxx_HAL_Driver/Inc/stm32wbxx_ll_bus.h **** 
 437:Drivers/STM32WBxx_HAL_Driver/Inc/stm32wbxx_ll_bus.h **** /**
 438:Drivers/STM32WBxx_HAL_Driver/Inc/stm32wbxx_ll_bus.h ****   * @brief  Release AHB1 peripherals reset.
 439:Drivers/STM32WBxx_HAL_Driver/Inc/stm32wbxx_ll_bus.h ****   * @rmtoll AHB1RSTR     DMA1RST       LL_AHB1_GRP1_ReleaseReset\n
 440:Drivers/STM32WBxx_HAL_Driver/Inc/stm32wbxx_ll_bus.h ****   *         AHB1RSTR     DMA2RST       LL_AHB1_GRP1_ReleaseReset\n
 441:Drivers/STM32WBxx_HAL_Driver/Inc/stm32wbxx_ll_bus.h ****   *         AHB1RSTR     DMAMUX1RST     LL_AHB1_GRP1_ReleaseReset\n
 442:Drivers/STM32WBxx_HAL_Driver/Inc/stm32wbxx_ll_bus.h ****   *         AHB1RSTR     CRCRST        LL_AHB1_GRP1_ReleaseReset\n
 443:Drivers/STM32WBxx_HAL_Driver/Inc/stm32wbxx_ll_bus.h ****   *         AHB1RSTR     TSCRST        LL_AHB1_GRP1_ReleaseReset
 444:Drivers/STM32WBxx_HAL_Driver/Inc/stm32wbxx_ll_bus.h ****   * @param  Periphs This parameter can be a combination of the following values:
 445:Drivers/STM32WBxx_HAL_Driver/Inc/stm32wbxx_ll_bus.h ****   *         @arg @ref LL_AHB1_GRP1_PERIPH_ALL
 446:Drivers/STM32WBxx_HAL_Driver/Inc/stm32wbxx_ll_bus.h ****   *         @arg @ref LL_AHB1_GRP1_PERIPH_DMA1
 447:Drivers/STM32WBxx_HAL_Driver/Inc/stm32wbxx_ll_bus.h ****   *         @arg @ref LL_AHB1_GRP1_PERIPH_DMA2 (*)
 448:Drivers/STM32WBxx_HAL_Driver/Inc/stm32wbxx_ll_bus.h ****   *         @arg @ref LL_AHB1_GRP1_PERIPH_DMAMUX1
 449:Drivers/STM32WBxx_HAL_Driver/Inc/stm32wbxx_ll_bus.h ****   *         @arg @ref LL_AHB1_GRP1_PERIPH_CRC
 450:Drivers/STM32WBxx_HAL_Driver/Inc/stm32wbxx_ll_bus.h ****   *         @arg @ref LL_AHB1_GRP1_PERIPH_TSC
 451:Drivers/STM32WBxx_HAL_Driver/Inc/stm32wbxx_ll_bus.h ****   * @note  (*) Not supported by all the devices
 452:Drivers/STM32WBxx_HAL_Driver/Inc/stm32wbxx_ll_bus.h ****   * @retval None
 453:Drivers/STM32WBxx_HAL_Driver/Inc/stm32wbxx_ll_bus.h ****   */
 454:Drivers/STM32WBxx_HAL_Driver/Inc/stm32wbxx_ll_bus.h **** __STATIC_INLINE void LL_AHB1_GRP1_ReleaseReset(uint32_t Periphs)
 455:Drivers/STM32WBxx_HAL_Driver/Inc/stm32wbxx_ll_bus.h **** {
 456:Drivers/STM32WBxx_HAL_Driver/Inc/stm32wbxx_ll_bus.h ****   CLEAR_BIT(RCC->AHB1RSTR, Periphs);
 457:Drivers/STM32WBxx_HAL_Driver/Inc/stm32wbxx_ll_bus.h **** }
 458:Drivers/STM32WBxx_HAL_Driver/Inc/stm32wbxx_ll_bus.h **** 
 459:Drivers/STM32WBxx_HAL_Driver/Inc/stm32wbxx_ll_bus.h **** /**
ARM GAS  C:\Users\bku598\AppData\Local\Temp\ccpE5VlW.s 			page 26


 460:Drivers/STM32WBxx_HAL_Driver/Inc/stm32wbxx_ll_bus.h ****   * @brief  Enable AHB1 peripherals clock during Low Power (Sleep) mode.
 461:Drivers/STM32WBxx_HAL_Driver/Inc/stm32wbxx_ll_bus.h ****   * @rmtoll AHB1SMENR    DMA1SMEN      LL_AHB1_GRP1_EnableClockSleep\n
 462:Drivers/STM32WBxx_HAL_Driver/Inc/stm32wbxx_ll_bus.h ****   *         AHB1SMENR    DMA2SMEN      LL_AHB1_GRP1_EnableClockSleep\n
 463:Drivers/STM32WBxx_HAL_Driver/Inc/stm32wbxx_ll_bus.h ****   *         AHB1SMENR    DMAMUX1SMEN    LL_AHB1_GRP1_EnableClockSleep\n
 464:Drivers/STM32WBxx_HAL_Driver/Inc/stm32wbxx_ll_bus.h ****   *         AHB1SMENR    SRAM1SMEN     LL_AHB1_GRP1_EnableClockSleep\n
 465:Drivers/STM32WBxx_HAL_Driver/Inc/stm32wbxx_ll_bus.h ****   *         AHB1SMENR    CRCSMEN       LL_AHB1_GRP1_EnableClockSleep\n
 466:Drivers/STM32WBxx_HAL_Driver/Inc/stm32wbxx_ll_bus.h ****   *         AHB1SMENR    TSCSMEN       LL_AHB1_GRP1_EnableClockSleep
 467:Drivers/STM32WBxx_HAL_Driver/Inc/stm32wbxx_ll_bus.h ****   * @param  Periphs This parameter can be a combination of the following values:
 468:Drivers/STM32WBxx_HAL_Driver/Inc/stm32wbxx_ll_bus.h ****   *         @arg @ref LL_AHB1_GRP1_PERIPH_DMA1
 469:Drivers/STM32WBxx_HAL_Driver/Inc/stm32wbxx_ll_bus.h ****   *         @arg @ref LL_AHB1_GRP1_PERIPH_DMA2 (*)
 470:Drivers/STM32WBxx_HAL_Driver/Inc/stm32wbxx_ll_bus.h ****   *         @arg @ref LL_AHB1_GRP1_PERIPH_DMAMUX1
 471:Drivers/STM32WBxx_HAL_Driver/Inc/stm32wbxx_ll_bus.h ****   *         @arg @ref LL_AHB1_GRP1_PERIPH_SRAM1
 472:Drivers/STM32WBxx_HAL_Driver/Inc/stm32wbxx_ll_bus.h ****   *         @arg @ref LL_AHB1_GRP1_PERIPH_CRC
 473:Drivers/STM32WBxx_HAL_Driver/Inc/stm32wbxx_ll_bus.h ****   *         @arg @ref LL_AHB1_GRP1_PERIPH_TSC
 474:Drivers/STM32WBxx_HAL_Driver/Inc/stm32wbxx_ll_bus.h ****   * @note  (*) Not supported by all the devices
 475:Drivers/STM32WBxx_HAL_Driver/Inc/stm32wbxx_ll_bus.h ****   * @retval None
 476:Drivers/STM32WBxx_HAL_Driver/Inc/stm32wbxx_ll_bus.h ****   */
 477:Drivers/STM32WBxx_HAL_Driver/Inc/stm32wbxx_ll_bus.h **** __STATIC_INLINE void LL_AHB1_GRP1_EnableClockSleep(uint32_t Periphs)
 478:Drivers/STM32WBxx_HAL_Driver/Inc/stm32wbxx_ll_bus.h **** {
 479:Drivers/STM32WBxx_HAL_Driver/Inc/stm32wbxx_ll_bus.h ****   __IO uint32_t tmpreg;
 480:Drivers/STM32WBxx_HAL_Driver/Inc/stm32wbxx_ll_bus.h ****   SET_BIT(RCC->AHB1SMENR, Periphs);
 481:Drivers/STM32WBxx_HAL_Driver/Inc/stm32wbxx_ll_bus.h ****   /* Delay after an RCC peripheral clock enabling */
 482:Drivers/STM32WBxx_HAL_Driver/Inc/stm32wbxx_ll_bus.h ****   tmpreg = READ_BIT(RCC->AHB1SMENR, Periphs);
 483:Drivers/STM32WBxx_HAL_Driver/Inc/stm32wbxx_ll_bus.h ****   (void)tmpreg;
 484:Drivers/STM32WBxx_HAL_Driver/Inc/stm32wbxx_ll_bus.h **** }
 485:Drivers/STM32WBxx_HAL_Driver/Inc/stm32wbxx_ll_bus.h **** 
 486:Drivers/STM32WBxx_HAL_Driver/Inc/stm32wbxx_ll_bus.h **** /**
 487:Drivers/STM32WBxx_HAL_Driver/Inc/stm32wbxx_ll_bus.h ****   * @brief  Disable AHB1 peripherals clock during Low Power (Sleep) mode.
 488:Drivers/STM32WBxx_HAL_Driver/Inc/stm32wbxx_ll_bus.h ****   * @rmtoll AHB1SMENR    DMA1SMEN      LL_AHB1_GRP1_DisableClockSleep\n
 489:Drivers/STM32WBxx_HAL_Driver/Inc/stm32wbxx_ll_bus.h ****   *         AHB1SMENR    DMA2SMEN      LL_AHB1_GRP1_DisableClockSleep\n
 490:Drivers/STM32WBxx_HAL_Driver/Inc/stm32wbxx_ll_bus.h ****   *         AHB1SMENR    DMAMUX1SMEN    LL_AHB1_GRP1_DisableClockSleep\n
 491:Drivers/STM32WBxx_HAL_Driver/Inc/stm32wbxx_ll_bus.h ****   *         AHB1SMENR    SRAM1SMEN     LL_AHB1_GRP1_DisableClockSleep\n
 492:Drivers/STM32WBxx_HAL_Driver/Inc/stm32wbxx_ll_bus.h ****   *         AHB1SMENR    CRCSMEN       LL_AHB1_GRP1_DisableClockSleep\n
 493:Drivers/STM32WBxx_HAL_Driver/Inc/stm32wbxx_ll_bus.h ****   *         AHB1SMENR    TSCSMEN       LL_AHB1_GRP1_DisableClockSleep
 494:Drivers/STM32WBxx_HAL_Driver/Inc/stm32wbxx_ll_bus.h ****   * @param  Periphs This parameter can be a combination of the following values:
 495:Drivers/STM32WBxx_HAL_Driver/Inc/stm32wbxx_ll_bus.h ****   *         @arg @ref LL_AHB1_GRP1_PERIPH_DMA1
 496:Drivers/STM32WBxx_HAL_Driver/Inc/stm32wbxx_ll_bus.h ****   *         @arg @ref LL_AHB1_GRP1_PERIPH_DMA2 (*)
 497:Drivers/STM32WBxx_HAL_Driver/Inc/stm32wbxx_ll_bus.h ****   *         @arg @ref LL_AHB1_GRP1_PERIPH_DMAMUX1
 498:Drivers/STM32WBxx_HAL_Driver/Inc/stm32wbxx_ll_bus.h ****   *         @arg @ref LL_AHB1_GRP1_PERIPH_SRAM1
 499:Drivers/STM32WBxx_HAL_Driver/Inc/stm32wbxx_ll_bus.h ****   *         @arg @ref LL_AHB1_GRP1_PERIPH_CRC
 500:Drivers/STM32WBxx_HAL_Driver/Inc/stm32wbxx_ll_bus.h ****   *         @arg @ref LL_AHB1_GRP1_PERIPH_TSC
 501:Drivers/STM32WBxx_HAL_Driver/Inc/stm32wbxx_ll_bus.h ****   * @note  (*) Not supported by all the devices
 502:Drivers/STM32WBxx_HAL_Driver/Inc/stm32wbxx_ll_bus.h ****   * @retval None
 503:Drivers/STM32WBxx_HAL_Driver/Inc/stm32wbxx_ll_bus.h ****   */
 504:Drivers/STM32WBxx_HAL_Driver/Inc/stm32wbxx_ll_bus.h **** __STATIC_INLINE void LL_AHB1_GRP1_DisableClockSleep(uint32_t Periphs)
 505:Drivers/STM32WBxx_HAL_Driver/Inc/stm32wbxx_ll_bus.h **** {
 506:Drivers/STM32WBxx_HAL_Driver/Inc/stm32wbxx_ll_bus.h ****   CLEAR_BIT(RCC->AHB1SMENR, Periphs);
 507:Drivers/STM32WBxx_HAL_Driver/Inc/stm32wbxx_ll_bus.h **** }
 508:Drivers/STM32WBxx_HAL_Driver/Inc/stm32wbxx_ll_bus.h **** 
 509:Drivers/STM32WBxx_HAL_Driver/Inc/stm32wbxx_ll_bus.h **** /**
 510:Drivers/STM32WBxx_HAL_Driver/Inc/stm32wbxx_ll_bus.h ****   * @}
 511:Drivers/STM32WBxx_HAL_Driver/Inc/stm32wbxx_ll_bus.h ****   */
 512:Drivers/STM32WBxx_HAL_Driver/Inc/stm32wbxx_ll_bus.h **** 
 513:Drivers/STM32WBxx_HAL_Driver/Inc/stm32wbxx_ll_bus.h **** /** @defgroup BUS_LL_EF_AHB2 AHB2
 514:Drivers/STM32WBxx_HAL_Driver/Inc/stm32wbxx_ll_bus.h ****   * @{
 515:Drivers/STM32WBxx_HAL_Driver/Inc/stm32wbxx_ll_bus.h ****   */
 516:Drivers/STM32WBxx_HAL_Driver/Inc/stm32wbxx_ll_bus.h **** 
ARM GAS  C:\Users\bku598\AppData\Local\Temp\ccpE5VlW.s 			page 27


 517:Drivers/STM32WBxx_HAL_Driver/Inc/stm32wbxx_ll_bus.h **** /**
 518:Drivers/STM32WBxx_HAL_Driver/Inc/stm32wbxx_ll_bus.h ****   * @brief  Enable AHB2 peripherals clock.
 519:Drivers/STM32WBxx_HAL_Driver/Inc/stm32wbxx_ll_bus.h ****   * @rmtoll AHB2ENR      GPIOAEN       LL_AHB2_GRP1_EnableClock\n
 520:Drivers/STM32WBxx_HAL_Driver/Inc/stm32wbxx_ll_bus.h ****   *         AHB2ENR      GPIOBEN       LL_AHB2_GRP1_EnableClock\n
 521:Drivers/STM32WBxx_HAL_Driver/Inc/stm32wbxx_ll_bus.h ****   *         AHB2ENR      GPIOCEN       LL_AHB2_GRP1_EnableClock\n
 522:Drivers/STM32WBxx_HAL_Driver/Inc/stm32wbxx_ll_bus.h ****   *         AHB2ENR      GPIODEN       LL_AHB2_GRP1_EnableClock\n
 523:Drivers/STM32WBxx_HAL_Driver/Inc/stm32wbxx_ll_bus.h ****   *         AHB2ENR      GPIOEEN       LL_AHB2_GRP1_EnableClock\n
 524:Drivers/STM32WBxx_HAL_Driver/Inc/stm32wbxx_ll_bus.h ****   *         AHB2ENR      GPIOHEN       LL_AHB2_GRP1_EnableClock\n
 525:Drivers/STM32WBxx_HAL_Driver/Inc/stm32wbxx_ll_bus.h ****   *         AHB2ENR      ADCEN         LL_AHB2_GRP1_EnableClock\n
 526:Drivers/STM32WBxx_HAL_Driver/Inc/stm32wbxx_ll_bus.h ****   *         AHB2ENR      AES1EN        LL_AHB2_GRP1_EnableClock
 527:Drivers/STM32WBxx_HAL_Driver/Inc/stm32wbxx_ll_bus.h ****   * @param  Periphs This parameter can be a combination of the following values:
 528:Drivers/STM32WBxx_HAL_Driver/Inc/stm32wbxx_ll_bus.h ****   *         @arg @ref LL_AHB2_GRP1_PERIPH_GPIOA
 529:Drivers/STM32WBxx_HAL_Driver/Inc/stm32wbxx_ll_bus.h ****   *         @arg @ref LL_AHB2_GRP1_PERIPH_GPIOB
 530:Drivers/STM32WBxx_HAL_Driver/Inc/stm32wbxx_ll_bus.h ****   *         @arg @ref LL_AHB2_GRP1_PERIPH_GPIOC
 531:Drivers/STM32WBxx_HAL_Driver/Inc/stm32wbxx_ll_bus.h ****   *         @arg @ref LL_AHB2_GRP1_PERIPH_GPIOD (*)
 532:Drivers/STM32WBxx_HAL_Driver/Inc/stm32wbxx_ll_bus.h ****   *         @arg @ref LL_AHB2_GRP1_PERIPH_GPIOE
 533:Drivers/STM32WBxx_HAL_Driver/Inc/stm32wbxx_ll_bus.h ****   *         @arg @ref LL_AHB2_GRP1_PERIPH_GPIOH
 534:Drivers/STM32WBxx_HAL_Driver/Inc/stm32wbxx_ll_bus.h ****   *         @arg @ref LL_AHB2_GRP1_PERIPH_ADC (*)
 535:Drivers/STM32WBxx_HAL_Driver/Inc/stm32wbxx_ll_bus.h ****   *         @arg @ref LL_AHB2_GRP1_PERIPH_AES1 (*)
 536:Drivers/STM32WBxx_HAL_Driver/Inc/stm32wbxx_ll_bus.h ****   * @note  (*) Not supported by all the devices
 537:Drivers/STM32WBxx_HAL_Driver/Inc/stm32wbxx_ll_bus.h ****   * @retval None
 538:Drivers/STM32WBxx_HAL_Driver/Inc/stm32wbxx_ll_bus.h ****   */
 539:Drivers/STM32WBxx_HAL_Driver/Inc/stm32wbxx_ll_bus.h **** __STATIC_INLINE void LL_AHB2_GRP1_EnableClock(uint32_t Periphs)
 170              		.loc 2 539 22 view .LVU31
 171              	.LBB9:
 540:Drivers/STM32WBxx_HAL_Driver/Inc/stm32wbxx_ll_bus.h **** {
 541:Drivers/STM32WBxx_HAL_Driver/Inc/stm32wbxx_ll_bus.h ****   __IO uint32_t tmpreg;
 172              		.loc 2 541 3 view .LVU32
 542:Drivers/STM32WBxx_HAL_Driver/Inc/stm32wbxx_ll_bus.h ****   SET_BIT(RCC->AHB2ENR, Periphs);
 173              		.loc 2 542 3 view .LVU33
 174 0034 4FF0B044 		mov	r4, #1476395008
 175              	.LVL13:
 176              		.loc 2 542 3 is_stmt 0 view .LVU34
 177 0038 E36C     		ldr	r3, [r4, #76]
 178 003a 43F00103 		orr	r3, r3, #1
 179 003e E364     		str	r3, [r4, #76]
 543:Drivers/STM32WBxx_HAL_Driver/Inc/stm32wbxx_ll_bus.h ****   /* Delay after an RCC peripheral clock enabling */
 544:Drivers/STM32WBxx_HAL_Driver/Inc/stm32wbxx_ll_bus.h ****   tmpreg = READ_BIT(RCC->AHB2ENR, Periphs);
 180              		.loc 2 544 3 is_stmt 1 view .LVU35
 181              		.loc 2 544 12 is_stmt 0 view .LVU36
 182 0040 E36C     		ldr	r3, [r4, #76]
 183 0042 03F00103 		and	r3, r3, #1
 184              		.loc 2 544 10 view .LVU37
 185 0046 0293     		str	r3, [sp, #8]
 545:Drivers/STM32WBxx_HAL_Driver/Inc/stm32wbxx_ll_bus.h ****   (void)tmpreg;
 186              		.loc 2 545 3 is_stmt 1 view .LVU38
 187 0048 029B     		ldr	r3, [sp, #8]
 188              	.LVL14:
 189              		.loc 2 545 3 is_stmt 0 view .LVU39
 190              	.LBE9:
 191              	.LBE8:
  98:USB_Device/Target/usbd_conf.c ****     GPIO_InitStruct.Mode = GPIO_MODE_AF_PP;
 192              		.loc 1 98 5 is_stmt 1 view .LVU40
  98:USB_Device/Target/usbd_conf.c ****     GPIO_InitStruct.Mode = GPIO_MODE_AF_PP;
 193              		.loc 1 98 25 is_stmt 0 view .LVU41
 194 004a 4FF4C053 		mov	r3, #6144
 195 004e 1793     		str	r3, [sp, #92]
ARM GAS  C:\Users\bku598\AppData\Local\Temp\ccpE5VlW.s 			page 28


  99:USB_Device/Target/usbd_conf.c ****     GPIO_InitStruct.Pull = GPIO_NOPULL;
 196              		.loc 1 99 5 is_stmt 1 view .LVU42
  99:USB_Device/Target/usbd_conf.c ****     GPIO_InitStruct.Pull = GPIO_NOPULL;
 197              		.loc 1 99 26 is_stmt 0 view .LVU43
 198 0050 0223     		movs	r3, #2
 199 0052 1893     		str	r3, [sp, #96]
 100:USB_Device/Target/usbd_conf.c ****     GPIO_InitStruct.Speed = GPIO_SPEED_FREQ_LOW;
 200              		.loc 1 100 5 is_stmt 1 view .LVU44
 100:USB_Device/Target/usbd_conf.c ****     GPIO_InitStruct.Speed = GPIO_SPEED_FREQ_LOW;
 201              		.loc 1 100 26 is_stmt 0 view .LVU45
 202 0054 0025     		movs	r5, #0
 203 0056 1995     		str	r5, [sp, #100]
 101:USB_Device/Target/usbd_conf.c ****     GPIO_InitStruct.Alternate = GPIO_AF10_USB;
 204              		.loc 1 101 5 is_stmt 1 view .LVU46
 101:USB_Device/Target/usbd_conf.c ****     GPIO_InitStruct.Alternate = GPIO_AF10_USB;
 205              		.loc 1 101 27 is_stmt 0 view .LVU47
 206 0058 1A95     		str	r5, [sp, #104]
 102:USB_Device/Target/usbd_conf.c ****     HAL_GPIO_Init(GPIOA, &GPIO_InitStruct);
 207              		.loc 1 102 5 is_stmt 1 view .LVU48
 102:USB_Device/Target/usbd_conf.c ****     HAL_GPIO_Init(GPIOA, &GPIO_InitStruct);
 208              		.loc 1 102 31 is_stmt 0 view .LVU49
 209 005a 0A23     		movs	r3, #10
 210 005c 1B93     		str	r3, [sp, #108]
 103:USB_Device/Target/usbd_conf.c **** 
 211              		.loc 1 103 5 is_stmt 1 view .LVU50
 212 005e 17A9     		add	r1, sp, #92
 213 0060 4FF09040 		mov	r0, #1207959552
 214 0064 FFF7FEFF 		bl	HAL_GPIO_Init
 215              	.LVL15:
 106:USB_Device/Target/usbd_conf.c **** 
 216              		.loc 1 106 5 view .LVU51
 217              	.LBB10:
 218              	.LBI10:
 546:Drivers/STM32WBxx_HAL_Driver/Inc/stm32wbxx_ll_bus.h **** }
 547:Drivers/STM32WBxx_HAL_Driver/Inc/stm32wbxx_ll_bus.h **** 
 548:Drivers/STM32WBxx_HAL_Driver/Inc/stm32wbxx_ll_bus.h **** /**
 549:Drivers/STM32WBxx_HAL_Driver/Inc/stm32wbxx_ll_bus.h ****   * @brief  Check if AHB2 peripheral clock is enabled or not
 550:Drivers/STM32WBxx_HAL_Driver/Inc/stm32wbxx_ll_bus.h ****   * @rmtoll AHB2ENR      GPIOAEN       LL_AHB2_GRP1_IsEnabledClock\n
 551:Drivers/STM32WBxx_HAL_Driver/Inc/stm32wbxx_ll_bus.h ****   *         AHB2ENR      GPIOBEN       LL_AHB2_GRP1_IsEnabledClock\n
 552:Drivers/STM32WBxx_HAL_Driver/Inc/stm32wbxx_ll_bus.h ****   *         AHB2ENR      GPIOCEN       LL_AHB2_GRP1_IsEnabledClock\n
 553:Drivers/STM32WBxx_HAL_Driver/Inc/stm32wbxx_ll_bus.h ****   *         AHB2ENR      GPIODEN       LL_AHB2_GRP1_IsEnabledClock\n
 554:Drivers/STM32WBxx_HAL_Driver/Inc/stm32wbxx_ll_bus.h ****   *         AHB2ENR      GPIOEEN       LL_AHB2_GRP1_IsEnabledClock\n
 555:Drivers/STM32WBxx_HAL_Driver/Inc/stm32wbxx_ll_bus.h ****   *         AHB2ENR      GPIOHEN       LL_AHB2_GRP1_IsEnabledClock\n
 556:Drivers/STM32WBxx_HAL_Driver/Inc/stm32wbxx_ll_bus.h ****   *         AHB2ENR      ADCEN         LL_AHB2_GRP1_IsEnabledClock\n
 557:Drivers/STM32WBxx_HAL_Driver/Inc/stm32wbxx_ll_bus.h ****   *         AHB2ENR      AES1EN        LL_AHB2_GRP1_IsEnabledClock
 558:Drivers/STM32WBxx_HAL_Driver/Inc/stm32wbxx_ll_bus.h ****   * @param  Periphs This parameter can be a combination of the following values:
 559:Drivers/STM32WBxx_HAL_Driver/Inc/stm32wbxx_ll_bus.h ****   *         @arg @ref LL_AHB2_GRP1_PERIPH_GPIOA
 560:Drivers/STM32WBxx_HAL_Driver/Inc/stm32wbxx_ll_bus.h ****   *         @arg @ref LL_AHB2_GRP1_PERIPH_GPIOB
 561:Drivers/STM32WBxx_HAL_Driver/Inc/stm32wbxx_ll_bus.h ****   *         @arg @ref LL_AHB2_GRP1_PERIPH_GPIOC
 562:Drivers/STM32WBxx_HAL_Driver/Inc/stm32wbxx_ll_bus.h ****   *         @arg @ref LL_AHB2_GRP1_PERIPH_GPIOD (*)
 563:Drivers/STM32WBxx_HAL_Driver/Inc/stm32wbxx_ll_bus.h ****   *         @arg @ref LL_AHB2_GRP1_PERIPH_GPIOE
 564:Drivers/STM32WBxx_HAL_Driver/Inc/stm32wbxx_ll_bus.h ****   *         @arg @ref LL_AHB2_GRP1_PERIPH_GPIOH
 565:Drivers/STM32WBxx_HAL_Driver/Inc/stm32wbxx_ll_bus.h ****   *         @arg @ref LL_AHB2_GRP1_PERIPH_ADC (*)
 566:Drivers/STM32WBxx_HAL_Driver/Inc/stm32wbxx_ll_bus.h ****   *         @arg @ref LL_AHB2_GRP1_PERIPH_AES1 (*)
 567:Drivers/STM32WBxx_HAL_Driver/Inc/stm32wbxx_ll_bus.h ****   * @note  (*) Not supported by all the devices
 568:Drivers/STM32WBxx_HAL_Driver/Inc/stm32wbxx_ll_bus.h ****   * @retval uint32_t
 569:Drivers/STM32WBxx_HAL_Driver/Inc/stm32wbxx_ll_bus.h ****   */
ARM GAS  C:\Users\bku598\AppData\Local\Temp\ccpE5VlW.s 			page 29


 570:Drivers/STM32WBxx_HAL_Driver/Inc/stm32wbxx_ll_bus.h **** __STATIC_INLINE uint32_t LL_AHB2_GRP1_IsEnabledClock(uint32_t Periphs)
 571:Drivers/STM32WBxx_HAL_Driver/Inc/stm32wbxx_ll_bus.h **** {
 572:Drivers/STM32WBxx_HAL_Driver/Inc/stm32wbxx_ll_bus.h ****   return ((READ_BIT(RCC->AHB2ENR, Periphs) == (Periphs)) ? 1UL : 0UL);
 573:Drivers/STM32WBxx_HAL_Driver/Inc/stm32wbxx_ll_bus.h **** }
 574:Drivers/STM32WBxx_HAL_Driver/Inc/stm32wbxx_ll_bus.h **** 
 575:Drivers/STM32WBxx_HAL_Driver/Inc/stm32wbxx_ll_bus.h **** /**
 576:Drivers/STM32WBxx_HAL_Driver/Inc/stm32wbxx_ll_bus.h ****   * @brief  Disable AHB2 peripherals clock.
 577:Drivers/STM32WBxx_HAL_Driver/Inc/stm32wbxx_ll_bus.h ****   * @rmtoll AHB2ENR      GPIOAEN       LL_AHB2_GRP1_DisableClock\n
 578:Drivers/STM32WBxx_HAL_Driver/Inc/stm32wbxx_ll_bus.h ****   *         AHB2ENR      GPIOBEN       LL_AHB2_GRP1_DisableClock\n
 579:Drivers/STM32WBxx_HAL_Driver/Inc/stm32wbxx_ll_bus.h ****   *         AHB2ENR      GPIOCEN       LL_AHB2_GRP1_DisableClock\n
 580:Drivers/STM32WBxx_HAL_Driver/Inc/stm32wbxx_ll_bus.h ****   *         AHB2ENR      GPIODEN       LL_AHB2_GRP1_DisableClock\n
 581:Drivers/STM32WBxx_HAL_Driver/Inc/stm32wbxx_ll_bus.h ****   *         AHB2ENR      GPIOEEN       LL_AHB2_GRP1_DisableClock\n
 582:Drivers/STM32WBxx_HAL_Driver/Inc/stm32wbxx_ll_bus.h ****   *         AHB2ENR      GPIOHEN       LL_AHB2_GRP1_DisableClock\n
 583:Drivers/STM32WBxx_HAL_Driver/Inc/stm32wbxx_ll_bus.h ****   *         AHB2ENR      ADCEN         LL_AHB2_GRP1_DisableClock\n
 584:Drivers/STM32WBxx_HAL_Driver/Inc/stm32wbxx_ll_bus.h ****   *         AHB2ENR      AES1EN        LL_AHB2_GRP1_DisableClock
 585:Drivers/STM32WBxx_HAL_Driver/Inc/stm32wbxx_ll_bus.h ****   * @param  Periphs This parameter can be a combination of the following values:
 586:Drivers/STM32WBxx_HAL_Driver/Inc/stm32wbxx_ll_bus.h ****   *         @arg @ref LL_AHB2_GRP1_PERIPH_GPIOA
 587:Drivers/STM32WBxx_HAL_Driver/Inc/stm32wbxx_ll_bus.h ****   *         @arg @ref LL_AHB2_GRP1_PERIPH_GPIOB
 588:Drivers/STM32WBxx_HAL_Driver/Inc/stm32wbxx_ll_bus.h ****   *         @arg @ref LL_AHB2_GRP1_PERIPH_GPIOC
 589:Drivers/STM32WBxx_HAL_Driver/Inc/stm32wbxx_ll_bus.h ****   *         @arg @ref LL_AHB2_GRP1_PERIPH_GPIOD (*)
 590:Drivers/STM32WBxx_HAL_Driver/Inc/stm32wbxx_ll_bus.h ****   *         @arg @ref LL_AHB2_GRP1_PERIPH_GPIOE
 591:Drivers/STM32WBxx_HAL_Driver/Inc/stm32wbxx_ll_bus.h ****   *         @arg @ref LL_AHB2_GRP1_PERIPH_GPIOH
 592:Drivers/STM32WBxx_HAL_Driver/Inc/stm32wbxx_ll_bus.h ****   *         @arg @ref LL_AHB2_GRP1_PERIPH_ADC (*)
 593:Drivers/STM32WBxx_HAL_Driver/Inc/stm32wbxx_ll_bus.h ****   *         @arg @ref LL_AHB2_GRP1_PERIPH_AES1 (*)
 594:Drivers/STM32WBxx_HAL_Driver/Inc/stm32wbxx_ll_bus.h ****   * @note  (*) Not supported by all the devices
 595:Drivers/STM32WBxx_HAL_Driver/Inc/stm32wbxx_ll_bus.h ****   * @retval None
 596:Drivers/STM32WBxx_HAL_Driver/Inc/stm32wbxx_ll_bus.h ****   */
 597:Drivers/STM32WBxx_HAL_Driver/Inc/stm32wbxx_ll_bus.h **** __STATIC_INLINE void LL_AHB2_GRP1_DisableClock(uint32_t Periphs)
 598:Drivers/STM32WBxx_HAL_Driver/Inc/stm32wbxx_ll_bus.h **** {
 599:Drivers/STM32WBxx_HAL_Driver/Inc/stm32wbxx_ll_bus.h ****   CLEAR_BIT(RCC->AHB2ENR, Periphs);
 600:Drivers/STM32WBxx_HAL_Driver/Inc/stm32wbxx_ll_bus.h **** }
 601:Drivers/STM32WBxx_HAL_Driver/Inc/stm32wbxx_ll_bus.h **** 
 602:Drivers/STM32WBxx_HAL_Driver/Inc/stm32wbxx_ll_bus.h **** /**
 603:Drivers/STM32WBxx_HAL_Driver/Inc/stm32wbxx_ll_bus.h ****   * @brief  Force AHB2 peripherals reset.
 604:Drivers/STM32WBxx_HAL_Driver/Inc/stm32wbxx_ll_bus.h ****   * @rmtoll AHB2RSTR     GPIOARST      LL_AHB2_GRP1_ForceReset\n
 605:Drivers/STM32WBxx_HAL_Driver/Inc/stm32wbxx_ll_bus.h ****   *         AHB2RSTR     GPIOBRST      LL_AHB2_GRP1_ForceReset\n
 606:Drivers/STM32WBxx_HAL_Driver/Inc/stm32wbxx_ll_bus.h ****   *         AHB2RSTR     GPIOCRST      LL_AHB2_GRP1_ForceReset\n
 607:Drivers/STM32WBxx_HAL_Driver/Inc/stm32wbxx_ll_bus.h ****   *         AHB2RSTR     GPIODRST      LL_AHB2_GRP1_ForceReset\n
 608:Drivers/STM32WBxx_HAL_Driver/Inc/stm32wbxx_ll_bus.h ****   *         AHB2RSTR     GPIOERST      LL_AHB2_GRP1_ForceReset\n
 609:Drivers/STM32WBxx_HAL_Driver/Inc/stm32wbxx_ll_bus.h ****   *         AHB2RSTR     GPIOHRST      LL_AHB2_GRP1_ForceReset\n
 610:Drivers/STM32WBxx_HAL_Driver/Inc/stm32wbxx_ll_bus.h ****   *         AHB2RSTR     ADCRST        LL_AHB2_GRP1_ForceReset\n
 611:Drivers/STM32WBxx_HAL_Driver/Inc/stm32wbxx_ll_bus.h ****   *         AHB2RSTR     AES1RST       LL_AHB2_GRP1_ForceReset
 612:Drivers/STM32WBxx_HAL_Driver/Inc/stm32wbxx_ll_bus.h ****   * @param  Periphs This parameter can be a combination of the following values:
 613:Drivers/STM32WBxx_HAL_Driver/Inc/stm32wbxx_ll_bus.h ****   *         @arg @ref LL_AHB2_GRP1_PERIPH_ALL
 614:Drivers/STM32WBxx_HAL_Driver/Inc/stm32wbxx_ll_bus.h ****   *         @arg @ref LL_AHB2_GRP1_PERIPH_GPIOA
 615:Drivers/STM32WBxx_HAL_Driver/Inc/stm32wbxx_ll_bus.h ****   *         @arg @ref LL_AHB2_GRP1_PERIPH_GPIOB
 616:Drivers/STM32WBxx_HAL_Driver/Inc/stm32wbxx_ll_bus.h ****   *         @arg @ref LL_AHB2_GRP1_PERIPH_GPIOC
 617:Drivers/STM32WBxx_HAL_Driver/Inc/stm32wbxx_ll_bus.h ****   *         @arg @ref LL_AHB2_GRP1_PERIPH_GPIOD (*)
 618:Drivers/STM32WBxx_HAL_Driver/Inc/stm32wbxx_ll_bus.h ****   *         @arg @ref LL_AHB2_GRP1_PERIPH_GPIOE
 619:Drivers/STM32WBxx_HAL_Driver/Inc/stm32wbxx_ll_bus.h ****   *         @arg @ref LL_AHB2_GRP1_PERIPH_GPIOH
 620:Drivers/STM32WBxx_HAL_Driver/Inc/stm32wbxx_ll_bus.h ****   *         @arg @ref LL_AHB2_GRP1_PERIPH_ADC (*)
 621:Drivers/STM32WBxx_HAL_Driver/Inc/stm32wbxx_ll_bus.h ****   *         @arg @ref LL_AHB2_GRP1_PERIPH_AES1 (*)
 622:Drivers/STM32WBxx_HAL_Driver/Inc/stm32wbxx_ll_bus.h ****   * @note  (*) Not supported by all the devices
 623:Drivers/STM32WBxx_HAL_Driver/Inc/stm32wbxx_ll_bus.h ****   * @retval None
 624:Drivers/STM32WBxx_HAL_Driver/Inc/stm32wbxx_ll_bus.h ****   */
 625:Drivers/STM32WBxx_HAL_Driver/Inc/stm32wbxx_ll_bus.h **** __STATIC_INLINE void LL_AHB2_GRP1_ForceReset(uint32_t Periphs)
 626:Drivers/STM32WBxx_HAL_Driver/Inc/stm32wbxx_ll_bus.h **** {
ARM GAS  C:\Users\bku598\AppData\Local\Temp\ccpE5VlW.s 			page 30


 627:Drivers/STM32WBxx_HAL_Driver/Inc/stm32wbxx_ll_bus.h ****   SET_BIT(RCC->AHB2RSTR, Periphs);
 628:Drivers/STM32WBxx_HAL_Driver/Inc/stm32wbxx_ll_bus.h **** }
 629:Drivers/STM32WBxx_HAL_Driver/Inc/stm32wbxx_ll_bus.h **** 
 630:Drivers/STM32WBxx_HAL_Driver/Inc/stm32wbxx_ll_bus.h **** /**
 631:Drivers/STM32WBxx_HAL_Driver/Inc/stm32wbxx_ll_bus.h ****   * @brief  Release AHB2 peripherals reset.
 632:Drivers/STM32WBxx_HAL_Driver/Inc/stm32wbxx_ll_bus.h ****   * @rmtoll AHB2RSTR     GPIOARST      LL_AHB2_GRP1_ReleaseReset\n
 633:Drivers/STM32WBxx_HAL_Driver/Inc/stm32wbxx_ll_bus.h ****   *         AHB2RSTR     GPIOBRST      LL_AHB2_GRP1_ReleaseReset\n
 634:Drivers/STM32WBxx_HAL_Driver/Inc/stm32wbxx_ll_bus.h ****   *         AHB2RSTR     GPIOCRST      LL_AHB2_GRP1_ReleaseReset\n
 635:Drivers/STM32WBxx_HAL_Driver/Inc/stm32wbxx_ll_bus.h ****   *         AHB2RSTR     GPIODRST      LL_AHB2_GRP1_ReleaseReset\n
 636:Drivers/STM32WBxx_HAL_Driver/Inc/stm32wbxx_ll_bus.h ****   *         AHB2RSTR     GPIOERST      LL_AHB2_GRP1_ReleaseReset\n
 637:Drivers/STM32WBxx_HAL_Driver/Inc/stm32wbxx_ll_bus.h ****   *         AHB2RSTR     GPIOHRST      LL_AHB2_GRP1_ReleaseReset\n
 638:Drivers/STM32WBxx_HAL_Driver/Inc/stm32wbxx_ll_bus.h ****   *         AHB2RSTR     ADCRST        LL_AHB2_GRP1_ReleaseReset\n
 639:Drivers/STM32WBxx_HAL_Driver/Inc/stm32wbxx_ll_bus.h ****   *         AHB2RSTR     AES1RST       LL_AHB2_GRP1_ReleaseReset
 640:Drivers/STM32WBxx_HAL_Driver/Inc/stm32wbxx_ll_bus.h ****   * @param  Periphs This parameter can be a combination of the following values:
 641:Drivers/STM32WBxx_HAL_Driver/Inc/stm32wbxx_ll_bus.h ****   *         @arg @ref LL_AHB2_GRP1_PERIPH_ALL
 642:Drivers/STM32WBxx_HAL_Driver/Inc/stm32wbxx_ll_bus.h ****   *         @arg @ref LL_AHB2_GRP1_PERIPH_GPIOA
 643:Drivers/STM32WBxx_HAL_Driver/Inc/stm32wbxx_ll_bus.h ****   *         @arg @ref LL_AHB2_GRP1_PERIPH_GPIOB
 644:Drivers/STM32WBxx_HAL_Driver/Inc/stm32wbxx_ll_bus.h ****   *         @arg @ref LL_AHB2_GRP1_PERIPH_GPIOC
 645:Drivers/STM32WBxx_HAL_Driver/Inc/stm32wbxx_ll_bus.h ****   *         @arg @ref LL_AHB2_GRP1_PERIPH_GPIOD (*)
 646:Drivers/STM32WBxx_HAL_Driver/Inc/stm32wbxx_ll_bus.h ****   *         @arg @ref LL_AHB2_GRP1_PERIPH_GPIOE
 647:Drivers/STM32WBxx_HAL_Driver/Inc/stm32wbxx_ll_bus.h ****   *         @arg @ref LL_AHB2_GRP1_PERIPH_GPIOH
 648:Drivers/STM32WBxx_HAL_Driver/Inc/stm32wbxx_ll_bus.h ****   *         @arg @ref LL_AHB2_GRP1_PERIPH_ADC (*)
 649:Drivers/STM32WBxx_HAL_Driver/Inc/stm32wbxx_ll_bus.h ****   *         @arg @ref LL_AHB2_GRP1_PERIPH_AES1 (*)
 650:Drivers/STM32WBxx_HAL_Driver/Inc/stm32wbxx_ll_bus.h ****   * @note  (*) Not supported by all the devices
 651:Drivers/STM32WBxx_HAL_Driver/Inc/stm32wbxx_ll_bus.h ****   * @retval None
 652:Drivers/STM32WBxx_HAL_Driver/Inc/stm32wbxx_ll_bus.h ****   */
 653:Drivers/STM32WBxx_HAL_Driver/Inc/stm32wbxx_ll_bus.h **** __STATIC_INLINE void LL_AHB2_GRP1_ReleaseReset(uint32_t Periphs)
 654:Drivers/STM32WBxx_HAL_Driver/Inc/stm32wbxx_ll_bus.h **** {
 655:Drivers/STM32WBxx_HAL_Driver/Inc/stm32wbxx_ll_bus.h ****   CLEAR_BIT(RCC->AHB2RSTR, Periphs);
 656:Drivers/STM32WBxx_HAL_Driver/Inc/stm32wbxx_ll_bus.h **** }
 657:Drivers/STM32WBxx_HAL_Driver/Inc/stm32wbxx_ll_bus.h **** 
 658:Drivers/STM32WBxx_HAL_Driver/Inc/stm32wbxx_ll_bus.h **** /**
 659:Drivers/STM32WBxx_HAL_Driver/Inc/stm32wbxx_ll_bus.h ****   * @brief  Enable AHB2 peripherals clock during Low Power (Sleep) mode.
 660:Drivers/STM32WBxx_HAL_Driver/Inc/stm32wbxx_ll_bus.h ****   * @rmtoll AHB2SMENR    GPIOASMEN     LL_AHB2_GRP1_EnableClockSleep\n
 661:Drivers/STM32WBxx_HAL_Driver/Inc/stm32wbxx_ll_bus.h ****   *         AHB2SMENR    GPIOBSMEN     LL_AHB2_GRP1_EnableClockSleep\n
 662:Drivers/STM32WBxx_HAL_Driver/Inc/stm32wbxx_ll_bus.h ****   *         AHB2SMENR    GPIOCSMEN     LL_AHB2_GRP1_EnableClockSleep\n
 663:Drivers/STM32WBxx_HAL_Driver/Inc/stm32wbxx_ll_bus.h ****   *         AHB2SMENR    GPIODSMEN     LL_AHB2_GRP1_EnableClockSleep\n
 664:Drivers/STM32WBxx_HAL_Driver/Inc/stm32wbxx_ll_bus.h ****   *         AHB2SMENR    GPIOESMEN     LL_AHB2_GRP1_EnableClockSleep\n
 665:Drivers/STM32WBxx_HAL_Driver/Inc/stm32wbxx_ll_bus.h ****   *         AHB2SMENR    GPIOHSMEN     LL_AHB2_GRP1_EnableClockSleep\n
 666:Drivers/STM32WBxx_HAL_Driver/Inc/stm32wbxx_ll_bus.h ****   *         AHB2SMENR    ADCSMEN       LL_AHB2_GRP1_EnableClockSleep\n
 667:Drivers/STM32WBxx_HAL_Driver/Inc/stm32wbxx_ll_bus.h ****   *         AHB2SMENR    AES1SMEN      LL_AHB2_GRP1_EnableClockSleep
 668:Drivers/STM32WBxx_HAL_Driver/Inc/stm32wbxx_ll_bus.h ****   * @param  Periphs This parameter can be a combination of the following values:
 669:Drivers/STM32WBxx_HAL_Driver/Inc/stm32wbxx_ll_bus.h ****   *         @arg @ref LL_AHB2_GRP1_PERIPH_GPIOA
 670:Drivers/STM32WBxx_HAL_Driver/Inc/stm32wbxx_ll_bus.h ****   *         @arg @ref LL_AHB2_GRP1_PERIPH_GPIOB
 671:Drivers/STM32WBxx_HAL_Driver/Inc/stm32wbxx_ll_bus.h ****   *         @arg @ref LL_AHB2_GRP1_PERIPH_GPIOC
 672:Drivers/STM32WBxx_HAL_Driver/Inc/stm32wbxx_ll_bus.h ****   *         @arg @ref LL_AHB2_GRP1_PERIPH_GPIOD (*)
 673:Drivers/STM32WBxx_HAL_Driver/Inc/stm32wbxx_ll_bus.h ****   *         @arg @ref LL_AHB2_GRP1_PERIPH_GPIOE
 674:Drivers/STM32WBxx_HAL_Driver/Inc/stm32wbxx_ll_bus.h ****   *         @arg @ref LL_AHB2_GRP1_PERIPH_GPIOH
 675:Drivers/STM32WBxx_HAL_Driver/Inc/stm32wbxx_ll_bus.h ****   *         @arg @ref LL_AHB2_GRP1_PERIPH_ADC (*)
 676:Drivers/STM32WBxx_HAL_Driver/Inc/stm32wbxx_ll_bus.h ****   *         @arg @ref LL_AHB2_GRP1_PERIPH_AES1 (*)
 677:Drivers/STM32WBxx_HAL_Driver/Inc/stm32wbxx_ll_bus.h ****   * @note  (*) Not supported by all the devices
 678:Drivers/STM32WBxx_HAL_Driver/Inc/stm32wbxx_ll_bus.h ****   * @retval None
 679:Drivers/STM32WBxx_HAL_Driver/Inc/stm32wbxx_ll_bus.h ****   */
 680:Drivers/STM32WBxx_HAL_Driver/Inc/stm32wbxx_ll_bus.h **** __STATIC_INLINE void LL_AHB2_GRP1_EnableClockSleep(uint32_t Periphs)
 681:Drivers/STM32WBxx_HAL_Driver/Inc/stm32wbxx_ll_bus.h **** {
 682:Drivers/STM32WBxx_HAL_Driver/Inc/stm32wbxx_ll_bus.h ****   __IO uint32_t tmpreg;
 683:Drivers/STM32WBxx_HAL_Driver/Inc/stm32wbxx_ll_bus.h ****   SET_BIT(RCC->AHB2SMENR, Periphs);
ARM GAS  C:\Users\bku598\AppData\Local\Temp\ccpE5VlW.s 			page 31


 684:Drivers/STM32WBxx_HAL_Driver/Inc/stm32wbxx_ll_bus.h ****   /* Delay after an RCC peripheral clock enabling */
 685:Drivers/STM32WBxx_HAL_Driver/Inc/stm32wbxx_ll_bus.h ****   tmpreg = READ_BIT(RCC->AHB2SMENR, Periphs);
 686:Drivers/STM32WBxx_HAL_Driver/Inc/stm32wbxx_ll_bus.h ****   (void)tmpreg;
 687:Drivers/STM32WBxx_HAL_Driver/Inc/stm32wbxx_ll_bus.h **** }
 688:Drivers/STM32WBxx_HAL_Driver/Inc/stm32wbxx_ll_bus.h **** 
 689:Drivers/STM32WBxx_HAL_Driver/Inc/stm32wbxx_ll_bus.h **** /**
 690:Drivers/STM32WBxx_HAL_Driver/Inc/stm32wbxx_ll_bus.h ****   * @brief  Disable AHB2 peripherals clock during Low Power (Sleep) mode.
 691:Drivers/STM32WBxx_HAL_Driver/Inc/stm32wbxx_ll_bus.h ****   * @rmtoll AHB2SMENR    GPIOASMEN     LL_AHB2_GRP1_DisableClockSleep\n
 692:Drivers/STM32WBxx_HAL_Driver/Inc/stm32wbxx_ll_bus.h ****   *         AHB2SMENR    GPIOBSMEN     LL_AHB2_GRP1_DisableClockSleep\n
 693:Drivers/STM32WBxx_HAL_Driver/Inc/stm32wbxx_ll_bus.h ****   *         AHB2SMENR    GPIOCSMEN     LL_AHB2_GRP1_DisableClockSleep\n
 694:Drivers/STM32WBxx_HAL_Driver/Inc/stm32wbxx_ll_bus.h ****   *         AHB2SMENR    GPIODSMEN     LL_AHB2_GRP1_DisableClockSleep\n
 695:Drivers/STM32WBxx_HAL_Driver/Inc/stm32wbxx_ll_bus.h ****   *         AHB2SMENR    GPIOESMEN     LL_AHB2_GRP1_DisableClockSleep\n
 696:Drivers/STM32WBxx_HAL_Driver/Inc/stm32wbxx_ll_bus.h ****   *         AHB2SMENR    GPIOHSMEN     LL_AHB2_GRP1_DisableClockSleep\n
 697:Drivers/STM32WBxx_HAL_Driver/Inc/stm32wbxx_ll_bus.h ****   *         AHB2SMENR    ADCSMEN       LL_AHB2_GRP1_DisableClockSleep\n
 698:Drivers/STM32WBxx_HAL_Driver/Inc/stm32wbxx_ll_bus.h ****   *         AHB2SMENR    AES1SMEN      LL_AHB2_GRP1_DisableClockSleep
 699:Drivers/STM32WBxx_HAL_Driver/Inc/stm32wbxx_ll_bus.h ****   * @param  Periphs This parameter can be a combination of the following values:
 700:Drivers/STM32WBxx_HAL_Driver/Inc/stm32wbxx_ll_bus.h ****   *         @arg @ref LL_AHB2_GRP1_PERIPH_GPIOA
 701:Drivers/STM32WBxx_HAL_Driver/Inc/stm32wbxx_ll_bus.h ****   *         @arg @ref LL_AHB2_GRP1_PERIPH_GPIOB
 702:Drivers/STM32WBxx_HAL_Driver/Inc/stm32wbxx_ll_bus.h ****   *         @arg @ref LL_AHB2_GRP1_PERIPH_GPIOC
 703:Drivers/STM32WBxx_HAL_Driver/Inc/stm32wbxx_ll_bus.h ****   *         @arg @ref LL_AHB2_GRP1_PERIPH_GPIOD (*)
 704:Drivers/STM32WBxx_HAL_Driver/Inc/stm32wbxx_ll_bus.h ****   *         @arg @ref LL_AHB2_GRP1_PERIPH_GPIOE
 705:Drivers/STM32WBxx_HAL_Driver/Inc/stm32wbxx_ll_bus.h ****   *         @arg @ref LL_AHB2_GRP1_PERIPH_GPIOH
 706:Drivers/STM32WBxx_HAL_Driver/Inc/stm32wbxx_ll_bus.h ****   *         @arg @ref LL_AHB2_GRP1_PERIPH_ADC (*)
 707:Drivers/STM32WBxx_HAL_Driver/Inc/stm32wbxx_ll_bus.h ****   *         @arg @ref LL_AHB2_GRP1_PERIPH_AES1 (*)
 708:Drivers/STM32WBxx_HAL_Driver/Inc/stm32wbxx_ll_bus.h ****   * @note  (*) Not supported by all the devices
 709:Drivers/STM32WBxx_HAL_Driver/Inc/stm32wbxx_ll_bus.h ****   * @retval None
 710:Drivers/STM32WBxx_HAL_Driver/Inc/stm32wbxx_ll_bus.h ****   */
 711:Drivers/STM32WBxx_HAL_Driver/Inc/stm32wbxx_ll_bus.h **** __STATIC_INLINE void LL_AHB2_GRP1_DisableClockSleep(uint32_t Periphs)
 712:Drivers/STM32WBxx_HAL_Driver/Inc/stm32wbxx_ll_bus.h **** {
 713:Drivers/STM32WBxx_HAL_Driver/Inc/stm32wbxx_ll_bus.h ****   CLEAR_BIT(RCC->AHB2SMENR, Periphs);
 714:Drivers/STM32WBxx_HAL_Driver/Inc/stm32wbxx_ll_bus.h **** }
 715:Drivers/STM32WBxx_HAL_Driver/Inc/stm32wbxx_ll_bus.h **** 
 716:Drivers/STM32WBxx_HAL_Driver/Inc/stm32wbxx_ll_bus.h **** /**
 717:Drivers/STM32WBxx_HAL_Driver/Inc/stm32wbxx_ll_bus.h ****   * @}
 718:Drivers/STM32WBxx_HAL_Driver/Inc/stm32wbxx_ll_bus.h ****   */
 719:Drivers/STM32WBxx_HAL_Driver/Inc/stm32wbxx_ll_bus.h **** 
 720:Drivers/STM32WBxx_HAL_Driver/Inc/stm32wbxx_ll_bus.h **** /** @defgroup BUS_LL_EF_AHB3 AHB3
 721:Drivers/STM32WBxx_HAL_Driver/Inc/stm32wbxx_ll_bus.h ****   * @{
 722:Drivers/STM32WBxx_HAL_Driver/Inc/stm32wbxx_ll_bus.h ****   */
 723:Drivers/STM32WBxx_HAL_Driver/Inc/stm32wbxx_ll_bus.h **** 
 724:Drivers/STM32WBxx_HAL_Driver/Inc/stm32wbxx_ll_bus.h **** /**
 725:Drivers/STM32WBxx_HAL_Driver/Inc/stm32wbxx_ll_bus.h ****   * @brief  Enable AHB3 peripherals clock.
 726:Drivers/STM32WBxx_HAL_Driver/Inc/stm32wbxx_ll_bus.h ****   * @rmtoll AHB3ENR      QUADSPIEN     LL_AHB3_GRP1_EnableClock\n
 727:Drivers/STM32WBxx_HAL_Driver/Inc/stm32wbxx_ll_bus.h ****   *         AHB3ENR      PKAEN         LL_AHB3_GRP1_EnableClock\n
 728:Drivers/STM32WBxx_HAL_Driver/Inc/stm32wbxx_ll_bus.h ****   *         AHB3ENR      AES2EN        LL_AHB3_GRP1_EnableClock\n
 729:Drivers/STM32WBxx_HAL_Driver/Inc/stm32wbxx_ll_bus.h ****   *         AHB3ENR      RNGEN         LL_AHB3_GRP1_EnableClock\n
 730:Drivers/STM32WBxx_HAL_Driver/Inc/stm32wbxx_ll_bus.h ****   *         AHB3ENR      HSEMEN        LL_AHB3_GRP1_EnableClock\n
 731:Drivers/STM32WBxx_HAL_Driver/Inc/stm32wbxx_ll_bus.h ****   *         AHB3ENR      IPCCEN        LL_AHB3_GRP1_EnableClock\n
 732:Drivers/STM32WBxx_HAL_Driver/Inc/stm32wbxx_ll_bus.h ****   *         AHB3ENR      FLASHEN       LL_AHB3_GRP1_EnableClock
 733:Drivers/STM32WBxx_HAL_Driver/Inc/stm32wbxx_ll_bus.h ****   * @param  Periphs This parameter can be a combination of the following values:
 734:Drivers/STM32WBxx_HAL_Driver/Inc/stm32wbxx_ll_bus.h ****   *         @arg @ref LL_AHB3_GRP1_PERIPH_QUADSPI (*)
 735:Drivers/STM32WBxx_HAL_Driver/Inc/stm32wbxx_ll_bus.h ****   *         @arg @ref LL_AHB3_GRP1_PERIPH_PKA
 736:Drivers/STM32WBxx_HAL_Driver/Inc/stm32wbxx_ll_bus.h ****   *         @arg @ref LL_AHB3_GRP1_PERIPH_AES2
 737:Drivers/STM32WBxx_HAL_Driver/Inc/stm32wbxx_ll_bus.h ****   *         @arg @ref LL_AHB3_GRP1_PERIPH_RNG
 738:Drivers/STM32WBxx_HAL_Driver/Inc/stm32wbxx_ll_bus.h ****   *         @arg @ref LL_AHB3_GRP1_PERIPH_HSEM
 739:Drivers/STM32WBxx_HAL_Driver/Inc/stm32wbxx_ll_bus.h ****   *         @arg @ref LL_AHB3_GRP1_PERIPH_IPCC
 740:Drivers/STM32WBxx_HAL_Driver/Inc/stm32wbxx_ll_bus.h ****   *         @arg @ref LL_AHB3_GRP1_PERIPH_FLASH
ARM GAS  C:\Users\bku598\AppData\Local\Temp\ccpE5VlW.s 			page 32


 741:Drivers/STM32WBxx_HAL_Driver/Inc/stm32wbxx_ll_bus.h ****   * @note  (*) Not supported by all the devices
 742:Drivers/STM32WBxx_HAL_Driver/Inc/stm32wbxx_ll_bus.h ****   * @retval None
 743:Drivers/STM32WBxx_HAL_Driver/Inc/stm32wbxx_ll_bus.h ****   */
 744:Drivers/STM32WBxx_HAL_Driver/Inc/stm32wbxx_ll_bus.h **** __STATIC_INLINE void LL_AHB3_GRP1_EnableClock(uint32_t Periphs)
 745:Drivers/STM32WBxx_HAL_Driver/Inc/stm32wbxx_ll_bus.h **** {
 746:Drivers/STM32WBxx_HAL_Driver/Inc/stm32wbxx_ll_bus.h ****   __IO uint32_t tmpreg;
 747:Drivers/STM32WBxx_HAL_Driver/Inc/stm32wbxx_ll_bus.h ****   SET_BIT(RCC->AHB3ENR, Periphs);
 748:Drivers/STM32WBxx_HAL_Driver/Inc/stm32wbxx_ll_bus.h ****   /* Delay after an RCC peripheral clock enabling */
 749:Drivers/STM32WBxx_HAL_Driver/Inc/stm32wbxx_ll_bus.h ****   tmpreg = READ_BIT(RCC->AHB3ENR, Periphs);
 750:Drivers/STM32WBxx_HAL_Driver/Inc/stm32wbxx_ll_bus.h ****   (void)tmpreg;
 751:Drivers/STM32WBxx_HAL_Driver/Inc/stm32wbxx_ll_bus.h **** }
 752:Drivers/STM32WBxx_HAL_Driver/Inc/stm32wbxx_ll_bus.h **** 
 753:Drivers/STM32WBxx_HAL_Driver/Inc/stm32wbxx_ll_bus.h **** /**
 754:Drivers/STM32WBxx_HAL_Driver/Inc/stm32wbxx_ll_bus.h ****   * @brief  Check if AHB3 peripheral clock is enabled or not
 755:Drivers/STM32WBxx_HAL_Driver/Inc/stm32wbxx_ll_bus.h ****   * @rmtoll AHB3ENR      QUADSPIEN     LL_AHB3_GRP1_IsEnabledClock\n
 756:Drivers/STM32WBxx_HAL_Driver/Inc/stm32wbxx_ll_bus.h ****   *         AHB3ENR      PKAEN         LL_AHB3_GRP1_IsEnabledClock\n
 757:Drivers/STM32WBxx_HAL_Driver/Inc/stm32wbxx_ll_bus.h ****   *         AHB3ENR      AES2EN        LL_AHB3_GRP1_IsEnabledClock\n
 758:Drivers/STM32WBxx_HAL_Driver/Inc/stm32wbxx_ll_bus.h ****   *         AHB3ENR      RNGEN         LL_AHB3_GRP1_IsEnabledClock\n
 759:Drivers/STM32WBxx_HAL_Driver/Inc/stm32wbxx_ll_bus.h ****   *         AHB3ENR      HSEMEN        LL_AHB3_GRP1_IsEnabledClock\n
 760:Drivers/STM32WBxx_HAL_Driver/Inc/stm32wbxx_ll_bus.h ****   *         AHB3ENR      IPCCEN        LL_AHB3_GRP1_IsEnabledClock\n
 761:Drivers/STM32WBxx_HAL_Driver/Inc/stm32wbxx_ll_bus.h ****   *         AHB3ENR      FLASHEN       LL_AHB3_GRP1_IsEnabledClock
 762:Drivers/STM32WBxx_HAL_Driver/Inc/stm32wbxx_ll_bus.h ****   * @param  Periphs This parameter can be a combination of the following values:
 763:Drivers/STM32WBxx_HAL_Driver/Inc/stm32wbxx_ll_bus.h ****   *         @arg @ref LL_AHB3_GRP1_PERIPH_QUADSPI (*)
 764:Drivers/STM32WBxx_HAL_Driver/Inc/stm32wbxx_ll_bus.h ****   *         @arg @ref LL_AHB3_GRP1_PERIPH_PKA
 765:Drivers/STM32WBxx_HAL_Driver/Inc/stm32wbxx_ll_bus.h ****   *         @arg @ref LL_AHB3_GRP1_PERIPH_AES2
 766:Drivers/STM32WBxx_HAL_Driver/Inc/stm32wbxx_ll_bus.h ****   *         @arg @ref LL_AHB3_GRP1_PERIPH_RNG
 767:Drivers/STM32WBxx_HAL_Driver/Inc/stm32wbxx_ll_bus.h ****   *         @arg @ref LL_AHB3_GRP1_PERIPH_HSEM
 768:Drivers/STM32WBxx_HAL_Driver/Inc/stm32wbxx_ll_bus.h ****   *         @arg @ref LL_AHB3_GRP1_PERIPH_IPCC
 769:Drivers/STM32WBxx_HAL_Driver/Inc/stm32wbxx_ll_bus.h ****   *         @arg @ref LL_AHB3_GRP1_PERIPH_FLASH
 770:Drivers/STM32WBxx_HAL_Driver/Inc/stm32wbxx_ll_bus.h ****   * @note  (*) Not supported by all the devices
 771:Drivers/STM32WBxx_HAL_Driver/Inc/stm32wbxx_ll_bus.h ****   * @retval uint32_t
 772:Drivers/STM32WBxx_HAL_Driver/Inc/stm32wbxx_ll_bus.h ****   */
 773:Drivers/STM32WBxx_HAL_Driver/Inc/stm32wbxx_ll_bus.h **** __STATIC_INLINE uint32_t LL_AHB3_GRP1_IsEnabledClock(uint32_t Periphs)
 774:Drivers/STM32WBxx_HAL_Driver/Inc/stm32wbxx_ll_bus.h **** {
 775:Drivers/STM32WBxx_HAL_Driver/Inc/stm32wbxx_ll_bus.h ****   return ((READ_BIT(RCC->AHB3ENR, Periphs) == (Periphs)) ? 1UL : 0UL);
 776:Drivers/STM32WBxx_HAL_Driver/Inc/stm32wbxx_ll_bus.h **** }
 777:Drivers/STM32WBxx_HAL_Driver/Inc/stm32wbxx_ll_bus.h **** 
 778:Drivers/STM32WBxx_HAL_Driver/Inc/stm32wbxx_ll_bus.h **** /**
 779:Drivers/STM32WBxx_HAL_Driver/Inc/stm32wbxx_ll_bus.h ****   * @brief  Disable AHB3 peripherals clock.
 780:Drivers/STM32WBxx_HAL_Driver/Inc/stm32wbxx_ll_bus.h ****   * @rmtoll AHB3ENR      QUADSPIEN     LL_AHB3_GRP1_DisableClock\n
 781:Drivers/STM32WBxx_HAL_Driver/Inc/stm32wbxx_ll_bus.h ****   *         AHB3ENR      PKAEN         LL_AHB3_GRP1_DisableClock\n
 782:Drivers/STM32WBxx_HAL_Driver/Inc/stm32wbxx_ll_bus.h ****   *         AHB3ENR      AES2EN        LL_AHB3_GRP1_DisableClock\n
 783:Drivers/STM32WBxx_HAL_Driver/Inc/stm32wbxx_ll_bus.h ****   *         AHB3ENR      RNGEN         LL_AHB3_GRP1_DisableClock\n
 784:Drivers/STM32WBxx_HAL_Driver/Inc/stm32wbxx_ll_bus.h ****   *         AHB3ENR      HSEMEN        LL_AHB3_GRP1_DisableClock\n
 785:Drivers/STM32WBxx_HAL_Driver/Inc/stm32wbxx_ll_bus.h ****   *         AHB3ENR      IPCCEN        LL_AHB3_GRP1_DisableClock\n
 786:Drivers/STM32WBxx_HAL_Driver/Inc/stm32wbxx_ll_bus.h ****   *         AHB3ENR      FLASHEN       LL_AHB3_GRP1_DisableClock
 787:Drivers/STM32WBxx_HAL_Driver/Inc/stm32wbxx_ll_bus.h ****   * @param  Periphs This parameter can be a combination of the following values:
 788:Drivers/STM32WBxx_HAL_Driver/Inc/stm32wbxx_ll_bus.h ****   *         @arg @ref LL_AHB3_GRP1_PERIPH_QUADSPI (*)
 789:Drivers/STM32WBxx_HAL_Driver/Inc/stm32wbxx_ll_bus.h ****   *         @arg @ref LL_AHB3_GRP1_PERIPH_PKA
 790:Drivers/STM32WBxx_HAL_Driver/Inc/stm32wbxx_ll_bus.h ****   *         @arg @ref LL_AHB3_GRP1_PERIPH_AES2
 791:Drivers/STM32WBxx_HAL_Driver/Inc/stm32wbxx_ll_bus.h ****   *         @arg @ref LL_AHB3_GRP1_PERIPH_RNG
 792:Drivers/STM32WBxx_HAL_Driver/Inc/stm32wbxx_ll_bus.h ****   *         @arg @ref LL_AHB3_GRP1_PERIPH_HSEM
 793:Drivers/STM32WBxx_HAL_Driver/Inc/stm32wbxx_ll_bus.h ****   *         @arg @ref LL_AHB3_GRP1_PERIPH_IPCC
 794:Drivers/STM32WBxx_HAL_Driver/Inc/stm32wbxx_ll_bus.h ****   *         @arg @ref LL_AHB3_GRP1_PERIPH_FLASH
 795:Drivers/STM32WBxx_HAL_Driver/Inc/stm32wbxx_ll_bus.h ****   * @note  (*) Not supported by all the devices
 796:Drivers/STM32WBxx_HAL_Driver/Inc/stm32wbxx_ll_bus.h ****   * @retval None
 797:Drivers/STM32WBxx_HAL_Driver/Inc/stm32wbxx_ll_bus.h ****   */
ARM GAS  C:\Users\bku598\AppData\Local\Temp\ccpE5VlW.s 			page 33


 798:Drivers/STM32WBxx_HAL_Driver/Inc/stm32wbxx_ll_bus.h **** __STATIC_INLINE void LL_AHB3_GRP1_DisableClock(uint32_t Periphs)
 799:Drivers/STM32WBxx_HAL_Driver/Inc/stm32wbxx_ll_bus.h **** {
 800:Drivers/STM32WBxx_HAL_Driver/Inc/stm32wbxx_ll_bus.h ****   CLEAR_BIT(RCC->AHB3ENR, Periphs);
 801:Drivers/STM32WBxx_HAL_Driver/Inc/stm32wbxx_ll_bus.h **** }
 802:Drivers/STM32WBxx_HAL_Driver/Inc/stm32wbxx_ll_bus.h **** 
 803:Drivers/STM32WBxx_HAL_Driver/Inc/stm32wbxx_ll_bus.h **** /**
 804:Drivers/STM32WBxx_HAL_Driver/Inc/stm32wbxx_ll_bus.h ****   * @brief  Force AHB3 peripherals reset.
 805:Drivers/STM32WBxx_HAL_Driver/Inc/stm32wbxx_ll_bus.h ****   * @rmtoll AHB3RSTR     QUADSPIRST       LL_AHB3_GRP1_ForceReset\n
 806:Drivers/STM32WBxx_HAL_Driver/Inc/stm32wbxx_ll_bus.h ****   *         AHB3RSTR     PKARST        LL_AHB3_GRP1_ForceReset\n
 807:Drivers/STM32WBxx_HAL_Driver/Inc/stm32wbxx_ll_bus.h ****   *         AHB3RSTR     AES2RST       LL_AHB3_GRP1_ForceReset\n
 808:Drivers/STM32WBxx_HAL_Driver/Inc/stm32wbxx_ll_bus.h ****   *         AHB3RSTR     RNGRST        LL_AHB3_GRP1_ForceReset\n
 809:Drivers/STM32WBxx_HAL_Driver/Inc/stm32wbxx_ll_bus.h ****   *         AHB3RSTR     HSEMRST       LL_AHB3_GRP1_ForceReset\n
 810:Drivers/STM32WBxx_HAL_Driver/Inc/stm32wbxx_ll_bus.h ****   *         AHB3RSTR     IPCCRST       LL_AHB3_GRP1_ForceReset\n
 811:Drivers/STM32WBxx_HAL_Driver/Inc/stm32wbxx_ll_bus.h ****   *         AHB3RSTR     FLASHRST      LL_AHB3_GRP1_ForceReset
 812:Drivers/STM32WBxx_HAL_Driver/Inc/stm32wbxx_ll_bus.h ****   * @param  Periphs This parameter can be a combination of the following values:
 813:Drivers/STM32WBxx_HAL_Driver/Inc/stm32wbxx_ll_bus.h ****   *         @arg @ref LL_AHB3_GRP1_PERIPH_ALL
 814:Drivers/STM32WBxx_HAL_Driver/Inc/stm32wbxx_ll_bus.h ****   *         @arg @ref LL_AHB3_GRP1_PERIPH_QUADSPI (*)
 815:Drivers/STM32WBxx_HAL_Driver/Inc/stm32wbxx_ll_bus.h ****   *         @arg @ref LL_AHB3_GRP1_PERIPH_PKA
 816:Drivers/STM32WBxx_HAL_Driver/Inc/stm32wbxx_ll_bus.h ****   *         @arg @ref LL_AHB3_GRP1_PERIPH_AES2
 817:Drivers/STM32WBxx_HAL_Driver/Inc/stm32wbxx_ll_bus.h ****   *         @arg @ref LL_AHB3_GRP1_PERIPH_RNG
 818:Drivers/STM32WBxx_HAL_Driver/Inc/stm32wbxx_ll_bus.h ****   *         @arg @ref LL_AHB3_GRP1_PERIPH_HSEM
 819:Drivers/STM32WBxx_HAL_Driver/Inc/stm32wbxx_ll_bus.h ****   *         @arg @ref LL_AHB3_GRP1_PERIPH_IPCC
 820:Drivers/STM32WBxx_HAL_Driver/Inc/stm32wbxx_ll_bus.h ****   *         @arg @ref LL_AHB3_GRP1_PERIPH_FLASH
 821:Drivers/STM32WBxx_HAL_Driver/Inc/stm32wbxx_ll_bus.h ****   * @note  (*) Not supported by all the devices
 822:Drivers/STM32WBxx_HAL_Driver/Inc/stm32wbxx_ll_bus.h ****   * @retval None
 823:Drivers/STM32WBxx_HAL_Driver/Inc/stm32wbxx_ll_bus.h ****   */
 824:Drivers/STM32WBxx_HAL_Driver/Inc/stm32wbxx_ll_bus.h **** __STATIC_INLINE void LL_AHB3_GRP1_ForceReset(uint32_t Periphs)
 825:Drivers/STM32WBxx_HAL_Driver/Inc/stm32wbxx_ll_bus.h **** {
 826:Drivers/STM32WBxx_HAL_Driver/Inc/stm32wbxx_ll_bus.h ****   SET_BIT(RCC->AHB3RSTR, Periphs);
 827:Drivers/STM32WBxx_HAL_Driver/Inc/stm32wbxx_ll_bus.h **** }
 828:Drivers/STM32WBxx_HAL_Driver/Inc/stm32wbxx_ll_bus.h **** 
 829:Drivers/STM32WBxx_HAL_Driver/Inc/stm32wbxx_ll_bus.h **** /**
 830:Drivers/STM32WBxx_HAL_Driver/Inc/stm32wbxx_ll_bus.h ****   * @brief  Release AHB3 peripherals reset.
 831:Drivers/STM32WBxx_HAL_Driver/Inc/stm32wbxx_ll_bus.h ****   * @rmtoll AHB3RSTR     QUADSPIRST    LL_AHB3_GRP1_ReleaseReset\n
 832:Drivers/STM32WBxx_HAL_Driver/Inc/stm32wbxx_ll_bus.h ****   *         AHB3RSTR     PKARST        LL_AHB3_GRP1_ReleaseReset\n
 833:Drivers/STM32WBxx_HAL_Driver/Inc/stm32wbxx_ll_bus.h ****   *         AHB3RSTR     AES2RST       LL_AHB3_GRP1_ReleaseReset\n
 834:Drivers/STM32WBxx_HAL_Driver/Inc/stm32wbxx_ll_bus.h ****   *         AHB3RSTR     RNGRST        LL_AHB3_GRP1_ReleaseReset\n
 835:Drivers/STM32WBxx_HAL_Driver/Inc/stm32wbxx_ll_bus.h ****   *         AHB3RSTR     HSEMRST       LL_AHB3_GRP1_ReleaseReset\n
 836:Drivers/STM32WBxx_HAL_Driver/Inc/stm32wbxx_ll_bus.h ****   *         AHB3RSTR     IPCCRST       LL_AHB3_GRP1_ReleaseReset\n
 837:Drivers/STM32WBxx_HAL_Driver/Inc/stm32wbxx_ll_bus.h ****   *         AHB3RSTR     FLASHRST      LL_AHB3_GRP1_ReleaseReset
 838:Drivers/STM32WBxx_HAL_Driver/Inc/stm32wbxx_ll_bus.h ****   * @param  Periphs This parameter can be a combination of the following values:
 839:Drivers/STM32WBxx_HAL_Driver/Inc/stm32wbxx_ll_bus.h ****   *         @arg @ref LL_AHB2_GRP1_PERIPH_ALL
 840:Drivers/STM32WBxx_HAL_Driver/Inc/stm32wbxx_ll_bus.h ****   *         @arg @ref LL_AHB3_GRP1_PERIPH_QUADSPI (*)
 841:Drivers/STM32WBxx_HAL_Driver/Inc/stm32wbxx_ll_bus.h ****   *         @arg @ref LL_AHB3_GRP1_PERIPH_PKA
 842:Drivers/STM32WBxx_HAL_Driver/Inc/stm32wbxx_ll_bus.h ****   *         @arg @ref LL_AHB3_GRP1_PERIPH_AES2
 843:Drivers/STM32WBxx_HAL_Driver/Inc/stm32wbxx_ll_bus.h ****   *         @arg @ref LL_AHB3_GRP1_PERIPH_RNG
 844:Drivers/STM32WBxx_HAL_Driver/Inc/stm32wbxx_ll_bus.h ****   *         @arg @ref LL_AHB3_GRP1_PERIPH_HSEM
 845:Drivers/STM32WBxx_HAL_Driver/Inc/stm32wbxx_ll_bus.h ****   *         @arg @ref LL_AHB3_GRP1_PERIPH_IPCC
 846:Drivers/STM32WBxx_HAL_Driver/Inc/stm32wbxx_ll_bus.h ****   *         @arg @ref LL_AHB3_GRP1_PERIPH_FLASH
 847:Drivers/STM32WBxx_HAL_Driver/Inc/stm32wbxx_ll_bus.h ****   * @note  (*) Not supported by all the devices
 848:Drivers/STM32WBxx_HAL_Driver/Inc/stm32wbxx_ll_bus.h ****   * @retval None
 849:Drivers/STM32WBxx_HAL_Driver/Inc/stm32wbxx_ll_bus.h ****   */
 850:Drivers/STM32WBxx_HAL_Driver/Inc/stm32wbxx_ll_bus.h **** __STATIC_INLINE void LL_AHB3_GRP1_ReleaseReset(uint32_t Periphs)
 851:Drivers/STM32WBxx_HAL_Driver/Inc/stm32wbxx_ll_bus.h **** {
 852:Drivers/STM32WBxx_HAL_Driver/Inc/stm32wbxx_ll_bus.h ****   CLEAR_BIT(RCC->AHB3RSTR, Periphs);
 853:Drivers/STM32WBxx_HAL_Driver/Inc/stm32wbxx_ll_bus.h **** }
 854:Drivers/STM32WBxx_HAL_Driver/Inc/stm32wbxx_ll_bus.h **** 
ARM GAS  C:\Users\bku598\AppData\Local\Temp\ccpE5VlW.s 			page 34


 855:Drivers/STM32WBxx_HAL_Driver/Inc/stm32wbxx_ll_bus.h **** /**
 856:Drivers/STM32WBxx_HAL_Driver/Inc/stm32wbxx_ll_bus.h ****   * @brief  Enable AHB3 peripherals clock during Low Power (Sleep) mode.
 857:Drivers/STM32WBxx_HAL_Driver/Inc/stm32wbxx_ll_bus.h ****   * @rmtoll AHB3SMENR    QUADSPISMEN   LL_AHB3_GRP1_EnableClockSleep\n
 858:Drivers/STM32WBxx_HAL_Driver/Inc/stm32wbxx_ll_bus.h ****   *         AHB3SMENR    PKASMEN       LL_AHB3_GRP1_EnableClockSleep\n
 859:Drivers/STM32WBxx_HAL_Driver/Inc/stm32wbxx_ll_bus.h ****   *         AHB3SMENR    AES2SMEN      LL_AHB3_GRP1_EnableClockSleep\n
 860:Drivers/STM32WBxx_HAL_Driver/Inc/stm32wbxx_ll_bus.h ****   *         AHB3SMENR    RNGSMEN       LL_AHB3_GRP1_EnableClockSleep\n
 861:Drivers/STM32WBxx_HAL_Driver/Inc/stm32wbxx_ll_bus.h ****   *         AHB3SMENR    SRAM2SMEN     LL_AHB3_GRP1_EnableClockSleep\n
 862:Drivers/STM32WBxx_HAL_Driver/Inc/stm32wbxx_ll_bus.h ****   *         AHB3SMENR    FLASHSMEN     LL_AHB3_GRP1_EnableClockSleep
 863:Drivers/STM32WBxx_HAL_Driver/Inc/stm32wbxx_ll_bus.h ****   * @param  Periphs This parameter can be a combination of the following values:
 864:Drivers/STM32WBxx_HAL_Driver/Inc/stm32wbxx_ll_bus.h ****   *         @arg @ref LL_AHB3_GRP1_PERIPH_QUADSPI (*)
 865:Drivers/STM32WBxx_HAL_Driver/Inc/stm32wbxx_ll_bus.h ****   *         @arg @ref LL_AHB3_GRP1_PERIPH_PKA
 866:Drivers/STM32WBxx_HAL_Driver/Inc/stm32wbxx_ll_bus.h ****   *         @arg @ref LL_AHB3_GRP1_PERIPH_AES2
 867:Drivers/STM32WBxx_HAL_Driver/Inc/stm32wbxx_ll_bus.h ****   *         @arg @ref LL_AHB3_GRP1_PERIPH_RNG
 868:Drivers/STM32WBxx_HAL_Driver/Inc/stm32wbxx_ll_bus.h ****   *         @arg @ref LL_AHB3_GRP1_PERIPH_SRAM2
 869:Drivers/STM32WBxx_HAL_Driver/Inc/stm32wbxx_ll_bus.h ****   * @note  (*) Not supported by all the devices
 870:Drivers/STM32WBxx_HAL_Driver/Inc/stm32wbxx_ll_bus.h ****   *         @arg @ref LL_AHB3_GRP1_PERIPH_FLASH
 871:Drivers/STM32WBxx_HAL_Driver/Inc/stm32wbxx_ll_bus.h ****   * @retval None
 872:Drivers/STM32WBxx_HAL_Driver/Inc/stm32wbxx_ll_bus.h ****   */
 873:Drivers/STM32WBxx_HAL_Driver/Inc/stm32wbxx_ll_bus.h **** __STATIC_INLINE void LL_AHB3_GRP1_EnableClockSleep(uint32_t Periphs)
 874:Drivers/STM32WBxx_HAL_Driver/Inc/stm32wbxx_ll_bus.h **** {
 875:Drivers/STM32WBxx_HAL_Driver/Inc/stm32wbxx_ll_bus.h ****   __IO uint32_t tmpreg;
 876:Drivers/STM32WBxx_HAL_Driver/Inc/stm32wbxx_ll_bus.h ****   SET_BIT(RCC->AHB3SMENR, Periphs);
 877:Drivers/STM32WBxx_HAL_Driver/Inc/stm32wbxx_ll_bus.h ****   /* Delay after an RCC peripheral clock enabling */
 878:Drivers/STM32WBxx_HAL_Driver/Inc/stm32wbxx_ll_bus.h ****   tmpreg = READ_BIT(RCC->AHB3SMENR, Periphs);
 879:Drivers/STM32WBxx_HAL_Driver/Inc/stm32wbxx_ll_bus.h ****   (void)tmpreg;
 880:Drivers/STM32WBxx_HAL_Driver/Inc/stm32wbxx_ll_bus.h **** }
 881:Drivers/STM32WBxx_HAL_Driver/Inc/stm32wbxx_ll_bus.h **** 
 882:Drivers/STM32WBxx_HAL_Driver/Inc/stm32wbxx_ll_bus.h **** /**
 883:Drivers/STM32WBxx_HAL_Driver/Inc/stm32wbxx_ll_bus.h ****   * @brief  Disable AHB3 peripherals clock during Low Power (Sleep) mode.
 884:Drivers/STM32WBxx_HAL_Driver/Inc/stm32wbxx_ll_bus.h ****   * @rmtoll AHB3SMENR    QUADSPISMEN   LL_AHB3_GRP1_DisableClockSleep\n
 885:Drivers/STM32WBxx_HAL_Driver/Inc/stm32wbxx_ll_bus.h ****   *         AHB3SMENR    PKASMEN       LL_AHB3_GRP1_DisableClockSleep\n
 886:Drivers/STM32WBxx_HAL_Driver/Inc/stm32wbxx_ll_bus.h ****   *         AHB3SMENR    AES2SMEN      LL_AHB3_GRP1_DisableClockSleep\n
 887:Drivers/STM32WBxx_HAL_Driver/Inc/stm32wbxx_ll_bus.h ****   *         AHB3SMENR    RNGSMEN       LL_AHB3_GRP1_DisableClockSleep\n
 888:Drivers/STM32WBxx_HAL_Driver/Inc/stm32wbxx_ll_bus.h ****   *         AHB3SMENR    SRAM2SMEN     LL_AHB3_GRP1_DisableClockSleep\n
 889:Drivers/STM32WBxx_HAL_Driver/Inc/stm32wbxx_ll_bus.h ****   *         AHB3SMENR    FLASHSMEN     LL_AHB3_GRP1_DisableClockSleep
 890:Drivers/STM32WBxx_HAL_Driver/Inc/stm32wbxx_ll_bus.h ****   * @param  Periphs This parameter can be a combination of the following values:
 891:Drivers/STM32WBxx_HAL_Driver/Inc/stm32wbxx_ll_bus.h ****   *         @arg @ref LL_AHB3_GRP1_PERIPH_QUADSPI (*)
 892:Drivers/STM32WBxx_HAL_Driver/Inc/stm32wbxx_ll_bus.h ****   *         @arg @ref LL_AHB3_GRP1_PERIPH_PKA
 893:Drivers/STM32WBxx_HAL_Driver/Inc/stm32wbxx_ll_bus.h ****   *         @arg @ref LL_AHB3_GRP1_PERIPH_AES2
 894:Drivers/STM32WBxx_HAL_Driver/Inc/stm32wbxx_ll_bus.h ****   *         @arg @ref LL_AHB3_GRP1_PERIPH_RNG
 895:Drivers/STM32WBxx_HAL_Driver/Inc/stm32wbxx_ll_bus.h ****   *         @arg @ref LL_AHB3_GRP1_PERIPH_SRAM2
 896:Drivers/STM32WBxx_HAL_Driver/Inc/stm32wbxx_ll_bus.h ****   *         @arg @ref LL_AHB3_GRP1_PERIPH_FLASH
 897:Drivers/STM32WBxx_HAL_Driver/Inc/stm32wbxx_ll_bus.h ****   * @note  (*) Not supported by all the devices
 898:Drivers/STM32WBxx_HAL_Driver/Inc/stm32wbxx_ll_bus.h ****   * @retval None
 899:Drivers/STM32WBxx_HAL_Driver/Inc/stm32wbxx_ll_bus.h ****   */
 900:Drivers/STM32WBxx_HAL_Driver/Inc/stm32wbxx_ll_bus.h **** __STATIC_INLINE void LL_AHB3_GRP1_DisableClockSleep(uint32_t Periphs)
 901:Drivers/STM32WBxx_HAL_Driver/Inc/stm32wbxx_ll_bus.h **** {
 902:Drivers/STM32WBxx_HAL_Driver/Inc/stm32wbxx_ll_bus.h ****   CLEAR_BIT(RCC->AHB3SMENR, Periphs);
 903:Drivers/STM32WBxx_HAL_Driver/Inc/stm32wbxx_ll_bus.h **** }
 904:Drivers/STM32WBxx_HAL_Driver/Inc/stm32wbxx_ll_bus.h **** 
 905:Drivers/STM32WBxx_HAL_Driver/Inc/stm32wbxx_ll_bus.h **** /**
 906:Drivers/STM32WBxx_HAL_Driver/Inc/stm32wbxx_ll_bus.h ****   * @}
 907:Drivers/STM32WBxx_HAL_Driver/Inc/stm32wbxx_ll_bus.h ****   */
 908:Drivers/STM32WBxx_HAL_Driver/Inc/stm32wbxx_ll_bus.h **** 
 909:Drivers/STM32WBxx_HAL_Driver/Inc/stm32wbxx_ll_bus.h **** /** @defgroup BUS_LL_EF_APB1 APB1
 910:Drivers/STM32WBxx_HAL_Driver/Inc/stm32wbxx_ll_bus.h ****   * @{
 911:Drivers/STM32WBxx_HAL_Driver/Inc/stm32wbxx_ll_bus.h ****   */
ARM GAS  C:\Users\bku598\AppData\Local\Temp\ccpE5VlW.s 			page 35


 912:Drivers/STM32WBxx_HAL_Driver/Inc/stm32wbxx_ll_bus.h **** 
 913:Drivers/STM32WBxx_HAL_Driver/Inc/stm32wbxx_ll_bus.h **** /**
 914:Drivers/STM32WBxx_HAL_Driver/Inc/stm32wbxx_ll_bus.h ****   * @brief  Enable APB1 peripherals clock.
 915:Drivers/STM32WBxx_HAL_Driver/Inc/stm32wbxx_ll_bus.h ****   * @rmtoll APB1ENR1     TIM2EN        LL_APB1_GRP1_EnableClock\n
 916:Drivers/STM32WBxx_HAL_Driver/Inc/stm32wbxx_ll_bus.h ****   *         APB1ENR1     LCDEN         LL_APB1_GRP1_EnableClock\n
 917:Drivers/STM32WBxx_HAL_Driver/Inc/stm32wbxx_ll_bus.h ****   *         APB1ENR1     RTCAPBEN      LL_APB1_GRP1_EnableClock\n
 918:Drivers/STM32WBxx_HAL_Driver/Inc/stm32wbxx_ll_bus.h ****   *         APB1ENR1     WWDGEN        LL_APB1_GRP1_EnableClock\n
 919:Drivers/STM32WBxx_HAL_Driver/Inc/stm32wbxx_ll_bus.h ****   *         APB1ENR1     SPI2EN        LL_APB1_GRP1_EnableClock\n
 920:Drivers/STM32WBxx_HAL_Driver/Inc/stm32wbxx_ll_bus.h ****   *         APB1ENR1     I2C1EN        LL_APB1_GRP1_EnableClock\n
 921:Drivers/STM32WBxx_HAL_Driver/Inc/stm32wbxx_ll_bus.h ****   *         APB1ENR1     I2C3EN        LL_APB1_GRP1_EnableClock\n
 922:Drivers/STM32WBxx_HAL_Driver/Inc/stm32wbxx_ll_bus.h ****   *         APB1ENR1     CRSEN         LL_APB1_GRP1_EnableClock\n
 923:Drivers/STM32WBxx_HAL_Driver/Inc/stm32wbxx_ll_bus.h ****   *         APB1ENR1     USBEN         LL_APB1_GRP1_EnableClock\n
 924:Drivers/STM32WBxx_HAL_Driver/Inc/stm32wbxx_ll_bus.h ****   *         APB1ENR1     LPTIM1EN      LL_APB1_GRP1_EnableClock
 925:Drivers/STM32WBxx_HAL_Driver/Inc/stm32wbxx_ll_bus.h ****   * @param  Periphs This parameter can be a combination of the following values:
 926:Drivers/STM32WBxx_HAL_Driver/Inc/stm32wbxx_ll_bus.h ****   *         @arg @ref LL_APB1_GRP1_PERIPH_TIM2
 927:Drivers/STM32WBxx_HAL_Driver/Inc/stm32wbxx_ll_bus.h ****   *         @arg @ref LL_APB1_GRP1_PERIPH_LCD (*)
 928:Drivers/STM32WBxx_HAL_Driver/Inc/stm32wbxx_ll_bus.h ****   *         @arg @ref LL_APB1_GRP1_PERIPH_RTCAPB
 929:Drivers/STM32WBxx_HAL_Driver/Inc/stm32wbxx_ll_bus.h ****   *         @arg @ref LL_APB1_GRP1_PERIPH_WWDG
 930:Drivers/STM32WBxx_HAL_Driver/Inc/stm32wbxx_ll_bus.h ****   *         @arg @ref LL_APB1_GRP1_PERIPH_SPI2 (*)
 931:Drivers/STM32WBxx_HAL_Driver/Inc/stm32wbxx_ll_bus.h ****   *         @arg @ref LL_APB1_GRP1_PERIPH_I2C1
 932:Drivers/STM32WBxx_HAL_Driver/Inc/stm32wbxx_ll_bus.h ****   *         @arg @ref LL_APB1_GRP1_PERIPH_I2C3 (*)
 933:Drivers/STM32WBxx_HAL_Driver/Inc/stm32wbxx_ll_bus.h ****   *         @arg @ref LL_APB1_GRP1_PERIPH_CRS (*)
 934:Drivers/STM32WBxx_HAL_Driver/Inc/stm32wbxx_ll_bus.h ****   *         @arg @ref LL_APB1_GRP1_PERIPH_USB (*)
 935:Drivers/STM32WBxx_HAL_Driver/Inc/stm32wbxx_ll_bus.h ****   *         @arg @ref LL_APB1_GRP1_PERIPH_LPTIM1
 936:Drivers/STM32WBxx_HAL_Driver/Inc/stm32wbxx_ll_bus.h ****   * @note  (*) Not supported by all the devices
 937:Drivers/STM32WBxx_HAL_Driver/Inc/stm32wbxx_ll_bus.h ****   * @retval None
 938:Drivers/STM32WBxx_HAL_Driver/Inc/stm32wbxx_ll_bus.h ****   */
 939:Drivers/STM32WBxx_HAL_Driver/Inc/stm32wbxx_ll_bus.h **** __STATIC_INLINE void LL_APB1_GRP1_EnableClock(uint32_t Periphs)
 219              		.loc 2 939 22 view .LVU52
 220              	.LBB11:
 940:Drivers/STM32WBxx_HAL_Driver/Inc/stm32wbxx_ll_bus.h **** {
 941:Drivers/STM32WBxx_HAL_Driver/Inc/stm32wbxx_ll_bus.h ****   __IO uint32_t tmpreg;
 221              		.loc 2 941 3 view .LVU53
 942:Drivers/STM32WBxx_HAL_Driver/Inc/stm32wbxx_ll_bus.h ****   SET_BIT(RCC->APB1ENR1, Periphs);
 222              		.loc 2 942 3 view .LVU54
 223 0068 A36D     		ldr	r3, [r4, #88]
 224 006a 43F08063 		orr	r3, r3, #67108864
 225 006e A365     		str	r3, [r4, #88]
 943:Drivers/STM32WBxx_HAL_Driver/Inc/stm32wbxx_ll_bus.h ****   /* Delay after an RCC peripheral clock enabling */
 944:Drivers/STM32WBxx_HAL_Driver/Inc/stm32wbxx_ll_bus.h ****   tmpreg = READ_BIT(RCC->APB1ENR1, Periphs);
 226              		.loc 2 944 3 view .LVU55
 227              		.loc 2 944 12 is_stmt 0 view .LVU56
 228 0070 A36D     		ldr	r3, [r4, #88]
 229 0072 03F08063 		and	r3, r3, #67108864
 230              		.loc 2 944 10 view .LVU57
 231 0076 0193     		str	r3, [sp, #4]
 945:Drivers/STM32WBxx_HAL_Driver/Inc/stm32wbxx_ll_bus.h ****   (void)tmpreg;
 232              		.loc 2 945 3 is_stmt 1 view .LVU58
 233 0078 019B     		ldr	r3, [sp, #4]
 234              	.LVL16:
 235              		.loc 2 945 3 is_stmt 0 view .LVU59
 236              	.LBE11:
 237              	.LBE10:
 109:USB_Device/Target/usbd_conf.c ****     HAL_NVIC_EnableIRQ(USB_LP_IRQn);
 238              		.loc 1 109 5 is_stmt 1 view .LVU60
 239 007a 2A46     		mov	r2, r5
 240 007c 2946     		mov	r1, r5
ARM GAS  C:\Users\bku598\AppData\Local\Temp\ccpE5VlW.s 			page 36


 241 007e 1420     		movs	r0, #20
 242 0080 FFF7FEFF 		bl	HAL_NVIC_SetPriority
 243              	.LVL17:
 110:USB_Device/Target/usbd_conf.c ****   /* USER CODE BEGIN USB_MspInit 1 */
 244              		.loc 1 110 5 view .LVU61
 245 0084 1420     		movs	r0, #20
 246 0086 FFF7FEFF 		bl	HAL_NVIC_EnableIRQ
 247              	.LVL18:
 115:USB_Device/Target/usbd_conf.c **** 
 248              		.loc 1 115 1 is_stmt 0 view .LVU62
 249 008a CAE7     		b	.L10
 250              	.LVL19:
 251              	.L15:
  90:USB_Device/Target/usbd_conf.c ****     }
 252              		.loc 1 90 7 is_stmt 1 view .LVU63
 253 008c FFF7FEFF 		bl	Error_Handler
 254              	.LVL20:
 255 0090 D0E7     		b	.L12
 256              	.L17:
 257 0092 00BF     		.align	2
 258              	.L16:
 259 0094 00680040 		.word	1073768448
 260              		.cfi_endproc
 261              	.LFE1416:
 263              		.section	.text.HAL_PCD_MspDeInit,"ax",%progbits
 264              		.align	1
 265              		.global	HAL_PCD_MspDeInit
 266              		.syntax unified
 267              		.thumb
 268              		.thumb_func
 270              	HAL_PCD_MspDeInit:
 271              	.LVL21:
 272              	.LFB1417:
 122:USB_Device/Target/usbd_conf.c ****   if(pcdHandle->Instance==USB)
 273              		.loc 1 122 1 view -0
 274              		.cfi_startproc
 275              		@ args = 0, pretend = 0, frame = 0
 276              		@ frame_needed = 0, uses_anonymous_args = 0
 122:USB_Device/Target/usbd_conf.c ****   if(pcdHandle->Instance==USB)
 277              		.loc 1 122 1 is_stmt 0 view .LVU65
 278 0000 08B5     		push	{r3, lr}
 279              	.LCFI5:
 280              		.cfi_def_cfa_offset 8
 281              		.cfi_offset 3, -8
 282              		.cfi_offset 14, -4
 123:USB_Device/Target/usbd_conf.c ****   {
 283              		.loc 1 123 3 is_stmt 1 view .LVU66
 123:USB_Device/Target/usbd_conf.c ****   {
 284              		.loc 1 123 15 is_stmt 0 view .LVU67
 285 0002 0268     		ldr	r2, [r0]
 123:USB_Device/Target/usbd_conf.c ****   {
 286              		.loc 1 123 5 view .LVU68
 287 0004 094B     		ldr	r3, .L22
 288 0006 9A42     		cmp	r2, r3
 289 0008 00D0     		beq	.L21
 290              	.LVL22:
 291              	.L18:
ARM GAS  C:\Users\bku598\AppData\Local\Temp\ccpE5VlW.s 			page 37


 144:USB_Device/Target/usbd_conf.c **** 
 292              		.loc 1 144 1 view .LVU69
 293 000a 08BD     		pop	{r3, pc}
 294              	.LVL23:
 295              	.L21:
 129:USB_Device/Target/usbd_conf.c **** 
 296              		.loc 1 129 5 is_stmt 1 view .LVU70
 297              	.LBB12:
 298              	.LBI12:
 946:Drivers/STM32WBxx_HAL_Driver/Inc/stm32wbxx_ll_bus.h **** }
 947:Drivers/STM32WBxx_HAL_Driver/Inc/stm32wbxx_ll_bus.h **** 
 948:Drivers/STM32WBxx_HAL_Driver/Inc/stm32wbxx_ll_bus.h **** /**
 949:Drivers/STM32WBxx_HAL_Driver/Inc/stm32wbxx_ll_bus.h ****   * @brief  Enable APB1 peripherals clock.
 950:Drivers/STM32WBxx_HAL_Driver/Inc/stm32wbxx_ll_bus.h ****   * @rmtoll APB1ENR2     LPUART1EN     LL_APB1_GRP2_EnableClock\n
 951:Drivers/STM32WBxx_HAL_Driver/Inc/stm32wbxx_ll_bus.h ****   *         APB1ENR2     LPTIM2EN      LL_APB1_GRP2_EnableClock
 952:Drivers/STM32WBxx_HAL_Driver/Inc/stm32wbxx_ll_bus.h ****   * @param  Periphs This parameter can be a combination of the following values:
 953:Drivers/STM32WBxx_HAL_Driver/Inc/stm32wbxx_ll_bus.h ****   *         @arg @ref LL_APB1_GRP2_PERIPH_LPUART1 (*)
 954:Drivers/STM32WBxx_HAL_Driver/Inc/stm32wbxx_ll_bus.h ****   *         @arg @ref LL_APB1_GRP2_PERIPH_LPTIM2
 955:Drivers/STM32WBxx_HAL_Driver/Inc/stm32wbxx_ll_bus.h ****   * @note  (*) Not supported by all the devices
 956:Drivers/STM32WBxx_HAL_Driver/Inc/stm32wbxx_ll_bus.h ****   * @retval None
 957:Drivers/STM32WBxx_HAL_Driver/Inc/stm32wbxx_ll_bus.h ****   */
 958:Drivers/STM32WBxx_HAL_Driver/Inc/stm32wbxx_ll_bus.h **** __STATIC_INLINE void LL_APB1_GRP2_EnableClock(uint32_t Periphs)
 959:Drivers/STM32WBxx_HAL_Driver/Inc/stm32wbxx_ll_bus.h **** {
 960:Drivers/STM32WBxx_HAL_Driver/Inc/stm32wbxx_ll_bus.h ****   __IO uint32_t tmpreg;
 961:Drivers/STM32WBxx_HAL_Driver/Inc/stm32wbxx_ll_bus.h ****   SET_BIT(RCC->APB1ENR2, Periphs);
 962:Drivers/STM32WBxx_HAL_Driver/Inc/stm32wbxx_ll_bus.h ****   /* Delay after an RCC peripheral clock enabling */
 963:Drivers/STM32WBxx_HAL_Driver/Inc/stm32wbxx_ll_bus.h ****   tmpreg = READ_BIT(RCC->APB1ENR2, Periphs);
 964:Drivers/STM32WBxx_HAL_Driver/Inc/stm32wbxx_ll_bus.h ****   (void)tmpreg;
 965:Drivers/STM32WBxx_HAL_Driver/Inc/stm32wbxx_ll_bus.h **** }
 966:Drivers/STM32WBxx_HAL_Driver/Inc/stm32wbxx_ll_bus.h **** 
 967:Drivers/STM32WBxx_HAL_Driver/Inc/stm32wbxx_ll_bus.h **** /**
 968:Drivers/STM32WBxx_HAL_Driver/Inc/stm32wbxx_ll_bus.h ****   * @brief  Check if APB1 peripheral clock is enabled or not
 969:Drivers/STM32WBxx_HAL_Driver/Inc/stm32wbxx_ll_bus.h ****   * @rmtoll APB1ENR1     TIM2EN        LL_APB1_GRP1_IsEnabledClock\n
 970:Drivers/STM32WBxx_HAL_Driver/Inc/stm32wbxx_ll_bus.h ****   *         APB1ENR1     LCDEN         LL_APB1_GRP1_IsEnabledClock\n
 971:Drivers/STM32WBxx_HAL_Driver/Inc/stm32wbxx_ll_bus.h ****   *         APB1ENR1     RTCAPBEN      LL_APB1_GRP1_IsEnabledClock\n
 972:Drivers/STM32WBxx_HAL_Driver/Inc/stm32wbxx_ll_bus.h ****   *         APB1ENR1     WWDGEN        LL_APB1_GRP1_IsEnabledClock\n
 973:Drivers/STM32WBxx_HAL_Driver/Inc/stm32wbxx_ll_bus.h ****   *         APB1ENR1     SPI2EN        LL_APB1_GRP1_IsEnabledClock\n
 974:Drivers/STM32WBxx_HAL_Driver/Inc/stm32wbxx_ll_bus.h ****   *         APB1ENR1     I2C1EN        LL_APB1_GRP1_IsEnabledClock\n
 975:Drivers/STM32WBxx_HAL_Driver/Inc/stm32wbxx_ll_bus.h ****   *         APB1ENR1     I2C3EN        LL_APB1_GRP1_IsEnabledClock\n
 976:Drivers/STM32WBxx_HAL_Driver/Inc/stm32wbxx_ll_bus.h ****   *         APB1ENR1     CRSEN         LL_APB1_GRP1_IsEnabledClock\n
 977:Drivers/STM32WBxx_HAL_Driver/Inc/stm32wbxx_ll_bus.h ****   *         APB1ENR1     USBEN         LL_APB1_GRP1_IsEnabledClock\n
 978:Drivers/STM32WBxx_HAL_Driver/Inc/stm32wbxx_ll_bus.h ****   *         APB1ENR1     LPTIM1EN      LL_APB1_GRP1_IsEnabledClock
 979:Drivers/STM32WBxx_HAL_Driver/Inc/stm32wbxx_ll_bus.h ****   * @param  Periphs This parameter can be a combination of the following values:
 980:Drivers/STM32WBxx_HAL_Driver/Inc/stm32wbxx_ll_bus.h ****   *         @arg @ref LL_APB1_GRP1_PERIPH_TIM2
 981:Drivers/STM32WBxx_HAL_Driver/Inc/stm32wbxx_ll_bus.h ****   *         @arg @ref LL_APB1_GRP1_PERIPH_LCD (*)
 982:Drivers/STM32WBxx_HAL_Driver/Inc/stm32wbxx_ll_bus.h ****   *         @arg @ref LL_APB1_GRP1_PERIPH_RTCAPB
 983:Drivers/STM32WBxx_HAL_Driver/Inc/stm32wbxx_ll_bus.h ****   *         @arg @ref LL_APB1_GRP1_PERIPH_WWDG
 984:Drivers/STM32WBxx_HAL_Driver/Inc/stm32wbxx_ll_bus.h ****   *         @arg @ref LL_APB1_GRP1_PERIPH_SPI2 (*)
 985:Drivers/STM32WBxx_HAL_Driver/Inc/stm32wbxx_ll_bus.h ****   *         @arg @ref LL_APB1_GRP1_PERIPH_I2C1
 986:Drivers/STM32WBxx_HAL_Driver/Inc/stm32wbxx_ll_bus.h ****   *         @arg @ref LL_APB1_GRP1_PERIPH_I2C3 (*)
 987:Drivers/STM32WBxx_HAL_Driver/Inc/stm32wbxx_ll_bus.h ****   *         @arg @ref LL_APB1_GRP1_PERIPH_CRS (*)
 988:Drivers/STM32WBxx_HAL_Driver/Inc/stm32wbxx_ll_bus.h ****   *         @arg @ref LL_APB1_GRP1_PERIPH_USB (*)
 989:Drivers/STM32WBxx_HAL_Driver/Inc/stm32wbxx_ll_bus.h ****   *         @arg @ref LL_APB1_GRP1_PERIPH_LPTIM1
 990:Drivers/STM32WBxx_HAL_Driver/Inc/stm32wbxx_ll_bus.h ****   * @note  (*) Not supported by all the devices
 991:Drivers/STM32WBxx_HAL_Driver/Inc/stm32wbxx_ll_bus.h ****   * @retval uint32_t
 992:Drivers/STM32WBxx_HAL_Driver/Inc/stm32wbxx_ll_bus.h ****   */
 993:Drivers/STM32WBxx_HAL_Driver/Inc/stm32wbxx_ll_bus.h **** __STATIC_INLINE uint32_t LL_APB1_GRP1_IsEnabledClock(uint32_t Periphs)
ARM GAS  C:\Users\bku598\AppData\Local\Temp\ccpE5VlW.s 			page 38


 994:Drivers/STM32WBxx_HAL_Driver/Inc/stm32wbxx_ll_bus.h **** {
 995:Drivers/STM32WBxx_HAL_Driver/Inc/stm32wbxx_ll_bus.h ****   return ((READ_BIT(RCC->APB1ENR1, Periphs) == (Periphs)) ? 1UL : 0UL);
 996:Drivers/STM32WBxx_HAL_Driver/Inc/stm32wbxx_ll_bus.h **** }
 997:Drivers/STM32WBxx_HAL_Driver/Inc/stm32wbxx_ll_bus.h **** 
 998:Drivers/STM32WBxx_HAL_Driver/Inc/stm32wbxx_ll_bus.h **** /**
 999:Drivers/STM32WBxx_HAL_Driver/Inc/stm32wbxx_ll_bus.h ****   * @brief  Check if APB1 peripheral clock is enabled or not
1000:Drivers/STM32WBxx_HAL_Driver/Inc/stm32wbxx_ll_bus.h ****   * @rmtoll APB1ENR2     LPUART1EN     LL_APB1_GRP2_IsEnabledClock\n
1001:Drivers/STM32WBxx_HAL_Driver/Inc/stm32wbxx_ll_bus.h ****   *         APB1ENR2     LPTIM2EN      LL_APB1_GRP2_IsEnabledClock
1002:Drivers/STM32WBxx_HAL_Driver/Inc/stm32wbxx_ll_bus.h ****   * @param  Periphs This parameter can be a combination of the following values:
1003:Drivers/STM32WBxx_HAL_Driver/Inc/stm32wbxx_ll_bus.h ****   *         @arg @ref LL_APB1_GRP2_PERIPH_LPUART1 (*)
1004:Drivers/STM32WBxx_HAL_Driver/Inc/stm32wbxx_ll_bus.h ****   *         @arg @ref LL_APB1_GRP2_PERIPH_LPTIM2
1005:Drivers/STM32WBxx_HAL_Driver/Inc/stm32wbxx_ll_bus.h ****   * @note  (*) Not supported by all the devices
1006:Drivers/STM32WBxx_HAL_Driver/Inc/stm32wbxx_ll_bus.h ****   * @retval uint32_t
1007:Drivers/STM32WBxx_HAL_Driver/Inc/stm32wbxx_ll_bus.h ****   */
1008:Drivers/STM32WBxx_HAL_Driver/Inc/stm32wbxx_ll_bus.h **** __STATIC_INLINE uint32_t LL_APB1_GRP2_IsEnabledClock(uint32_t Periphs)
1009:Drivers/STM32WBxx_HAL_Driver/Inc/stm32wbxx_ll_bus.h **** {
1010:Drivers/STM32WBxx_HAL_Driver/Inc/stm32wbxx_ll_bus.h ****   return ((READ_BIT(RCC->APB1ENR2, Periphs) == (Periphs)) ? 1UL : 0UL);
1011:Drivers/STM32WBxx_HAL_Driver/Inc/stm32wbxx_ll_bus.h **** }
1012:Drivers/STM32WBxx_HAL_Driver/Inc/stm32wbxx_ll_bus.h **** 
1013:Drivers/STM32WBxx_HAL_Driver/Inc/stm32wbxx_ll_bus.h **** /**
1014:Drivers/STM32WBxx_HAL_Driver/Inc/stm32wbxx_ll_bus.h ****   * @brief  Disable APB1 peripherals clock.
1015:Drivers/STM32WBxx_HAL_Driver/Inc/stm32wbxx_ll_bus.h ****   * @rmtoll APB1ENR1     TIM2EN        LL_APB1_GRP1_DisableClock\n
1016:Drivers/STM32WBxx_HAL_Driver/Inc/stm32wbxx_ll_bus.h ****   *         APB1ENR1     LCDEN         LL_APB1_GRP1_DisableClock\n
1017:Drivers/STM32WBxx_HAL_Driver/Inc/stm32wbxx_ll_bus.h ****   *         APB1ENR1     RTCAPBEN      LL_APB1_GRP1_DisableClock\n
1018:Drivers/STM32WBxx_HAL_Driver/Inc/stm32wbxx_ll_bus.h ****   *         APB1ENR1     SPI2EN        LL_APB1_GRP1_DisableClock\n
1019:Drivers/STM32WBxx_HAL_Driver/Inc/stm32wbxx_ll_bus.h ****   *         APB1ENR1     I2C1EN        LL_APB1_GRP1_DisableClock\n
1020:Drivers/STM32WBxx_HAL_Driver/Inc/stm32wbxx_ll_bus.h ****   *         APB1ENR1     I2C3EN        LL_APB1_GRP1_DisableClock\n
1021:Drivers/STM32WBxx_HAL_Driver/Inc/stm32wbxx_ll_bus.h ****   *         APB1ENR1     CRSEN         LL_APB1_GRP1_DisableClock\n
1022:Drivers/STM32WBxx_HAL_Driver/Inc/stm32wbxx_ll_bus.h ****   *         APB1ENR1     USBEN         LL_APB1_GRP1_DisableClock\n
1023:Drivers/STM32WBxx_HAL_Driver/Inc/stm32wbxx_ll_bus.h ****   *         APB1ENR1     LPTIM1EN      LL_APB1_GRP1_DisableClock
1024:Drivers/STM32WBxx_HAL_Driver/Inc/stm32wbxx_ll_bus.h ****   * @param  Periphs This parameter can be a combination of the following values:
1025:Drivers/STM32WBxx_HAL_Driver/Inc/stm32wbxx_ll_bus.h ****   *         @arg @ref LL_APB1_GRP1_PERIPH_TIM2
1026:Drivers/STM32WBxx_HAL_Driver/Inc/stm32wbxx_ll_bus.h ****   *         @arg @ref LL_APB1_GRP1_PERIPH_LCD (*)
1027:Drivers/STM32WBxx_HAL_Driver/Inc/stm32wbxx_ll_bus.h ****   *         @arg @ref LL_APB1_GRP1_PERIPH_RTCAPB
1028:Drivers/STM32WBxx_HAL_Driver/Inc/stm32wbxx_ll_bus.h ****   *         @arg @ref LL_APB1_GRP1_PERIPH_WWDG
1029:Drivers/STM32WBxx_HAL_Driver/Inc/stm32wbxx_ll_bus.h ****   *         @arg @ref LL_APB1_GRP1_PERIPH_SPI2 (*)
1030:Drivers/STM32WBxx_HAL_Driver/Inc/stm32wbxx_ll_bus.h ****   *         @arg @ref LL_APB1_GRP1_PERIPH_I2C1
1031:Drivers/STM32WBxx_HAL_Driver/Inc/stm32wbxx_ll_bus.h ****   *         @arg @ref LL_APB1_GRP1_PERIPH_I2C3 (*)
1032:Drivers/STM32WBxx_HAL_Driver/Inc/stm32wbxx_ll_bus.h ****   *         @arg @ref LL_APB1_GRP1_PERIPH_ (*)
1033:Drivers/STM32WBxx_HAL_Driver/Inc/stm32wbxx_ll_bus.h ****   *         @arg @ref LL_APB1_GRP1_PERIPH_USB (*)
1034:Drivers/STM32WBxx_HAL_Driver/Inc/stm32wbxx_ll_bus.h ****   *         @arg @ref LL_APB1_GRP1_PERIPH_LPTIM1
1035:Drivers/STM32WBxx_HAL_Driver/Inc/stm32wbxx_ll_bus.h ****   * @note  (*) Not supported by all the devices
1036:Drivers/STM32WBxx_HAL_Driver/Inc/stm32wbxx_ll_bus.h ****   * @retval None
1037:Drivers/STM32WBxx_HAL_Driver/Inc/stm32wbxx_ll_bus.h ****   */
1038:Drivers/STM32WBxx_HAL_Driver/Inc/stm32wbxx_ll_bus.h **** __STATIC_INLINE void LL_APB1_GRP1_DisableClock(uint32_t Periphs)
 299              		.loc 2 1038 22 view .LVU71
 300              	.LBB13:
1039:Drivers/STM32WBxx_HAL_Driver/Inc/stm32wbxx_ll_bus.h **** {
1040:Drivers/STM32WBxx_HAL_Driver/Inc/stm32wbxx_ll_bus.h ****   CLEAR_BIT(RCC->APB1ENR1, Periphs);
 301              		.loc 2 1040 3 view .LVU72
 302 000c 4FF0B042 		mov	r2, #1476395008
 303 0010 936D     		ldr	r3, [r2, #88]
 304 0012 23F08063 		bic	r3, r3, #67108864
 305 0016 9365     		str	r3, [r2, #88]
 306              	.LVL24:
 307              		.loc 2 1040 3 is_stmt 0 view .LVU73
 308              	.LBE13:
ARM GAS  C:\Users\bku598\AppData\Local\Temp\ccpE5VlW.s 			page 39


 309              	.LBE12:
 135:USB_Device/Target/usbd_conf.c **** 
 310              		.loc 1 135 5 is_stmt 1 view .LVU74
 311 0018 4FF4C051 		mov	r1, #6144
 312 001c 4FF09040 		mov	r0, #1207959552
 313              	.LVL25:
 135:USB_Device/Target/usbd_conf.c **** 
 314              		.loc 1 135 5 is_stmt 0 view .LVU75
 315 0020 FFF7FEFF 		bl	HAL_GPIO_DeInit
 316              	.LVL26:
 138:USB_Device/Target/usbd_conf.c **** 
 317              		.loc 1 138 5 is_stmt 1 view .LVU76
 318 0024 1420     		movs	r0, #20
 319 0026 FFF7FEFF 		bl	HAL_NVIC_DisableIRQ
 320              	.LVL27:
 144:USB_Device/Target/usbd_conf.c **** 
 321              		.loc 1 144 1 is_stmt 0 view .LVU77
 322 002a EEE7     		b	.L18
 323              	.L23:
 324              		.align	2
 325              	.L22:
 326 002c 00680040 		.word	1073768448
 327              		.cfi_endproc
 328              	.LFE1417:
 330              		.section	.text.HAL_PCD_SetupStageCallback,"ax",%progbits
 331              		.align	1
 332              		.global	HAL_PCD_SetupStageCallback
 333              		.syntax unified
 334              		.thumb
 335              		.thumb_func
 337              	HAL_PCD_SetupStageCallback:
 338              	.LVL28:
 339              	.LFB1418:
 156:USB_Device/Target/usbd_conf.c ****   /* USER CODE BEGIN HAL_PCD_SetupStageCallback_PreTreatment */
 340              		.loc 1 156 1 is_stmt 1 view -0
 341              		.cfi_startproc
 342              		@ args = 0, pretend = 0, frame = 0
 343              		@ frame_needed = 0, uses_anonymous_args = 0
 156:USB_Device/Target/usbd_conf.c ****   /* USER CODE BEGIN HAL_PCD_SetupStageCallback_PreTreatment */
 344              		.loc 1 156 1 is_stmt 0 view .LVU79
 345 0000 08B5     		push	{r3, lr}
 346              	.LCFI6:
 347              		.cfi_def_cfa_offset 8
 348              		.cfi_offset 3, -8
 349              		.cfi_offset 14, -4
 160:USB_Device/Target/usbd_conf.c ****   /* USER CODE BEGIN HAL_PCD_SetupStageCallback_PostTreatment */
 350              		.loc 1 160 3 is_stmt 1 view .LVU80
 351 0002 00F52671 		add	r1, r0, #664
 352 0006 D0F8D802 		ldr	r0, [r0, #728]
 353              	.LVL29:
 160:USB_Device/Target/usbd_conf.c ****   /* USER CODE BEGIN HAL_PCD_SetupStageCallback_PostTreatment */
 354              		.loc 1 160 3 is_stmt 0 view .LVU81
 355 000a FFF7FEFF 		bl	USBD_LL_SetupStage
 356              	.LVL30:
 164:USB_Device/Target/usbd_conf.c **** 
 357              		.loc 1 164 1 view .LVU82
 358 000e 08BD     		pop	{r3, pc}
ARM GAS  C:\Users\bku598\AppData\Local\Temp\ccpE5VlW.s 			page 40


 359              		.cfi_endproc
 360              	.LFE1418:
 362              		.section	.text.HAL_PCD_DataOutStageCallback,"ax",%progbits
 363              		.align	1
 364              		.global	HAL_PCD_DataOutStageCallback
 365              		.syntax unified
 366              		.thumb
 367              		.thumb_func
 369              	HAL_PCD_DataOutStageCallback:
 370              	.LVL31:
 371              	.LFB1419:
 177:USB_Device/Target/usbd_conf.c ****   /* USER CODE BEGIN HAL_PCD_DataOutStageCallback_PreTreatment */
 372              		.loc 1 177 1 is_stmt 1 view -0
 373              		.cfi_startproc
 374              		@ args = 0, pretend = 0, frame = 0
 375              		@ frame_needed = 0, uses_anonymous_args = 0
 177:USB_Device/Target/usbd_conf.c ****   /* USER CODE BEGIN HAL_PCD_DataOutStageCallback_PreTreatment */
 376              		.loc 1 177 1 is_stmt 0 view .LVU84
 377 0000 08B5     		push	{r3, lr}
 378              	.LCFI7:
 379              		.cfi_def_cfa_offset 8
 380              		.cfi_offset 3, -8
 381              		.cfi_offset 14, -4
 181:USB_Device/Target/usbd_conf.c ****   /* USER CODE BEGIN HAL_PCD_DataOutStageCallback_PostTreatment */
 382              		.loc 1 181 3 is_stmt 1 view .LVU85
 383 0002 01EB8103 		add	r3, r1, r1, lsl #2
 384 0006 00EBC303 		add	r3, r0, r3, lsl #3
 385 000a D3F86421 		ldr	r2, [r3, #356]
 386 000e D0F8D802 		ldr	r0, [r0, #728]
 387              	.LVL32:
 181:USB_Device/Target/usbd_conf.c ****   /* USER CODE BEGIN HAL_PCD_DataOutStageCallback_PostTreatment */
 388              		.loc 1 181 3 is_stmt 0 view .LVU86
 389 0012 FFF7FEFF 		bl	USBD_LL_DataOutStage
 390              	.LVL33:
 185:USB_Device/Target/usbd_conf.c **** 
 391              		.loc 1 185 1 view .LVU87
 392 0016 08BD     		pop	{r3, pc}
 393              		.cfi_endproc
 394              	.LFE1419:
 396              		.section	.text.HAL_PCD_DataInStageCallback,"ax",%progbits
 397              		.align	1
 398              		.global	HAL_PCD_DataInStageCallback
 399              		.syntax unified
 400              		.thumb
 401              		.thumb_func
 403              	HAL_PCD_DataInStageCallback:
 404              	.LVL34:
 405              	.LFB1420:
 198:USB_Device/Target/usbd_conf.c ****   /* USER CODE BEGIN HAL_PCD_DataInStageCallback_PreTreatment */
 406              		.loc 1 198 1 is_stmt 1 view -0
 407              		.cfi_startproc
 408              		@ args = 0, pretend = 0, frame = 0
 409              		@ frame_needed = 0, uses_anonymous_args = 0
 198:USB_Device/Target/usbd_conf.c ****   /* USER CODE BEGIN HAL_PCD_DataInStageCallback_PreTreatment */
 410              		.loc 1 198 1 is_stmt 0 view .LVU89
 411 0000 08B5     		push	{r3, lr}
 412              	.LCFI8:
ARM GAS  C:\Users\bku598\AppData\Local\Temp\ccpE5VlW.s 			page 41


 413              		.cfi_def_cfa_offset 8
 414              		.cfi_offset 3, -8
 415              		.cfi_offset 14, -4
 202:USB_Device/Target/usbd_conf.c ****   /* USER CODE BEGIN HAL_PCD_DataInStageCallback_PostTreatment  */
 416              		.loc 1 202 3 is_stmt 1 view .LVU90
 417 0002 01EB8103 		add	r3, r1, r1, lsl #2
 418 0006 00EBC303 		add	r3, r0, r3, lsl #3
 419 000a 5A6A     		ldr	r2, [r3, #36]
 420 000c D0F8D802 		ldr	r0, [r0, #728]
 421              	.LVL35:
 202:USB_Device/Target/usbd_conf.c ****   /* USER CODE BEGIN HAL_PCD_DataInStageCallback_PostTreatment  */
 422              		.loc 1 202 3 is_stmt 0 view .LVU91
 423 0010 FFF7FEFF 		bl	USBD_LL_DataInStage
 424              	.LVL36:
 206:USB_Device/Target/usbd_conf.c **** 
 425              		.loc 1 206 1 view .LVU92
 426 0014 08BD     		pop	{r3, pc}
 427              		.cfi_endproc
 428              	.LFE1420:
 430              		.section	.text.HAL_PCD_SOFCallback,"ax",%progbits
 431              		.align	1
 432              		.global	HAL_PCD_SOFCallback
 433              		.syntax unified
 434              		.thumb
 435              		.thumb_func
 437              	HAL_PCD_SOFCallback:
 438              	.LVL37:
 439              	.LFB1421:
 218:USB_Device/Target/usbd_conf.c ****   /* USER CODE BEGIN HAL_PCD_SOFCallback_PreTreatment */
 440              		.loc 1 218 1 is_stmt 1 view -0
 441              		.cfi_startproc
 442              		@ args = 0, pretend = 0, frame = 0
 443              		@ frame_needed = 0, uses_anonymous_args = 0
 218:USB_Device/Target/usbd_conf.c ****   /* USER CODE BEGIN HAL_PCD_SOFCallback_PreTreatment */
 444              		.loc 1 218 1 is_stmt 0 view .LVU94
 445 0000 08B5     		push	{r3, lr}
 446              	.LCFI9:
 447              		.cfi_def_cfa_offset 8
 448              		.cfi_offset 3, -8
 449              		.cfi_offset 14, -4
 222:USB_Device/Target/usbd_conf.c ****   /* USER CODE BEGIN HAL_PCD_SOFCallback_PostTreatment */
 450              		.loc 1 222 3 is_stmt 1 view .LVU95
 451 0002 D0F8D802 		ldr	r0, [r0, #728]
 452              	.LVL38:
 222:USB_Device/Target/usbd_conf.c ****   /* USER CODE BEGIN HAL_PCD_SOFCallback_PostTreatment */
 453              		.loc 1 222 3 is_stmt 0 view .LVU96
 454 0006 FFF7FEFF 		bl	USBD_LL_SOF
 455              	.LVL39:
 226:USB_Device/Target/usbd_conf.c **** 
 456              		.loc 1 226 1 view .LVU97
 457 000a 08BD     		pop	{r3, pc}
 458              		.cfi_endproc
 459              	.LFE1421:
 461              		.section	.text.HAL_PCD_ResetCallback,"ax",%progbits
 462              		.align	1
 463              		.global	HAL_PCD_ResetCallback
 464              		.syntax unified
ARM GAS  C:\Users\bku598\AppData\Local\Temp\ccpE5VlW.s 			page 42


 465              		.thumb
 466              		.thumb_func
 468              	HAL_PCD_ResetCallback:
 469              	.LVL40:
 470              	.LFB1422:
 238:USB_Device/Target/usbd_conf.c ****   /* USER CODE BEGIN HAL_PCD_ResetCallback_PreTreatment */
 471              		.loc 1 238 1 is_stmt 1 view -0
 472              		.cfi_startproc
 473              		@ args = 0, pretend = 0, frame = 0
 474              		@ frame_needed = 0, uses_anonymous_args = 0
 238:USB_Device/Target/usbd_conf.c ****   /* USER CODE BEGIN HAL_PCD_ResetCallback_PreTreatment */
 475              		.loc 1 238 1 is_stmt 0 view .LVU99
 476 0000 10B5     		push	{r4, lr}
 477              	.LCFI10:
 478              		.cfi_def_cfa_offset 8
 479              		.cfi_offset 4, -8
 480              		.cfi_offset 14, -4
 481 0002 0446     		mov	r4, r0
 242:USB_Device/Target/usbd_conf.c **** 
 482              		.loc 1 242 3 is_stmt 1 view .LVU100
 483              	.LVL41:
 244:USB_Device/Target/usbd_conf.c ****   {
 484              		.loc 1 244 3 view .LVU101
 244:USB_Device/Target/usbd_conf.c ****   {
 485              		.loc 1 244 18 is_stmt 0 view .LVU102
 486 0004 4379     		ldrb	r3, [r0, #5]	@ zero_extendqisi2
 244:USB_Device/Target/usbd_conf.c ****   {
 487              		.loc 1 244 6 view .LVU103
 488 0006 022B     		cmp	r3, #2
 489 0008 09D1     		bne	.L35
 490              	.LVL42:
 491              	.L33:
 249:USB_Device/Target/usbd_conf.c **** 
 492              		.loc 1 249 3 is_stmt 1 view .LVU104
 493 000a 0121     		movs	r1, #1
 494 000c D4F8D802 		ldr	r0, [r4, #728]
 495 0010 FFF7FEFF 		bl	USBD_LL_SetSpeed
 496              	.LVL43:
 252:USB_Device/Target/usbd_conf.c ****   /* USER CODE BEGIN HAL_PCD_ResetCallback_PostTreatment */
 497              		.loc 1 252 3 view .LVU105
 498 0014 D4F8D802 		ldr	r0, [r4, #728]
 499 0018 FFF7FEFF 		bl	USBD_LL_Reset
 500              	.LVL44:
 256:USB_Device/Target/usbd_conf.c **** 
 501              		.loc 1 256 1 is_stmt 0 view .LVU106
 502 001c 10BD     		pop	{r4, pc}
 503              	.LVL45:
 504              	.L35:
 246:USB_Device/Target/usbd_conf.c ****   }
 505              		.loc 1 246 5 is_stmt 1 view .LVU107
 506 001e FFF7FEFF 		bl	Error_Handler
 507              	.LVL46:
 246:USB_Device/Target/usbd_conf.c ****   }
 508              		.loc 1 246 5 is_stmt 0 view .LVU108
 509 0022 F2E7     		b	.L33
 510              		.cfi_endproc
 511              	.LFE1422:
ARM GAS  C:\Users\bku598\AppData\Local\Temp\ccpE5VlW.s 			page 43


 513              		.section	.text.HAL_PCD_SuspendCallback,"ax",%progbits
 514              		.align	1
 515              		.global	HAL_PCD_SuspendCallback
 516              		.syntax unified
 517              		.thumb
 518              		.thumb_func
 520              	HAL_PCD_SuspendCallback:
 521              	.LVL47:
 522              	.LFB1423:
 269:USB_Device/Target/usbd_conf.c ****   /* USER CODE BEGIN HAL_PCD_SuspendCallback_PreTreatment */
 523              		.loc 1 269 1 is_stmt 1 view -0
 524              		.cfi_startproc
 525              		@ args = 0, pretend = 0, frame = 0
 526              		@ frame_needed = 0, uses_anonymous_args = 0
 269:USB_Device/Target/usbd_conf.c ****   /* USER CODE BEGIN HAL_PCD_SuspendCallback_PreTreatment */
 527              		.loc 1 269 1 is_stmt 0 view .LVU110
 528 0000 10B5     		push	{r4, lr}
 529              	.LCFI11:
 530              		.cfi_def_cfa_offset 8
 531              		.cfi_offset 4, -8
 532              		.cfi_offset 14, -4
 533 0002 0446     		mov	r4, r0
 274:USB_Device/Target/usbd_conf.c ****   /* Enter in STOP mode. */
 534              		.loc 1 274 3 is_stmt 1 view .LVU111
 535 0004 D0F8D802 		ldr	r0, [r0, #728]
 536              	.LVL48:
 274:USB_Device/Target/usbd_conf.c ****   /* Enter in STOP mode. */
 537              		.loc 1 274 3 is_stmt 0 view .LVU112
 538 0008 FFF7FEFF 		bl	USBD_LL_Suspend
 539              	.LVL49:
 277:USB_Device/Target/usbd_conf.c ****   {
 540              		.loc 1 277 3 is_stmt 1 view .LVU113
 277:USB_Device/Target/usbd_conf.c ****   {
 541              		.loc 1 277 17 is_stmt 0 view .LVU114
 542 000c 637A     		ldrb	r3, [r4, #9]	@ zero_extendqisi2
 277:USB_Device/Target/usbd_conf.c ****   {
 543              		.loc 1 277 6 view .LVU115
 544 000e 23B1     		cbz	r3, .L36
 280:USB_Device/Target/usbd_conf.c ****   }
 545              		.loc 1 280 5 is_stmt 1 view .LVU116
 280:USB_Device/Target/usbd_conf.c ****   }
 546              		.loc 1 280 8 is_stmt 0 view .LVU117
 547 0010 024A     		ldr	r2, .L39
 548 0012 1369     		ldr	r3, [r2, #16]
 280:USB_Device/Target/usbd_conf.c ****   }
 549              		.loc 1 280 14 view .LVU118
 550 0014 43F00603 		orr	r3, r3, #6
 551 0018 1361     		str	r3, [r2, #16]
 552              	.L36:
 286:USB_Device/Target/usbd_conf.c **** 
 553              		.loc 1 286 1 view .LVU119
 554 001a 10BD     		pop	{r4, pc}
 555              	.LVL50:
 556              	.L40:
 286:USB_Device/Target/usbd_conf.c **** 
 557              		.loc 1 286 1 view .LVU120
 558              		.align	2
ARM GAS  C:\Users\bku598\AppData\Local\Temp\ccpE5VlW.s 			page 44


 559              	.L39:
 560 001c 00ED00E0 		.word	-536810240
 561              		.cfi_endproc
 562              	.LFE1423:
 564              		.section	.text.HAL_PCD_ResumeCallback,"ax",%progbits
 565              		.align	1
 566              		.global	HAL_PCD_ResumeCallback
 567              		.syntax unified
 568              		.thumb
 569              		.thumb_func
 571              	HAL_PCD_ResumeCallback:
 572              	.LVL51:
 573              	.LFB1424:
 299:USB_Device/Target/usbd_conf.c ****   /* USER CODE BEGIN HAL_PCD_ResumeCallback_PreTreatment */
 574              		.loc 1 299 1 is_stmt 1 view -0
 575              		.cfi_startproc
 576              		@ args = 0, pretend = 0, frame = 0
 577              		@ frame_needed = 0, uses_anonymous_args = 0
 299:USB_Device/Target/usbd_conf.c ****   /* USER CODE BEGIN HAL_PCD_ResumeCallback_PreTreatment */
 578              		.loc 1 299 1 is_stmt 0 view .LVU122
 579 0000 10B5     		push	{r4, lr}
 580              	.LCFI12:
 581              		.cfi_def_cfa_offset 8
 582              		.cfi_offset 4, -8
 583              		.cfi_offset 14, -4
 584 0002 0446     		mov	r4, r0
 305:USB_Device/Target/usbd_conf.c ****   {
 585              		.loc 1 305 3 is_stmt 1 view .LVU123
 305:USB_Device/Target/usbd_conf.c ****   {
 586              		.loc 1 305 17 is_stmt 0 view .LVU124
 587 0004 437A     		ldrb	r3, [r0, #9]	@ zero_extendqisi2
 305:USB_Device/Target/usbd_conf.c ****   {
 588              		.loc 1 305 6 view .LVU125
 589 0006 23B9     		cbnz	r3, .L44
 590              	.LVL52:
 591              	.L42:
 313:USB_Device/Target/usbd_conf.c ****   /* USER CODE BEGIN HAL_PCD_ResumeCallback_PostTreatment */
 592              		.loc 1 313 3 is_stmt 1 view .LVU126
 593 0008 D4F8D802 		ldr	r0, [r4, #728]
 594 000c FFF7FEFF 		bl	USBD_LL_Resume
 595              	.LVL53:
 317:USB_Device/Target/usbd_conf.c **** 
 596              		.loc 1 317 1 is_stmt 0 view .LVU127
 597 0010 10BD     		pop	{r4, pc}
 598              	.LVL54:
 599              	.L44:
 308:USB_Device/Target/usbd_conf.c ****     SystemClockConfig_Resume();
 600              		.loc 1 308 5 is_stmt 1 view .LVU128
 308:USB_Device/Target/usbd_conf.c ****     SystemClockConfig_Resume();
 601              		.loc 1 308 8 is_stmt 0 view .LVU129
 602 0012 044A     		ldr	r2, .L45
 603 0014 1369     		ldr	r3, [r2, #16]
 308:USB_Device/Target/usbd_conf.c ****     SystemClockConfig_Resume();
 604              		.loc 1 308 14 view .LVU130
 605 0016 23F00603 		bic	r3, r3, #6
 606 001a 1361     		str	r3, [r2, #16]
 309:USB_Device/Target/usbd_conf.c ****   }
ARM GAS  C:\Users\bku598\AppData\Local\Temp\ccpE5VlW.s 			page 45


 607              		.loc 1 309 5 is_stmt 1 view .LVU131
 608 001c FFF7FEFF 		bl	SystemClockConfig_Resume
 609              	.LVL55:
 309:USB_Device/Target/usbd_conf.c ****   }
 610              		.loc 1 309 5 is_stmt 0 view .LVU132
 611 0020 F2E7     		b	.L42
 612              	.L46:
 613 0022 00BF     		.align	2
 614              	.L45:
 615 0024 00ED00E0 		.word	-536810240
 616              		.cfi_endproc
 617              	.LFE1424:
 619              		.section	.text.HAL_PCD_ISOOUTIncompleteCallback,"ax",%progbits
 620              		.align	1
 621              		.global	HAL_PCD_ISOOUTIncompleteCallback
 622              		.syntax unified
 623              		.thumb
 624              		.thumb_func
 626              	HAL_PCD_ISOOUTIncompleteCallback:
 627              	.LVL56:
 628              	.LFB1425:
 330:USB_Device/Target/usbd_conf.c ****   /* USER CODE BEGIN HAL_PCD_ISOOUTIncompleteCallback_PreTreatment */
 629              		.loc 1 330 1 is_stmt 1 view -0
 630              		.cfi_startproc
 631              		@ args = 0, pretend = 0, frame = 0
 632              		@ frame_needed = 0, uses_anonymous_args = 0
 330:USB_Device/Target/usbd_conf.c ****   /* USER CODE BEGIN HAL_PCD_ISOOUTIncompleteCallback_PreTreatment */
 633              		.loc 1 330 1 is_stmt 0 view .LVU134
 634 0000 08B5     		push	{r3, lr}
 635              	.LCFI13:
 636              		.cfi_def_cfa_offset 8
 637              		.cfi_offset 3, -8
 638              		.cfi_offset 14, -4
 334:USB_Device/Target/usbd_conf.c ****   /* USER CODE BEGIN HAL_PCD_ISOOUTIncompleteCallback_PostTreatment */
 639              		.loc 1 334 3 is_stmt 1 view .LVU135
 640 0002 D0F8D802 		ldr	r0, [r0, #728]
 641              	.LVL57:
 334:USB_Device/Target/usbd_conf.c ****   /* USER CODE BEGIN HAL_PCD_ISOOUTIncompleteCallback_PostTreatment */
 642              		.loc 1 334 3 is_stmt 0 view .LVU136
 643 0006 FFF7FEFF 		bl	USBD_LL_IsoOUTIncomplete
 644              	.LVL58:
 338:USB_Device/Target/usbd_conf.c **** 
 645              		.loc 1 338 1 view .LVU137
 646 000a 08BD     		pop	{r3, pc}
 647              		.cfi_endproc
 648              	.LFE1425:
 650              		.section	.text.HAL_PCD_ISOINIncompleteCallback,"ax",%progbits
 651              		.align	1
 652              		.global	HAL_PCD_ISOINIncompleteCallback
 653              		.syntax unified
 654              		.thumb
 655              		.thumb_func
 657              	HAL_PCD_ISOINIncompleteCallback:
 658              	.LVL59:
 659              	.LFB1426:
 351:USB_Device/Target/usbd_conf.c ****   /* USER CODE BEGIN HAL_PCD_ISOINIncompleteCallback_PreTreatment */
 660              		.loc 1 351 1 is_stmt 1 view -0
ARM GAS  C:\Users\bku598\AppData\Local\Temp\ccpE5VlW.s 			page 46


 661              		.cfi_startproc
 662              		@ args = 0, pretend = 0, frame = 0
 663              		@ frame_needed = 0, uses_anonymous_args = 0
 351:USB_Device/Target/usbd_conf.c ****   /* USER CODE BEGIN HAL_PCD_ISOINIncompleteCallback_PreTreatment */
 664              		.loc 1 351 1 is_stmt 0 view .LVU139
 665 0000 08B5     		push	{r3, lr}
 666              	.LCFI14:
 667              		.cfi_def_cfa_offset 8
 668              		.cfi_offset 3, -8
 669              		.cfi_offset 14, -4
 355:USB_Device/Target/usbd_conf.c ****   /* USER CODE BEGIN HAL_PCD_ISOINIncompleteCallback_PostTreatment */
 670              		.loc 1 355 3 is_stmt 1 view .LVU140
 671 0002 D0F8D802 		ldr	r0, [r0, #728]
 672              	.LVL60:
 355:USB_Device/Target/usbd_conf.c ****   /* USER CODE BEGIN HAL_PCD_ISOINIncompleteCallback_PostTreatment */
 673              		.loc 1 355 3 is_stmt 0 view .LVU141
 674 0006 FFF7FEFF 		bl	USBD_LL_IsoINIncomplete
 675              	.LVL61:
 359:USB_Device/Target/usbd_conf.c **** 
 676              		.loc 1 359 1 view .LVU142
 677 000a 08BD     		pop	{r3, pc}
 678              		.cfi_endproc
 679              	.LFE1426:
 681              		.section	.text.HAL_PCD_ConnectCallback,"ax",%progbits
 682              		.align	1
 683              		.global	HAL_PCD_ConnectCallback
 684              		.syntax unified
 685              		.thumb
 686              		.thumb_func
 688              	HAL_PCD_ConnectCallback:
 689              	.LVL62:
 690              	.LFB1427:
 371:USB_Device/Target/usbd_conf.c ****   /* USER CODE BEGIN HAL_PCD_ConnectCallback_PreTreatment */
 691              		.loc 1 371 1 is_stmt 1 view -0
 692              		.cfi_startproc
 693              		@ args = 0, pretend = 0, frame = 0
 694              		@ frame_needed = 0, uses_anonymous_args = 0
 371:USB_Device/Target/usbd_conf.c ****   /* USER CODE BEGIN HAL_PCD_ConnectCallback_PreTreatment */
 695              		.loc 1 371 1 is_stmt 0 view .LVU144
 696 0000 08B5     		push	{r3, lr}
 697              	.LCFI15:
 698              		.cfi_def_cfa_offset 8
 699              		.cfi_offset 3, -8
 700              		.cfi_offset 14, -4
 375:USB_Device/Target/usbd_conf.c ****   /* USER CODE BEGIN HAL_PCD_ConnectCallback_PostTreatment */
 701              		.loc 1 375 3 is_stmt 1 view .LVU145
 702 0002 D0F8D802 		ldr	r0, [r0, #728]
 703              	.LVL63:
 375:USB_Device/Target/usbd_conf.c ****   /* USER CODE BEGIN HAL_PCD_ConnectCallback_PostTreatment */
 704              		.loc 1 375 3 is_stmt 0 view .LVU146
 705 0006 FFF7FEFF 		bl	USBD_LL_DevConnected
 706              	.LVL64:
 379:USB_Device/Target/usbd_conf.c **** 
 707              		.loc 1 379 1 view .LVU147
 708 000a 08BD     		pop	{r3, pc}
 709              		.cfi_endproc
 710              	.LFE1427:
ARM GAS  C:\Users\bku598\AppData\Local\Temp\ccpE5VlW.s 			page 47


 712              		.section	.text.HAL_PCD_DisconnectCallback,"ax",%progbits
 713              		.align	1
 714              		.global	HAL_PCD_DisconnectCallback
 715              		.syntax unified
 716              		.thumb
 717              		.thumb_func
 719              	HAL_PCD_DisconnectCallback:
 720              	.LVL65:
 721              	.LFB1428:
 391:USB_Device/Target/usbd_conf.c ****   /* USER CODE BEGIN HAL_PCD_DisconnectCallback_PreTreatment */
 722              		.loc 1 391 1 is_stmt 1 view -0
 723              		.cfi_startproc
 724              		@ args = 0, pretend = 0, frame = 0
 725              		@ frame_needed = 0, uses_anonymous_args = 0
 391:USB_Device/Target/usbd_conf.c ****   /* USER CODE BEGIN HAL_PCD_DisconnectCallback_PreTreatment */
 726              		.loc 1 391 1 is_stmt 0 view .LVU149
 727 0000 08B5     		push	{r3, lr}
 728              	.LCFI16:
 729              		.cfi_def_cfa_offset 8
 730              		.cfi_offset 3, -8
 731              		.cfi_offset 14, -4
 395:USB_Device/Target/usbd_conf.c ****   /* USER CODE BEGIN HAL_PCD_DisconnectCallback_PostTreatment */
 732              		.loc 1 395 3 is_stmt 1 view .LVU150
 733 0002 D0F8D802 		ldr	r0, [r0, #728]
 734              	.LVL66:
 395:USB_Device/Target/usbd_conf.c ****   /* USER CODE BEGIN HAL_PCD_DisconnectCallback_PostTreatment */
 735              		.loc 1 395 3 is_stmt 0 view .LVU151
 736 0006 FFF7FEFF 		bl	USBD_LL_DevDisconnected
 737              	.LVL67:
 399:USB_Device/Target/usbd_conf.c **** 
 738              		.loc 1 399 1 view .LVU152
 739 000a 08BD     		pop	{r3, pc}
 740              		.cfi_endproc
 741              	.LFE1428:
 743              		.section	.text.USBD_LL_Init,"ax",%progbits
 744              		.align	1
 745              		.global	USBD_LL_Init
 746              		.syntax unified
 747              		.thumb
 748              		.thumb_func
 750              	USBD_LL_Init:
 751              	.LVL68:
 752              	.LFB1429:
 415:USB_Device/Target/usbd_conf.c ****   /* Init USB Ip. */
 753              		.loc 1 415 1 is_stmt 1 view -0
 754              		.cfi_startproc
 755              		@ args = 0, pretend = 0, frame = 0
 756              		@ frame_needed = 0, uses_anonymous_args = 0
 415:USB_Device/Target/usbd_conf.c ****   /* Init USB Ip. */
 757              		.loc 1 415 1 is_stmt 0 view .LVU154
 758 0000 38B5     		push	{r3, r4, r5, lr}
 759              	.LCFI17:
 760              		.cfi_def_cfa_offset 16
 761              		.cfi_offset 3, -16
 762              		.cfi_offset 4, -12
 763              		.cfi_offset 5, -8
 764              		.cfi_offset 14, -4
ARM GAS  C:\Users\bku598\AppData\Local\Temp\ccpE5VlW.s 			page 48


 765 0002 0546     		mov	r5, r0
 417:USB_Device/Target/usbd_conf.c ****   /* Link the driver to the stack. */
 766              		.loc 1 417 3 is_stmt 1 view .LVU155
 417:USB_Device/Target/usbd_conf.c ****   /* Link the driver to the stack. */
 767              		.loc 1 417 21 is_stmt 0 view .LVU156
 768 0004 204C     		ldr	r4, .L59
 769 0006 C4F8D802 		str	r0, [r4, #728]
 419:USB_Device/Target/usbd_conf.c **** /* Enable USB power on Pwrctrl CR2 register. */
 770              		.loc 1 419 3 is_stmt 1 view .LVU157
 419:USB_Device/Target/usbd_conf.c **** /* Enable USB power on Pwrctrl CR2 register. */
 771              		.loc 1 419 15 is_stmt 0 view .LVU158
 772 000a C0F8C842 		str	r4, [r0, #712]
 421:USB_Device/Target/usbd_conf.c **** 
 773              		.loc 1 421 3 is_stmt 1 view .LVU159
 774 000e FFF7FEFF 		bl	HAL_PWREx_EnableVddUSB
 775              	.LVL69:
 423:USB_Device/Target/usbd_conf.c ****   hpcd_USB_FS.Init.dev_endpoints = 8;
 776              		.loc 1 423 3 view .LVU160
 423:USB_Device/Target/usbd_conf.c ****   hpcd_USB_FS.Init.dev_endpoints = 8;
 777              		.loc 1 423 24 is_stmt 0 view .LVU161
 778 0012 1E4B     		ldr	r3, .L59+4
 779 0014 2360     		str	r3, [r4]
 424:USB_Device/Target/usbd_conf.c ****   hpcd_USB_FS.Init.speed = PCD_SPEED_FULL;
 780              		.loc 1 424 3 is_stmt 1 view .LVU162
 424:USB_Device/Target/usbd_conf.c ****   hpcd_USB_FS.Init.speed = PCD_SPEED_FULL;
 781              		.loc 1 424 34 is_stmt 0 view .LVU163
 782 0016 0823     		movs	r3, #8
 783 0018 2371     		strb	r3, [r4, #4]
 425:USB_Device/Target/usbd_conf.c ****   hpcd_USB_FS.Init.phy_itface = PCD_PHY_EMBEDDED;
 784              		.loc 1 425 3 is_stmt 1 view .LVU164
 425:USB_Device/Target/usbd_conf.c ****   hpcd_USB_FS.Init.phy_itface = PCD_PHY_EMBEDDED;
 785              		.loc 1 425 26 is_stmt 0 view .LVU165
 786 001a 0223     		movs	r3, #2
 787 001c 6371     		strb	r3, [r4, #5]
 426:USB_Device/Target/usbd_conf.c ****   hpcd_USB_FS.Init.Sof_enable = DISABLE;
 788              		.loc 1 426 3 is_stmt 1 view .LVU166
 426:USB_Device/Target/usbd_conf.c ****   hpcd_USB_FS.Init.Sof_enable = DISABLE;
 789              		.loc 1 426 31 is_stmt 0 view .LVU167
 790 001e E371     		strb	r3, [r4, #7]
 427:USB_Device/Target/usbd_conf.c ****   hpcd_USB_FS.Init.low_power_enable = DISABLE;
 791              		.loc 1 427 3 is_stmt 1 view .LVU168
 427:USB_Device/Target/usbd_conf.c ****   hpcd_USB_FS.Init.low_power_enable = DISABLE;
 792              		.loc 1 427 31 is_stmt 0 view .LVU169
 793 0020 0023     		movs	r3, #0
 794 0022 2372     		strb	r3, [r4, #8]
 428:USB_Device/Target/usbd_conf.c ****   hpcd_USB_FS.Init.lpm_enable = DISABLE;
 795              		.loc 1 428 3 is_stmt 1 view .LVU170
 428:USB_Device/Target/usbd_conf.c ****   hpcd_USB_FS.Init.lpm_enable = DISABLE;
 796              		.loc 1 428 37 is_stmt 0 view .LVU171
 797 0024 6372     		strb	r3, [r4, #9]
 429:USB_Device/Target/usbd_conf.c ****   hpcd_USB_FS.Init.battery_charging_enable = DISABLE;
 798              		.loc 1 429 3 is_stmt 1 view .LVU172
 429:USB_Device/Target/usbd_conf.c ****   hpcd_USB_FS.Init.battery_charging_enable = DISABLE;
 799              		.loc 1 429 31 is_stmt 0 view .LVU173
 800 0026 A372     		strb	r3, [r4, #10]
 430:USB_Device/Target/usbd_conf.c **** 
 801              		.loc 1 430 3 is_stmt 1 view .LVU174
ARM GAS  C:\Users\bku598\AppData\Local\Temp\ccpE5VlW.s 			page 49


 430:USB_Device/Target/usbd_conf.c **** 
 802              		.loc 1 430 44 is_stmt 0 view .LVU175
 803 0028 E372     		strb	r3, [r4, #11]
 438:USB_Device/Target/usbd_conf.c ****   {
 804              		.loc 1 438 3 is_stmt 1 view .LVU176
 438:USB_Device/Target/usbd_conf.c ****   {
 805              		.loc 1 438 7 is_stmt 0 view .LVU177
 806 002a 2046     		mov	r0, r4
 807 002c FFF7FEFF 		bl	HAL_PCD_Init
 808              	.LVL70:
 438:USB_Device/Target/usbd_conf.c ****   {
 809              		.loc 1 438 6 discriminator 1 view .LVU178
 810 0030 30BB     		cbnz	r0, .L58
 811              	.L56:
 464:USB_Device/Target/usbd_conf.c ****   HAL_PCDEx_PMAConfig((PCD_HandleTypeDef*)pdev->pData , 0x80 , PCD_SNG_BUF, 0x58);
 812              		.loc 1 464 3 is_stmt 1 view .LVU179
 813 0032 1823     		movs	r3, #24
 814 0034 0022     		movs	r2, #0
 815 0036 1146     		mov	r1, r2
 816 0038 D5F8C802 		ldr	r0, [r5, #712]
 817 003c FFF7FEFF 		bl	HAL_PCDEx_PMAConfig
 818              	.LVL71:
 465:USB_Device/Target/usbd_conf.c ****   /* USER CODE END EndPoint_Configuration */
 819              		.loc 1 465 3 view .LVU180
 820 0040 5823     		movs	r3, #88
 821 0042 0022     		movs	r2, #0
 822 0044 8021     		movs	r1, #128
 823 0046 D5F8C802 		ldr	r0, [r5, #712]
 824 004a FFF7FEFF 		bl	HAL_PCDEx_PMAConfig
 825              	.LVL72:
 468:USB_Device/Target/usbd_conf.c ****   HAL_PCDEx_PMAConfig((PCD_HandleTypeDef*)pdev->pData , 0x01 , PCD_SNG_BUF, 0x110);
 826              		.loc 1 468 3 view .LVU181
 827 004e C023     		movs	r3, #192
 828 0050 0022     		movs	r2, #0
 829 0052 8121     		movs	r1, #129
 830 0054 D5F8C802 		ldr	r0, [r5, #712]
 831 0058 FFF7FEFF 		bl	HAL_PCDEx_PMAConfig
 832              	.LVL73:
 469:USB_Device/Target/usbd_conf.c ****   HAL_PCDEx_PMAConfig((PCD_HandleTypeDef*)pdev->pData , 0x82 , PCD_SNG_BUF, 0x100);
 833              		.loc 1 469 3 view .LVU182
 834 005c 4FF48873 		mov	r3, #272
 835 0060 0022     		movs	r2, #0
 836 0062 0121     		movs	r1, #1
 837 0064 D5F8C802 		ldr	r0, [r5, #712]
 838 0068 FFF7FEFF 		bl	HAL_PCDEx_PMAConfig
 839              	.LVL74:
 470:USB_Device/Target/usbd_conf.c ****   /* USER CODE END EndPoint_Configuration_CDC */
 840              		.loc 1 470 3 view .LVU183
 841 006c 4FF48073 		mov	r3, #256
 842 0070 0022     		movs	r2, #0
 843 0072 8221     		movs	r1, #130
 844 0074 D5F8C802 		ldr	r0, [r5, #712]
 845 0078 FFF7FEFF 		bl	HAL_PCDEx_PMAConfig
 846              	.LVL75:
 472:USB_Device/Target/usbd_conf.c **** }
 847              		.loc 1 472 3 view .LVU184
 473:USB_Device/Target/usbd_conf.c **** 
ARM GAS  C:\Users\bku598\AppData\Local\Temp\ccpE5VlW.s 			page 50


 848              		.loc 1 473 1 is_stmt 0 view .LVU185
 849 007c 0020     		movs	r0, #0
 850 007e 38BD     		pop	{r3, r4, r5, pc}
 851              	.LVL76:
 852              	.L58:
 440:USB_Device/Target/usbd_conf.c ****   }
 853              		.loc 1 440 5 is_stmt 1 view .LVU186
 854 0080 FFF7FEFF 		bl	Error_Handler
 855              	.LVL77:
 856 0084 D5E7     		b	.L56
 857              	.L60:
 858 0086 00BF     		.align	2
 859              	.L59:
 860 0088 00000000 		.word	hpcd_USB_FS
 861 008c 00680040 		.word	1073768448
 862              		.cfi_endproc
 863              	.LFE1429:
 865              		.section	.text.USBD_LL_DeInit,"ax",%progbits
 866              		.align	1
 867              		.global	USBD_LL_DeInit
 868              		.syntax unified
 869              		.thumb
 870              		.thumb_func
 872              	USBD_LL_DeInit:
 873              	.LVL78:
 874              	.LFB1430:
 481:USB_Device/Target/usbd_conf.c ****   HAL_StatusTypeDef hal_status = HAL_OK;
 875              		.loc 1 481 1 view -0
 876              		.cfi_startproc
 877              		@ args = 0, pretend = 0, frame = 0
 878              		@ frame_needed = 0, uses_anonymous_args = 0
 481:USB_Device/Target/usbd_conf.c ****   HAL_StatusTypeDef hal_status = HAL_OK;
 879              		.loc 1 481 1 is_stmt 0 view .LVU188
 880 0000 08B5     		push	{r3, lr}
 881              	.LCFI18:
 882              		.cfi_def_cfa_offset 8
 883              		.cfi_offset 3, -8
 884              		.cfi_offset 14, -4
 482:USB_Device/Target/usbd_conf.c ****   USBD_StatusTypeDef usb_status = USBD_OK;
 885              		.loc 1 482 3 is_stmt 1 view .LVU189
 886              	.LVL79:
 483:USB_Device/Target/usbd_conf.c **** 
 887              		.loc 1 483 3 view .LVU190
 485:USB_Device/Target/usbd_conf.c **** 
 888              		.loc 1 485 3 view .LVU191
 485:USB_Device/Target/usbd_conf.c **** 
 889              		.loc 1 485 16 is_stmt 0 view .LVU192
 890 0002 D0F8C802 		ldr	r0, [r0, #712]
 891              	.LVL80:
 485:USB_Device/Target/usbd_conf.c **** 
 892              		.loc 1 485 16 view .LVU193
 893 0006 FFF7FEFF 		bl	HAL_PCD_DeInit
 894              	.LVL81:
 487:USB_Device/Target/usbd_conf.c **** 
 895              		.loc 1 487 3 is_stmt 1 view .LVU194
 487:USB_Device/Target/usbd_conf.c **** 
 896              		.loc 1 487 17 is_stmt 0 view .LVU195
ARM GAS  C:\Users\bku598\AppData\Local\Temp\ccpE5VlW.s 			page 51


 897 000a FFF7FEFF 		bl	USBD_Get_USB_Status
 898              	.LVL82:
 489:USB_Device/Target/usbd_conf.c **** }
 899              		.loc 1 489 3 is_stmt 1 view .LVU196
 490:USB_Device/Target/usbd_conf.c **** 
 900              		.loc 1 490 1 is_stmt 0 view .LVU197
 901 000e 08BD     		pop	{r3, pc}
 902              		.cfi_endproc
 903              	.LFE1430:
 905              		.section	.text.USBD_LL_Start,"ax",%progbits
 906              		.align	1
 907              		.global	USBD_LL_Start
 908              		.syntax unified
 909              		.thumb
 910              		.thumb_func
 912              	USBD_LL_Start:
 913              	.LVL83:
 914              	.LFB1431:
 498:USB_Device/Target/usbd_conf.c ****   HAL_StatusTypeDef hal_status = HAL_OK;
 915              		.loc 1 498 1 is_stmt 1 view -0
 916              		.cfi_startproc
 917              		@ args = 0, pretend = 0, frame = 0
 918              		@ frame_needed = 0, uses_anonymous_args = 0
 498:USB_Device/Target/usbd_conf.c ****   HAL_StatusTypeDef hal_status = HAL_OK;
 919              		.loc 1 498 1 is_stmt 0 view .LVU199
 920 0000 08B5     		push	{r3, lr}
 921              	.LCFI19:
 922              		.cfi_def_cfa_offset 8
 923              		.cfi_offset 3, -8
 924              		.cfi_offset 14, -4
 499:USB_Device/Target/usbd_conf.c ****   USBD_StatusTypeDef usb_status = USBD_OK;
 925              		.loc 1 499 3 is_stmt 1 view .LVU200
 926              	.LVL84:
 500:USB_Device/Target/usbd_conf.c **** 
 927              		.loc 1 500 3 view .LVU201
 502:USB_Device/Target/usbd_conf.c **** 
 928              		.loc 1 502 3 view .LVU202
 502:USB_Device/Target/usbd_conf.c **** 
 929              		.loc 1 502 16 is_stmt 0 view .LVU203
 930 0002 D0F8C802 		ldr	r0, [r0, #712]
 931              	.LVL85:
 502:USB_Device/Target/usbd_conf.c **** 
 932              		.loc 1 502 16 view .LVU204
 933 0006 FFF7FEFF 		bl	HAL_PCD_Start
 934              	.LVL86:
 504:USB_Device/Target/usbd_conf.c **** 
 935              		.loc 1 504 3 is_stmt 1 view .LVU205
 504:USB_Device/Target/usbd_conf.c **** 
 936              		.loc 1 504 17 is_stmt 0 view .LVU206
 937 000a FFF7FEFF 		bl	USBD_Get_USB_Status
 938              	.LVL87:
 506:USB_Device/Target/usbd_conf.c **** }
 939              		.loc 1 506 3 is_stmt 1 view .LVU207
 507:USB_Device/Target/usbd_conf.c **** 
 940              		.loc 1 507 1 is_stmt 0 view .LVU208
 941 000e 08BD     		pop	{r3, pc}
 942              		.cfi_endproc
ARM GAS  C:\Users\bku598\AppData\Local\Temp\ccpE5VlW.s 			page 52


 943              	.LFE1431:
 945              		.section	.text.USBD_LL_Stop,"ax",%progbits
 946              		.align	1
 947              		.global	USBD_LL_Stop
 948              		.syntax unified
 949              		.thumb
 950              		.thumb_func
 952              	USBD_LL_Stop:
 953              	.LVL88:
 954              	.LFB1432:
 515:USB_Device/Target/usbd_conf.c ****   HAL_StatusTypeDef hal_status = HAL_OK;
 955              		.loc 1 515 1 is_stmt 1 view -0
 956              		.cfi_startproc
 957              		@ args = 0, pretend = 0, frame = 0
 958              		@ frame_needed = 0, uses_anonymous_args = 0
 515:USB_Device/Target/usbd_conf.c ****   HAL_StatusTypeDef hal_status = HAL_OK;
 959              		.loc 1 515 1 is_stmt 0 view .LVU210
 960 0000 08B5     		push	{r3, lr}
 961              	.LCFI20:
 962              		.cfi_def_cfa_offset 8
 963              		.cfi_offset 3, -8
 964              		.cfi_offset 14, -4
 516:USB_Device/Target/usbd_conf.c ****   USBD_StatusTypeDef usb_status = USBD_OK;
 965              		.loc 1 516 3 is_stmt 1 view .LVU211
 966              	.LVL89:
 517:USB_Device/Target/usbd_conf.c **** 
 967              		.loc 1 517 3 view .LVU212
 519:USB_Device/Target/usbd_conf.c **** 
 968              		.loc 1 519 3 view .LVU213
 519:USB_Device/Target/usbd_conf.c **** 
 969              		.loc 1 519 16 is_stmt 0 view .LVU214
 970 0002 D0F8C802 		ldr	r0, [r0, #712]
 971              	.LVL90:
 519:USB_Device/Target/usbd_conf.c **** 
 972              		.loc 1 519 16 view .LVU215
 973 0006 FFF7FEFF 		bl	HAL_PCD_Stop
 974              	.LVL91:
 521:USB_Device/Target/usbd_conf.c **** 
 975              		.loc 1 521 3 is_stmt 1 view .LVU216
 521:USB_Device/Target/usbd_conf.c **** 
 976              		.loc 1 521 17 is_stmt 0 view .LVU217
 977 000a FFF7FEFF 		bl	USBD_Get_USB_Status
 978              	.LVL92:
 523:USB_Device/Target/usbd_conf.c **** }
 979              		.loc 1 523 3 is_stmt 1 view .LVU218
 524:USB_Device/Target/usbd_conf.c **** 
 980              		.loc 1 524 1 is_stmt 0 view .LVU219
 981 000e 08BD     		pop	{r3, pc}
 982              		.cfi_endproc
 983              	.LFE1432:
 985              		.section	.text.USBD_LL_OpenEP,"ax",%progbits
 986              		.align	1
 987              		.global	USBD_LL_OpenEP
 988              		.syntax unified
 989              		.thumb
 990              		.thumb_func
 992              	USBD_LL_OpenEP:
ARM GAS  C:\Users\bku598\AppData\Local\Temp\ccpE5VlW.s 			page 53


 993              	.LVL93:
 994              	.LFB1433:
 535:USB_Device/Target/usbd_conf.c ****   HAL_StatusTypeDef hal_status = HAL_OK;
 995              		.loc 1 535 1 is_stmt 1 view -0
 996              		.cfi_startproc
 997              		@ args = 0, pretend = 0, frame = 0
 998              		@ frame_needed = 0, uses_anonymous_args = 0
 535:USB_Device/Target/usbd_conf.c ****   HAL_StatusTypeDef hal_status = HAL_OK;
 999              		.loc 1 535 1 is_stmt 0 view .LVU221
 1000 0000 08B5     		push	{r3, lr}
 1001              	.LCFI21:
 1002              		.cfi_def_cfa_offset 8
 1003              		.cfi_offset 3, -8
 1004              		.cfi_offset 14, -4
 1005 0002 9446     		mov	ip, r2
 1006 0004 1A46     		mov	r2, r3
 1007              	.LVL94:
 536:USB_Device/Target/usbd_conf.c ****   USBD_StatusTypeDef usb_status = USBD_OK;
 1008              		.loc 1 536 3 is_stmt 1 view .LVU222
 537:USB_Device/Target/usbd_conf.c **** 
 1009              		.loc 1 537 3 view .LVU223
 539:USB_Device/Target/usbd_conf.c **** 
 1010              		.loc 1 539 3 view .LVU224
 539:USB_Device/Target/usbd_conf.c **** 
 1011              		.loc 1 539 16 is_stmt 0 view .LVU225
 1012 0006 6346     		mov	r3, ip
 1013              	.LVL95:
 539:USB_Device/Target/usbd_conf.c **** 
 1014              		.loc 1 539 16 view .LVU226
 1015 0008 D0F8C802 		ldr	r0, [r0, #712]
 1016              	.LVL96:
 539:USB_Device/Target/usbd_conf.c **** 
 1017              		.loc 1 539 16 view .LVU227
 1018 000c FFF7FEFF 		bl	HAL_PCD_EP_Open
 1019              	.LVL97:
 541:USB_Device/Target/usbd_conf.c **** 
 1020              		.loc 1 541 3 is_stmt 1 view .LVU228
 541:USB_Device/Target/usbd_conf.c **** 
 1021              		.loc 1 541 17 is_stmt 0 view .LVU229
 1022 0010 FFF7FEFF 		bl	USBD_Get_USB_Status
 1023              	.LVL98:
 543:USB_Device/Target/usbd_conf.c **** }
 1024              		.loc 1 543 3 is_stmt 1 view .LVU230
 544:USB_Device/Target/usbd_conf.c **** 
 1025              		.loc 1 544 1 is_stmt 0 view .LVU231
 1026 0014 08BD     		pop	{r3, pc}
 1027              		.cfi_endproc
 1028              	.LFE1433:
 1030              		.section	.text.USBD_LL_CloseEP,"ax",%progbits
 1031              		.align	1
 1032              		.global	USBD_LL_CloseEP
 1033              		.syntax unified
 1034              		.thumb
 1035              		.thumb_func
 1037              	USBD_LL_CloseEP:
 1038              	.LVL99:
 1039              	.LFB1434:
ARM GAS  C:\Users\bku598\AppData\Local\Temp\ccpE5VlW.s 			page 54


 553:USB_Device/Target/usbd_conf.c ****   HAL_StatusTypeDef hal_status = HAL_OK;
 1040              		.loc 1 553 1 is_stmt 1 view -0
 1041              		.cfi_startproc
 1042              		@ args = 0, pretend = 0, frame = 0
 1043              		@ frame_needed = 0, uses_anonymous_args = 0
 553:USB_Device/Target/usbd_conf.c ****   HAL_StatusTypeDef hal_status = HAL_OK;
 1044              		.loc 1 553 1 is_stmt 0 view .LVU233
 1045 0000 08B5     		push	{r3, lr}
 1046              	.LCFI22:
 1047              		.cfi_def_cfa_offset 8
 1048              		.cfi_offset 3, -8
 1049              		.cfi_offset 14, -4
 554:USB_Device/Target/usbd_conf.c ****   USBD_StatusTypeDef usb_status = USBD_OK;
 1050              		.loc 1 554 3 is_stmt 1 view .LVU234
 1051              	.LVL100:
 555:USB_Device/Target/usbd_conf.c **** 
 1052              		.loc 1 555 3 view .LVU235
 557:USB_Device/Target/usbd_conf.c **** 
 1053              		.loc 1 557 3 view .LVU236
 557:USB_Device/Target/usbd_conf.c **** 
 1054              		.loc 1 557 16 is_stmt 0 view .LVU237
 1055 0002 D0F8C802 		ldr	r0, [r0, #712]
 1056              	.LVL101:
 557:USB_Device/Target/usbd_conf.c **** 
 1057              		.loc 1 557 16 view .LVU238
 1058 0006 FFF7FEFF 		bl	HAL_PCD_EP_Close
 1059              	.LVL102:
 559:USB_Device/Target/usbd_conf.c **** 
 1060              		.loc 1 559 3 is_stmt 1 view .LVU239
 559:USB_Device/Target/usbd_conf.c **** 
 1061              		.loc 1 559 17 is_stmt 0 view .LVU240
 1062 000a FFF7FEFF 		bl	USBD_Get_USB_Status
 1063              	.LVL103:
 561:USB_Device/Target/usbd_conf.c **** }
 1064              		.loc 1 561 3 is_stmt 1 view .LVU241
 562:USB_Device/Target/usbd_conf.c **** 
 1065              		.loc 1 562 1 is_stmt 0 view .LVU242
 1066 000e 08BD     		pop	{r3, pc}
 1067              		.cfi_endproc
 1068              	.LFE1434:
 1070              		.section	.text.USBD_LL_FlushEP,"ax",%progbits
 1071              		.align	1
 1072              		.global	USBD_LL_FlushEP
 1073              		.syntax unified
 1074              		.thumb
 1075              		.thumb_func
 1077              	USBD_LL_FlushEP:
 1078              	.LVL104:
 1079              	.LFB1435:
 571:USB_Device/Target/usbd_conf.c ****   HAL_StatusTypeDef hal_status = HAL_OK;
 1080              		.loc 1 571 1 is_stmt 1 view -0
 1081              		.cfi_startproc
 1082              		@ args = 0, pretend = 0, frame = 0
 1083              		@ frame_needed = 0, uses_anonymous_args = 0
 571:USB_Device/Target/usbd_conf.c ****   HAL_StatusTypeDef hal_status = HAL_OK;
 1084              		.loc 1 571 1 is_stmt 0 view .LVU244
 1085 0000 08B5     		push	{r3, lr}
ARM GAS  C:\Users\bku598\AppData\Local\Temp\ccpE5VlW.s 			page 55


 1086              	.LCFI23:
 1087              		.cfi_def_cfa_offset 8
 1088              		.cfi_offset 3, -8
 1089              		.cfi_offset 14, -4
 572:USB_Device/Target/usbd_conf.c ****   USBD_StatusTypeDef usb_status = USBD_OK;
 1090              		.loc 1 572 3 is_stmt 1 view .LVU245
 1091              	.LVL105:
 573:USB_Device/Target/usbd_conf.c **** 
 1092              		.loc 1 573 3 view .LVU246
 575:USB_Device/Target/usbd_conf.c **** 
 1093              		.loc 1 575 3 view .LVU247
 575:USB_Device/Target/usbd_conf.c **** 
 1094              		.loc 1 575 16 is_stmt 0 view .LVU248
 1095 0002 D0F8C802 		ldr	r0, [r0, #712]
 1096              	.LVL106:
 575:USB_Device/Target/usbd_conf.c **** 
 1097              		.loc 1 575 16 view .LVU249
 1098 0006 FFF7FEFF 		bl	HAL_PCD_EP_Flush
 1099              	.LVL107:
 577:USB_Device/Target/usbd_conf.c **** 
 1100              		.loc 1 577 3 is_stmt 1 view .LVU250
 577:USB_Device/Target/usbd_conf.c **** 
 1101              		.loc 1 577 17 is_stmt 0 view .LVU251
 1102 000a FFF7FEFF 		bl	USBD_Get_USB_Status
 1103              	.LVL108:
 579:USB_Device/Target/usbd_conf.c **** }
 1104              		.loc 1 579 3 is_stmt 1 view .LVU252
 580:USB_Device/Target/usbd_conf.c **** 
 1105              		.loc 1 580 1 is_stmt 0 view .LVU253
 1106 000e 08BD     		pop	{r3, pc}
 1107              		.cfi_endproc
 1108              	.LFE1435:
 1110              		.section	.text.USBD_LL_StallEP,"ax",%progbits
 1111              		.align	1
 1112              		.global	USBD_LL_StallEP
 1113              		.syntax unified
 1114              		.thumb
 1115              		.thumb_func
 1117              	USBD_LL_StallEP:
 1118              	.LVL109:
 1119              	.LFB1436:
 589:USB_Device/Target/usbd_conf.c ****   HAL_StatusTypeDef hal_status = HAL_OK;
 1120              		.loc 1 589 1 is_stmt 1 view -0
 1121              		.cfi_startproc
 1122              		@ args = 0, pretend = 0, frame = 0
 1123              		@ frame_needed = 0, uses_anonymous_args = 0
 589:USB_Device/Target/usbd_conf.c ****   HAL_StatusTypeDef hal_status = HAL_OK;
 1124              		.loc 1 589 1 is_stmt 0 view .LVU255
 1125 0000 08B5     		push	{r3, lr}
 1126              	.LCFI24:
 1127              		.cfi_def_cfa_offset 8
 1128              		.cfi_offset 3, -8
 1129              		.cfi_offset 14, -4
 590:USB_Device/Target/usbd_conf.c ****   USBD_StatusTypeDef usb_status = USBD_OK;
 1130              		.loc 1 590 3 is_stmt 1 view .LVU256
 1131              	.LVL110:
 591:USB_Device/Target/usbd_conf.c **** 
ARM GAS  C:\Users\bku598\AppData\Local\Temp\ccpE5VlW.s 			page 56


 1132              		.loc 1 591 3 view .LVU257
 593:USB_Device/Target/usbd_conf.c **** 
 1133              		.loc 1 593 3 view .LVU258
 593:USB_Device/Target/usbd_conf.c **** 
 1134              		.loc 1 593 16 is_stmt 0 view .LVU259
 1135 0002 D0F8C802 		ldr	r0, [r0, #712]
 1136              	.LVL111:
 593:USB_Device/Target/usbd_conf.c **** 
 1137              		.loc 1 593 16 view .LVU260
 1138 0006 FFF7FEFF 		bl	HAL_PCD_EP_SetStall
 1139              	.LVL112:
 595:USB_Device/Target/usbd_conf.c **** 
 1140              		.loc 1 595 3 is_stmt 1 view .LVU261
 595:USB_Device/Target/usbd_conf.c **** 
 1141              		.loc 1 595 17 is_stmt 0 view .LVU262
 1142 000a FFF7FEFF 		bl	USBD_Get_USB_Status
 1143              	.LVL113:
 597:USB_Device/Target/usbd_conf.c **** }
 1144              		.loc 1 597 3 is_stmt 1 view .LVU263
 598:USB_Device/Target/usbd_conf.c **** 
 1145              		.loc 1 598 1 is_stmt 0 view .LVU264
 1146 000e 08BD     		pop	{r3, pc}
 1147              		.cfi_endproc
 1148              	.LFE1436:
 1150              		.section	.text.USBD_LL_ClearStallEP,"ax",%progbits
 1151              		.align	1
 1152              		.global	USBD_LL_ClearStallEP
 1153              		.syntax unified
 1154              		.thumb
 1155              		.thumb_func
 1157              	USBD_LL_ClearStallEP:
 1158              	.LVL114:
 1159              	.LFB1437:
 607:USB_Device/Target/usbd_conf.c ****   HAL_StatusTypeDef hal_status = HAL_OK;
 1160              		.loc 1 607 1 is_stmt 1 view -0
 1161              		.cfi_startproc
 1162              		@ args = 0, pretend = 0, frame = 0
 1163              		@ frame_needed = 0, uses_anonymous_args = 0
 607:USB_Device/Target/usbd_conf.c ****   HAL_StatusTypeDef hal_status = HAL_OK;
 1164              		.loc 1 607 1 is_stmt 0 view .LVU266
 1165 0000 08B5     		push	{r3, lr}
 1166              	.LCFI25:
 1167              		.cfi_def_cfa_offset 8
 1168              		.cfi_offset 3, -8
 1169              		.cfi_offset 14, -4
 608:USB_Device/Target/usbd_conf.c ****   USBD_StatusTypeDef usb_status = USBD_OK;
 1170              		.loc 1 608 3 is_stmt 1 view .LVU267
 1171              	.LVL115:
 609:USB_Device/Target/usbd_conf.c **** 
 1172              		.loc 1 609 3 view .LVU268
 611:USB_Device/Target/usbd_conf.c **** 
 1173              		.loc 1 611 3 view .LVU269
 611:USB_Device/Target/usbd_conf.c **** 
 1174              		.loc 1 611 16 is_stmt 0 view .LVU270
 1175 0002 D0F8C802 		ldr	r0, [r0, #712]
 1176              	.LVL116:
 611:USB_Device/Target/usbd_conf.c **** 
ARM GAS  C:\Users\bku598\AppData\Local\Temp\ccpE5VlW.s 			page 57


 1177              		.loc 1 611 16 view .LVU271
 1178 0006 FFF7FEFF 		bl	HAL_PCD_EP_ClrStall
 1179              	.LVL117:
 613:USB_Device/Target/usbd_conf.c **** 
 1180              		.loc 1 613 3 is_stmt 1 view .LVU272
 613:USB_Device/Target/usbd_conf.c **** 
 1181              		.loc 1 613 17 is_stmt 0 view .LVU273
 1182 000a FFF7FEFF 		bl	USBD_Get_USB_Status
 1183              	.LVL118:
 615:USB_Device/Target/usbd_conf.c **** }
 1184              		.loc 1 615 3 is_stmt 1 view .LVU274
 616:USB_Device/Target/usbd_conf.c **** 
 1185              		.loc 1 616 1 is_stmt 0 view .LVU275
 1186 000e 08BD     		pop	{r3, pc}
 1187              		.cfi_endproc
 1188              	.LFE1437:
 1190              		.section	.text.USBD_LL_IsStallEP,"ax",%progbits
 1191              		.align	1
 1192              		.global	USBD_LL_IsStallEP
 1193              		.syntax unified
 1194              		.thumb
 1195              		.thumb_func
 1197              	USBD_LL_IsStallEP:
 1198              	.LVL119:
 1199              	.LFB1438:
 625:USB_Device/Target/usbd_conf.c ****   PCD_HandleTypeDef *hpcd = (PCD_HandleTypeDef*) pdev->pData;
 1200              		.loc 1 625 1 is_stmt 1 view -0
 1201              		.cfi_startproc
 1202              		@ args = 0, pretend = 0, frame = 0
 1203              		@ frame_needed = 0, uses_anonymous_args = 0
 1204              		@ link register save eliminated.
 626:USB_Device/Target/usbd_conf.c **** 
 1205              		.loc 1 626 3 view .LVU277
 626:USB_Device/Target/usbd_conf.c **** 
 1206              		.loc 1 626 22 is_stmt 0 view .LVU278
 1207 0000 D0F8C832 		ldr	r3, [r0, #712]
 1208              	.LVL120:
 628:USB_Device/Target/usbd_conf.c ****   {
 1209              		.loc 1 628 3 is_stmt 1 view .LVU279
 628:USB_Device/Target/usbd_conf.c ****   {
 1210              		.loc 1 628 5 is_stmt 0 view .LVU280
 1211 0004 11F0800F 		tst	r1, #128
 1212 0008 08D1     		bne	.L80
 634:USB_Device/Target/usbd_conf.c ****   }
 1213              		.loc 1 634 5 is_stmt 1 view .LVU281
 634:USB_Device/Target/usbd_conf.c ****   }
 1214              		.loc 1 634 33 is_stmt 0 view .LVU282
 1215 000a 01F07F01 		and	r1, r1, #127
 1216              	.LVL121:
 634:USB_Device/Target/usbd_conf.c ****   }
 1217              		.loc 1 634 40 view .LVU283
 1218 000e 01EB8101 		add	r1, r1, r1, lsl #2
 1219 0012 03EBC103 		add	r3, r3, r1, lsl #3
 1220              	.LVL122:
 634:USB_Device/Target/usbd_conf.c ****   }
 1221              		.loc 1 634 40 view .LVU284
 1222 0016 93F85201 		ldrb	r0, [r3, #338]	@ zero_extendqisi2
ARM GAS  C:\Users\bku598\AppData\Local\Temp\ccpE5VlW.s 			page 58


 1223              	.LVL123:
 636:USB_Device/Target/usbd_conf.c **** 
 1224              		.loc 1 636 1 view .LVU285
 1225 001a 7047     		bx	lr
 1226              	.LVL124:
 1227              	.L80:
 630:USB_Device/Target/usbd_conf.c ****   }
 1228              		.loc 1 630 5 is_stmt 1 view .LVU286
 630:USB_Device/Target/usbd_conf.c ****   }
 1229              		.loc 1 630 32 is_stmt 0 view .LVU287
 1230 001c 01F07F01 		and	r1, r1, #127
 1231              	.LVL125:
 630:USB_Device/Target/usbd_conf.c ****   }
 1232              		.loc 1 630 39 view .LVU288
 1233 0020 01EB8101 		add	r1, r1, r1, lsl #2
 1234 0024 03EBC103 		add	r3, r3, r1, lsl #3
 1235              	.LVL126:
 630:USB_Device/Target/usbd_conf.c ****   }
 1236              		.loc 1 630 39 view .LVU289
 1237 0028 987C     		ldrb	r0, [r3, #18]	@ zero_extendqisi2
 1238              	.LVL127:
 630:USB_Device/Target/usbd_conf.c ****   }
 1239              		.loc 1 630 39 view .LVU290
 1240 002a 7047     		bx	lr
 1241              		.cfi_endproc
 1242              	.LFE1438:
 1244              		.section	.text.USBD_LL_SetUSBAddress,"ax",%progbits
 1245              		.align	1
 1246              		.global	USBD_LL_SetUSBAddress
 1247              		.syntax unified
 1248              		.thumb
 1249              		.thumb_func
 1251              	USBD_LL_SetUSBAddress:
 1252              	.LVL128:
 1253              	.LFB1439:
 645:USB_Device/Target/usbd_conf.c ****   HAL_StatusTypeDef hal_status = HAL_OK;
 1254              		.loc 1 645 1 is_stmt 1 view -0
 1255              		.cfi_startproc
 1256              		@ args = 0, pretend = 0, frame = 0
 1257              		@ frame_needed = 0, uses_anonymous_args = 0
 645:USB_Device/Target/usbd_conf.c ****   HAL_StatusTypeDef hal_status = HAL_OK;
 1258              		.loc 1 645 1 is_stmt 0 view .LVU292
 1259 0000 08B5     		push	{r3, lr}
 1260              	.LCFI26:
 1261              		.cfi_def_cfa_offset 8
 1262              		.cfi_offset 3, -8
 1263              		.cfi_offset 14, -4
 646:USB_Device/Target/usbd_conf.c ****   USBD_StatusTypeDef usb_status = USBD_OK;
 1264              		.loc 1 646 3 is_stmt 1 view .LVU293
 1265              	.LVL129:
 647:USB_Device/Target/usbd_conf.c **** 
 1266              		.loc 1 647 3 view .LVU294
 649:USB_Device/Target/usbd_conf.c **** 
 1267              		.loc 1 649 3 view .LVU295
 649:USB_Device/Target/usbd_conf.c **** 
 1268              		.loc 1 649 16 is_stmt 0 view .LVU296
 1269 0002 D0F8C802 		ldr	r0, [r0, #712]
ARM GAS  C:\Users\bku598\AppData\Local\Temp\ccpE5VlW.s 			page 59


 1270              	.LVL130:
 649:USB_Device/Target/usbd_conf.c **** 
 1271              		.loc 1 649 16 view .LVU297
 1272 0006 FFF7FEFF 		bl	HAL_PCD_SetAddress
 1273              	.LVL131:
 651:USB_Device/Target/usbd_conf.c **** 
 1274              		.loc 1 651 3 is_stmt 1 view .LVU298
 651:USB_Device/Target/usbd_conf.c **** 
 1275              		.loc 1 651 17 is_stmt 0 view .LVU299
 1276 000a FFF7FEFF 		bl	USBD_Get_USB_Status
 1277              	.LVL132:
 653:USB_Device/Target/usbd_conf.c **** }
 1278              		.loc 1 653 3 is_stmt 1 view .LVU300
 654:USB_Device/Target/usbd_conf.c **** 
 1279              		.loc 1 654 1 is_stmt 0 view .LVU301
 1280 000e 08BD     		pop	{r3, pc}
 1281              		.cfi_endproc
 1282              	.LFE1439:
 1284              		.section	.text.USBD_LL_Transmit,"ax",%progbits
 1285              		.align	1
 1286              		.global	USBD_LL_Transmit
 1287              		.syntax unified
 1288              		.thumb
 1289              		.thumb_func
 1291              	USBD_LL_Transmit:
 1292              	.LVL133:
 1293              	.LFB1440:
 665:USB_Device/Target/usbd_conf.c ****   HAL_StatusTypeDef hal_status = HAL_OK;
 1294              		.loc 1 665 1 is_stmt 1 view -0
 1295              		.cfi_startproc
 1296              		@ args = 0, pretend = 0, frame = 0
 1297              		@ frame_needed = 0, uses_anonymous_args = 0
 665:USB_Device/Target/usbd_conf.c ****   HAL_StatusTypeDef hal_status = HAL_OK;
 1298              		.loc 1 665 1 is_stmt 0 view .LVU303
 1299 0000 08B5     		push	{r3, lr}
 1300              	.LCFI27:
 1301              		.cfi_def_cfa_offset 8
 1302              		.cfi_offset 3, -8
 1303              		.cfi_offset 14, -4
 666:USB_Device/Target/usbd_conf.c ****   USBD_StatusTypeDef usb_status = USBD_OK;
 1304              		.loc 1 666 3 is_stmt 1 view .LVU304
 1305              	.LVL134:
 667:USB_Device/Target/usbd_conf.c **** 
 1306              		.loc 1 667 3 view .LVU305
 669:USB_Device/Target/usbd_conf.c **** 
 1307              		.loc 1 669 3 view .LVU306
 669:USB_Device/Target/usbd_conf.c **** 
 1308              		.loc 1 669 16 is_stmt 0 view .LVU307
 1309 0002 D0F8C802 		ldr	r0, [r0, #712]
 1310              	.LVL135:
 669:USB_Device/Target/usbd_conf.c **** 
 1311              		.loc 1 669 16 view .LVU308
 1312 0006 FFF7FEFF 		bl	HAL_PCD_EP_Transmit
 1313              	.LVL136:
 671:USB_Device/Target/usbd_conf.c **** 
 1314              		.loc 1 671 3 is_stmt 1 view .LVU309
 671:USB_Device/Target/usbd_conf.c **** 
ARM GAS  C:\Users\bku598\AppData\Local\Temp\ccpE5VlW.s 			page 60


 1315              		.loc 1 671 17 is_stmt 0 view .LVU310
 1316 000a FFF7FEFF 		bl	USBD_Get_USB_Status
 1317              	.LVL137:
 673:USB_Device/Target/usbd_conf.c **** }
 1318              		.loc 1 673 3 is_stmt 1 view .LVU311
 674:USB_Device/Target/usbd_conf.c **** 
 1319              		.loc 1 674 1 is_stmt 0 view .LVU312
 1320 000e 08BD     		pop	{r3, pc}
 1321              		.cfi_endproc
 1322              	.LFE1440:
 1324              		.section	.text.USBD_LL_PrepareReceive,"ax",%progbits
 1325              		.align	1
 1326              		.global	USBD_LL_PrepareReceive
 1327              		.syntax unified
 1328              		.thumb
 1329              		.thumb_func
 1331              	USBD_LL_PrepareReceive:
 1332              	.LVL138:
 1333              	.LFB1441:
 685:USB_Device/Target/usbd_conf.c ****   HAL_StatusTypeDef hal_status = HAL_OK;
 1334              		.loc 1 685 1 is_stmt 1 view -0
 1335              		.cfi_startproc
 1336              		@ args = 0, pretend = 0, frame = 0
 1337              		@ frame_needed = 0, uses_anonymous_args = 0
 685:USB_Device/Target/usbd_conf.c ****   HAL_StatusTypeDef hal_status = HAL_OK;
 1338              		.loc 1 685 1 is_stmt 0 view .LVU314
 1339 0000 08B5     		push	{r3, lr}
 1340              	.LCFI28:
 1341              		.cfi_def_cfa_offset 8
 1342              		.cfi_offset 3, -8
 1343              		.cfi_offset 14, -4
 686:USB_Device/Target/usbd_conf.c ****   USBD_StatusTypeDef usb_status = USBD_OK;
 1344              		.loc 1 686 3 is_stmt 1 view .LVU315
 1345              	.LVL139:
 687:USB_Device/Target/usbd_conf.c **** 
 1346              		.loc 1 687 3 view .LVU316
 689:USB_Device/Target/usbd_conf.c **** 
 1347              		.loc 1 689 3 view .LVU317
 689:USB_Device/Target/usbd_conf.c **** 
 1348              		.loc 1 689 16 is_stmt 0 view .LVU318
 1349 0002 D0F8C802 		ldr	r0, [r0, #712]
 1350              	.LVL140:
 689:USB_Device/Target/usbd_conf.c **** 
 1351              		.loc 1 689 16 view .LVU319
 1352 0006 FFF7FEFF 		bl	HAL_PCD_EP_Receive
 1353              	.LVL141:
 691:USB_Device/Target/usbd_conf.c **** 
 1354              		.loc 1 691 3 is_stmt 1 view .LVU320
 691:USB_Device/Target/usbd_conf.c **** 
 1355              		.loc 1 691 17 is_stmt 0 view .LVU321
 1356 000a FFF7FEFF 		bl	USBD_Get_USB_Status
 1357              	.LVL142:
 693:USB_Device/Target/usbd_conf.c **** }
 1358              		.loc 1 693 3 is_stmt 1 view .LVU322
 694:USB_Device/Target/usbd_conf.c **** 
 1359              		.loc 1 694 1 is_stmt 0 view .LVU323
 1360 000e 08BD     		pop	{r3, pc}
ARM GAS  C:\Users\bku598\AppData\Local\Temp\ccpE5VlW.s 			page 61


 1361              		.cfi_endproc
 1362              	.LFE1441:
 1364              		.section	.text.USBD_LL_GetRxDataSize,"ax",%progbits
 1365              		.align	1
 1366              		.global	USBD_LL_GetRxDataSize
 1367              		.syntax unified
 1368              		.thumb
 1369              		.thumb_func
 1371              	USBD_LL_GetRxDataSize:
 1372              	.LVL143:
 1373              	.LFB1442:
 703:USB_Device/Target/usbd_conf.c ****   return HAL_PCD_EP_GetRxCount((PCD_HandleTypeDef*) pdev->pData, ep_addr);
 1374              		.loc 1 703 1 is_stmt 1 view -0
 1375              		.cfi_startproc
 1376              		@ args = 0, pretend = 0, frame = 0
 1377              		@ frame_needed = 0, uses_anonymous_args = 0
 703:USB_Device/Target/usbd_conf.c ****   return HAL_PCD_EP_GetRxCount((PCD_HandleTypeDef*) pdev->pData, ep_addr);
 1378              		.loc 1 703 1 is_stmt 0 view .LVU325
 1379 0000 08B5     		push	{r3, lr}
 1380              	.LCFI29:
 1381              		.cfi_def_cfa_offset 8
 1382              		.cfi_offset 3, -8
 1383              		.cfi_offset 14, -4
 704:USB_Device/Target/usbd_conf.c **** }
 1384              		.loc 1 704 3 is_stmt 1 view .LVU326
 704:USB_Device/Target/usbd_conf.c **** }
 1385              		.loc 1 704 10 is_stmt 0 view .LVU327
 1386 0002 D0F8C802 		ldr	r0, [r0, #712]
 1387              	.LVL144:
 704:USB_Device/Target/usbd_conf.c **** }
 1388              		.loc 1 704 10 view .LVU328
 1389 0006 FFF7FEFF 		bl	HAL_PCD_EP_GetRxCount
 1390              	.LVL145:
 705:USB_Device/Target/usbd_conf.c **** 
 1391              		.loc 1 705 1 view .LVU329
 1392 000a 08BD     		pop	{r3, pc}
 1393              		.cfi_endproc
 1394              	.LFE1442:
 1396              		.section	.text.USBD_LL_Delay,"ax",%progbits
 1397              		.align	1
 1398              		.global	USBD_LL_Delay
 1399              		.syntax unified
 1400              		.thumb
 1401              		.thumb_func
 1403              	USBD_LL_Delay:
 1404              	.LVL146:
 1405              	.LFB1443:
 713:USB_Device/Target/usbd_conf.c ****   HAL_Delay(Delay);
 1406              		.loc 1 713 1 is_stmt 1 view -0
 1407              		.cfi_startproc
 1408              		@ args = 0, pretend = 0, frame = 0
 1409              		@ frame_needed = 0, uses_anonymous_args = 0
 713:USB_Device/Target/usbd_conf.c ****   HAL_Delay(Delay);
 1410              		.loc 1 713 1 is_stmt 0 view .LVU331
 1411 0000 08B5     		push	{r3, lr}
 1412              	.LCFI30:
 1413              		.cfi_def_cfa_offset 8
ARM GAS  C:\Users\bku598\AppData\Local\Temp\ccpE5VlW.s 			page 62


 1414              		.cfi_offset 3, -8
 1415              		.cfi_offset 14, -4
 714:USB_Device/Target/usbd_conf.c **** }
 1416              		.loc 1 714 3 is_stmt 1 view .LVU332
 1417 0002 FFF7FEFF 		bl	HAL_Delay
 1418              	.LVL147:
 715:USB_Device/Target/usbd_conf.c **** 
 1419              		.loc 1 715 1 is_stmt 0 view .LVU333
 1420 0006 08BD     		pop	{r3, pc}
 1421              		.cfi_endproc
 1422              	.LFE1443:
 1424              		.section	.text.USBD_static_malloc,"ax",%progbits
 1425              		.align	1
 1426              		.global	USBD_static_malloc
 1427              		.syntax unified
 1428              		.thumb
 1429              		.thumb_func
 1431              	USBD_static_malloc:
 1432              	.LVL148:
 1433              	.LFB1444:
 723:USB_Device/Target/usbd_conf.c ****   UNUSED(size);
 1434              		.loc 1 723 1 is_stmt 1 view -0
 1435              		.cfi_startproc
 1436              		@ args = 0, pretend = 0, frame = 0
 1437              		@ frame_needed = 0, uses_anonymous_args = 0
 1438              		@ link register save eliminated.
 724:USB_Device/Target/usbd_conf.c ****   static uint32_t mem[(sizeof(USBD_CDC_HandleTypeDef)/4)+1];/* On 32-bit boundary */
 1439              		.loc 1 724 3 view .LVU335
 725:USB_Device/Target/usbd_conf.c ****   return mem;
 1440              		.loc 1 725 3 view .LVU336
 726:USB_Device/Target/usbd_conf.c **** }
 1441              		.loc 1 726 3 view .LVU337
 727:USB_Device/Target/usbd_conf.c **** 
 1442              		.loc 1 727 1 is_stmt 0 view .LVU338
 1443 0000 0048     		ldr	r0, .L92
 1444              	.LVL149:
 727:USB_Device/Target/usbd_conf.c **** 
 1445              		.loc 1 727 1 view .LVU339
 1446 0002 7047     		bx	lr
 1447              	.L93:
 1448              		.align	2
 1449              	.L92:
 1450 0004 00000000 		.word	mem.0
 1451              		.cfi_endproc
 1452              	.LFE1444:
 1454              		.section	.text.USBD_static_free,"ax",%progbits
 1455              		.align	1
 1456              		.global	USBD_static_free
 1457              		.syntax unified
 1458              		.thumb
 1459              		.thumb_func
 1461              	USBD_static_free:
 1462              	.LVL150:
 1463              	.LFB1445:
 735:USB_Device/Target/usbd_conf.c ****   UNUSED(p);
 1464              		.loc 1 735 1 is_stmt 1 view -0
 1465              		.cfi_startproc
ARM GAS  C:\Users\bku598\AppData\Local\Temp\ccpE5VlW.s 			page 63


 1466              		@ args = 0, pretend = 0, frame = 0
 1467              		@ frame_needed = 0, uses_anonymous_args = 0
 1468              		@ link register save eliminated.
 736:USB_Device/Target/usbd_conf.c **** }
 1469              		.loc 1 736 3 view .LVU341
 737:USB_Device/Target/usbd_conf.c **** 
 1470              		.loc 1 737 1 is_stmt 0 view .LVU342
 1471 0000 7047     		bx	lr
 1472              		.cfi_endproc
 1473              	.LFE1445:
 1475              		.section	.bss.mem.0,"aw",%nobits
 1476              		.align	2
 1479              	mem.0:
 1480 0000 00000000 		.space	544
 1480      00000000 
 1480      00000000 
 1480      00000000 
 1480      00000000 
 1481              		.global	hpcd_USB_FS
 1482              		.section	.bss.hpcd_USB_FS,"aw",%nobits
 1483              		.align	2
 1486              	hpcd_USB_FS:
 1487 0000 00000000 		.space	732
 1487      00000000 
 1487      00000000 
 1487      00000000 
 1487      00000000 
 1488              		.text
 1489              	.Letext0:
 1490              		.file 3 "Drivers/CMSIS/Device/ST/STM32WBxx/Include/stm32wb55xx.h"
 1491              		.file 4 "C:\\dev\\tools\\gcc-arm-none-eabi-13.3\\bin\\../lib/gcc/arm-none-eabi/13.3.1/../../../../
 1492              		.file 5 "C:\\dev\\tools\\gcc-arm-none-eabi-13.3\\bin\\../lib/gcc/arm-none-eabi/13.3.1/../../../../
 1493              		.file 6 "Drivers/CMSIS/Include/core_cm4.h"
 1494              		.file 7 "Drivers/CMSIS/Device/ST/STM32WBxx/Include/stm32wbxx.h"
 1495              		.file 8 "Drivers/STM32WBxx_HAL_Driver/Inc/stm32wbxx_hal_def.h"
 1496              		.file 9 "Drivers/STM32WBxx_HAL_Driver/Inc/stm32wbxx_hal_gpio.h"
 1497              		.file 10 "Drivers/STM32WBxx_HAL_Driver/Inc/stm32wbxx_ll_usb.h"
 1498              		.file 11 "Drivers/STM32WBxx_HAL_Driver/Inc/stm32wbxx_hal_pcd.h"
 1499              		.file 12 "Drivers/STM32WBxx_HAL_Driver/Inc/stm32wbxx_hal_rcc_ex.h"
 1500              		.file 13 "Core/Inc/app_conf.h"
 1501              		.file 14 "Middlewares/ST/STM32_USB_Device_Library/Core/Inc/usbd_def.h"
 1502              		.file 15 "Drivers/STM32WBxx_HAL_Driver/Inc/stm32wbxx_hal_pcd_ex.h"
 1503              		.file 16 "Middlewares/ST/STM32_USB_Device_Library/Core/Inc/usbd_core.h"
 1504              		.file 17 "Drivers/STM32WBxx_HAL_Driver/Inc/stm32wbxx_hal_pwr_ex.h"
 1505              		.file 18 "Drivers/STM32WBxx_HAL_Driver/Inc/stm32wbxx_hal.h"
 1506              		.file 19 "Drivers/STM32WBxx_HAL_Driver/Inc/stm32wbxx_hal_cortex.h"
 1507              		.file 20 "<built-in>"
ARM GAS  C:\Users\bku598\AppData\Local\Temp\ccpE5VlW.s 			page 64

